(dp0
S'tasks'
p1
(lp2
(itasks.task
Task
p3
(dp4
S'startTime'
p5
F1494071679.473277
sS'endTime'
p6
F1494071779.473278
sS'location'
p7
(imaps.location
Location
p8
(dp9
S'lat'
p10
I13
sS'lng'
p11
I13
sS'nid'
p12
I1
sbsS'comments'
p13
S'new task '
p14
sS'taskType'
p15
S'dig'
p16
sba(itasks.task
Task
p17
(dp18
g5
F1494071679.473294
sg6
F1494071779.473294
sg7
(imaps.location
Location
p19
(dp20
g10
I14
sg11
I14
sg12
I2
sbsg13
g14
sg15
g16
sba(itasks.task
Task
p21
(dp22
g5
F1494071679.473297
sg6
F1494071779.473297
sg7
(imaps.location
Location
p23
(dp24
g10
I15
sg11
I15
sg12
I3
sbsg13
g14
sg15
g16
sba(itasks.task
Task
p25
(dp26
g5
F1494071679.473299
sg6
F1494071779.4733
sg7
(imaps.location
Location
p27
(dp28
g10
I16
sg11
I16
sg12
I4
sbsg13
g14
sg15
g16
sba(itasks.task
Task
p29
(dp30
g5
F1494071679.473302
sg6
F1494071779.473302
sg7
(imaps.location
Location
p31
(dp32
g10
I17
sg11
I17
sg12
I5
sbsg13
g14
sg15
g16
sba(itasks.task
Task
p33
(dp34
g5
F1494071679.473304
sg6
F1494071779.473305
sg7
(imaps.location
Location
p35
(dp36
g10
I18
sg11
I18
sg12
I6
sbsg13
g14
sg15
g16
sba(itasks.task
Task
p37
(dp38
g5
F1494071679.473309
sg6
F1494071779.473309
sg7
(imaps.location
Location
p39
(dp40
g10
I19
sg11
I19
sg12
I7
sbsg13
g14
sg15
g16
sba(itasks.task
Task
p41
(dp42
g5
F1494071679.473311
sg6
F1494071779.473311
sg7
(imaps.location
Location
p43
(dp44
g10
I20
sg11
I20
sg12
I8
sbsg13
g14
sg15
g16
sba(itasks.task
Task
p45
(dp46
g5
F1494071679.473313
sg6
F1494071779.473313
sg7
(imaps.location
Location
p47
(dp48
g10
I21
sg11
I21
sg12
I9
sbsg13
g14
sg15
g16
sba(itasks.task
Task
p49
(dp50
g5
F1494071679.473316
sg6
F1494071779.473316
sg7
(imaps.location
Location
p51
(dp52
g10
I22
sg11
I22
sg12
I10
sbsg13
g14
sg15
g16
sba(itasks.task
Task
p53
(dp54
g5
F1494071679.473319
sg6
F1494071779.473319
sg7
(imaps.location
Location
p55
(dp56
g10
I23
sg11
I23
sg12
I11
sbsg13
g14
sg15
g16
sba(itasks.task
Task
p57
(dp58
g5
F1494071679.473322
sg6
F1494071779.473322
sg7
(imaps.location
Location
p59
(dp60
g10
I24
sg11
I24
sg12
I12
sbsg13
g14
sg15
g16
sba(itasks.task
Task
p61
(dp62
g5
F1494071679.473324
sg6
F1494071779.473325
sg7
(imaps.location
Location
p63
(dp64
g10
I25
sg11
I25
sg12
I13
sbsg13
g14
sg15
g16
sba(itasks.task
Task
p65
(dp66
g5
F1494071679.47333
sg6
F1494071779.47333
sg7
(imaps.location
Location
p67
(dp68
g10
I26
sg11
I26
sg12
I14
sbsg13
g14
sg15
g16
sba(itasks.task
Task
p69
(dp70
g5
F1494071679.473333
sg6
F1494071779.473333
sg7
(imaps.location
Location
p71
(dp72
g10
I27
sg11
I27
sg12
I15
sbsg13
g14
sg15
g16
sba(itasks.task
Task
p73
(dp74
g5
F1494071679.473335
sg6
F1494071779.473336
sg7
(imaps.location
Location
p75
(dp76
g10
I28
sg11
I28
sg12
I16
sbsg13
g14
sg15
g16
sba(itasks.task
Task
p77
(dp78
g5
F1494071679.473338
sg6
F1494071779.473338
sg7
(imaps.location
Location
p79
(dp80
g10
I29
sg11
I29
sg12
I17
sbsg13
g14
sg15
g16
sba(itasks.task
Task
p81
(dp82
g5
F1494071679.473341
sg6
F1494071779.473341
sg7
(imaps.location
Location
p83
(dp84
g10
I30
sg11
I30
sg12
I18
sbsg13
g14
sg15
g16
sba(itasks.task
Task
p85
(dp86
g5
F1494071679.473344
sg6
F1494071779.473344
sg7
(imaps.location
Location
p87
(dp88
g10
I31
sg11
I31
sg12
I19
sbsg13
g14
sg15
g16
sba(itasks.task
Task
p89
(dp90
g5
F1494071679.473347
sg6
F1494071779.473347
sg7
(imaps.location
Location
p91
(dp92
g10
I32
sg11
I32
sg12
I20
sbsg13
g14
sg15
g16
sba(itasks.task
Task
p93
(dp94
g5
F1494071679.473351
sg6
F1494071779.473352
sg7
(imaps.location
Location
p95
(dp96
g10
I33
sg11
I33
sg12
I21
sbsg13
g14
sg15
g16
sba(itasks.task
Task
p97
(dp98
g5
F1494071679.473356
sg6
F1494071779.473356
sg7
(imaps.location
Location
p99
(dp100
g10
I34
sg11
I34
sg12
I22
sbsg13
g14
sg15
g16
sba(itasks.task
Task
p101
(dp102
g5
F1494071679.473358
sg6
F1494071779.473358
sg7
(imaps.location
Location
p103
(dp104
g10
I35
sg11
I35
sg12
I23
sbsg13
g14
sg15
g16
sba(itasks.task
Task
p105
(dp106
g5
F1494071679.473361
sg6
F1494071779.473361
sg7
(imaps.location
Location
p107
(dp108
g10
I36
sg11
I36
sg12
I24
sbsg13
g14
sg15
g16
sba(itasks.task
Task
p109
(dp110
g5
F1494071679.473364
sg6
F1494071779.473364
sg7
(imaps.location
Location
p111
(dp112
g10
I37
sg11
I37
sg12
I25
sbsg13
g14
sg15
g16
sba(itasks.task
Task
p113
(dp114
g5
F1494071679.473366
sg6
F1494071779.473366
sg7
(imaps.location
Location
p115
(dp116
g10
I38
sg11
I38
sg12
I26
sbsg13
g14
sg15
g16
sba(itasks.task
Task
p117
(dp118
g5
F1494071679.47337
sg6
F1494071779.47337
sg7
(imaps.location
Location
p119
(dp120
g10
I39
sg11
I39
sg12
I27
sbsg13
g14
sg15
g16
sba(itasks.task
Task
p121
(dp122
g5
F1494071679.473374
sg6
F1494071779.473374
sg7
(imaps.location
Location
p123
(dp124
g10
I40
sg11
I40
sg12
I28
sbsg13
g14
sg15
g16
sba(itasks.task
Task
p125
(dp126
g5
F1494071679.473377
sg6
F1494071779.473377
sg7
(imaps.location
Location
p127
(dp128
g10
I41
sg11
I41
sg12
I29
sbsg13
g14
sg15
g16
sba(itasks.task
Task
p129
(dp130
g5
F1494071679.473379
sg6
F1494071779.47338
sg7
(imaps.location
Location
p131
(dp132
g10
I42
sg11
I42
sg12
I30
sbsg13
g14
sg15
g16
sba(itasks.task
Task
p133
(dp134
g5
F1494071679.473382
sg6
F1494071779.473382
sg7
(imaps.location
Location
p135
(dp136
g10
I43
sg11
I43
sg12
I31
sbsg13
g14
sg15
g16
sba(itasks.task
Task
p137
(dp138
g5
F1494071679.473385
sg6
F1494071779.473385
sg7
(imaps.location
Location
p139
(dp140
g10
I44
sg11
I44
sg12
I32
sbsg13
g14
sg15
g16
sba(itasks.task
Task
p141
(dp142
g5
F1494071679.473387
sg6
F1494071779.473387
sg7
(imaps.location
Location
p143
(dp144
g10
I45
sg11
I45
sg12
I33
sbsg13
g14
sg15
g16
sba(itasks.task
Task
p145
(dp146
g5
F1494071679.47339
sg6
F1494071779.47339
sg7
(imaps.location
Location
p147
(dp148
g10
I46
sg11
I46
sg12
I34
sbsg13
g14
sg15
g16
sba(itasks.task
Task
p149
(dp150
g5
F1494071679.473394
sg6
F1494071779.473394
sg7
(imaps.location
Location
p151
(dp152
g10
I47
sg11
I47
sg12
I35
sbsg13
g14
sg15
g16
sba(itasks.task
Task
p153
(dp154
g5
F1494071679.473397
sg6
F1494071779.473398
sg7
(imaps.location
Location
p155
(dp156
g10
I48
sg11
I48
sg12
I36
sbsg13
g14
sg15
g16
sba(itasks.task
Task
p157
(dp158
g5
F1494071679.473401
sg6
F1494071779.473401
sg7
(imaps.location
Location
p159
(dp160
g10
I49
sg11
I49
sg12
I37
sbsg13
g14
sg15
g16
sba(itasks.task
Task
p161
(dp162
g5
F1494071679.473404
sg6
F1494071779.473404
sg7
(imaps.location
Location
p163
(dp164
g10
I50
sg11
I50
sg12
I38
sbsg13
g14
sg15
g16
sba(itasks.task
Task
p165
(dp166
g5
F1494071679.473407
sg6
F1494071779.473407
sg7
(imaps.location
Location
p167
(dp168
g10
I51
sg11
I51
sg12
I39
sbsg13
g14
sg15
g16
sba(itasks.task
Task
p169
(dp170
g5
F1494071679.473409
sg6
F1494071779.473409
sg7
(imaps.location
Location
p171
(dp172
g10
I52
sg11
I52
sg12
I40
sbsg13
g14
sg15
g16
sba(itasks.task
Task
p173
(dp174
g5
F1494071679.473412
sg6
F1494071779.473412
sg7
(imaps.location
Location
p175
(dp176
g10
I53
sg11
I53
sg12
I41
sbsg13
g14
sg15
g16
sba(itasks.task
Task
p177
(dp178
g5
F1494071679.473417
sg6
F1494071779.473417
sg7
(imaps.location
Location
p179
(dp180
g10
I54
sg11
I54
sg12
I42
sbsg13
g14
sg15
g16
sba(itasks.task
Task
p181
(dp182
g5
F1494071679.473419
sg6
F1494071779.47342
sg7
(imaps.location
Location
p183
(dp184
g10
I55
sg11
I55
sg12
I43
sbsg13
g14
sg15
g16
sba(itasks.task
Task
p185
(dp186
g5
F1494071679.473422
sg6
F1494071779.473422
sg7
(imaps.location
Location
p187
(dp188
g10
I56
sg11
I56
sg12
I44
sbsg13
g14
sg15
g16
sba(itasks.task
Task
p189
(dp190
g5
F1494071679.473425
sg6
F1494071779.473425
sg7
(imaps.location
Location
p191
(dp192
g10
I57
sg11
I57
sg12
I45
sbsg13
g14
sg15
g16
sba(itasks.task
Task
p193
(dp194
g5
F1494071679.473427
sg6
F1494071779.473428
sg7
(imaps.location
Location
p195
(dp196
g10
I58
sg11
I58
sg12
I46
sbsg13
g14
sg15
g16
sba(itasks.task
Task
p197
(dp198
g5
F1494071679.47343
sg6
F1494071779.47343
sg7
(imaps.location
Location
p199
(dp200
g10
I59
sg11
I59
sg12
I47
sbsg13
g14
sg15
g16
sba(itasks.task
Task
p201
(dp202
g5
F1494071679.473433
sg6
F1494071779.473434
sg7
(imaps.location
Location
p203
(dp204
g10
I60
sg11
I60
sg12
I48
sbsg13
g14
sg15
g16
sba(itasks.task
Task
p205
(dp206
g5
F1494071679.473438
sg6
F1494071779.473438
sg7
(imaps.location
Location
p207
(dp208
g10
I61
sg11
I61
sg12
I49
sbsg13
g14
sg15
g16
sba(itasks.task
Task
p209
(dp210
g5
F1494071679.473442
sg6
F1494071779.473443
sg7
(imaps.location
Location
p211
(dp212
g10
I62
sg11
I62
sg12
I50
sbsg13
g14
sg15
g16
sba(itasks.task
Task
p213
(dp214
g5
F1494071679.473445
sg6
F1494071779.473446
sg7
(imaps.location
Location
p215
(dp216
g10
I63
sg11
I63
sg12
I51
sbsg13
g14
sg15
g16
sba(itasks.task
Task
p217
(dp218
g5
F1494071679.473448
sg6
F1494071779.473448
sg7
(imaps.location
Location
p219
(dp220
g10
I64
sg11
I64
sg12
I52
sbsg13
g14
sg15
g16
sba(itasks.task
Task
p221
(dp222
g5
F1494071679.473451
sg6
F1494071779.473451
sg7
(imaps.location
Location
p223
(dp224
g10
I65
sg11
I65
sg12
I53
sbsg13
g14
sg15
g16
sba(itasks.task
Task
p225
(dp226
g5
F1494071679.473454
sg6
F1494071779.473454
sg7
(imaps.location
Location
p227
(dp228
g10
I66
sg11
I66
sg12
I54
sbsg13
g14
sg15
g16
sba(itasks.task
Task
p229
(dp230
g5
F1494071679.473456
sg6
F1494071779.473457
sg7
(imaps.location
Location
p231
(dp232
g10
I67
sg11
I67
sg12
I55
sbsg13
g14
sg15
g16
sba(itasks.task
Task
p233
(dp234
g5
F1494071679.473461
sg6
F1494071779.473461
sg7
(imaps.location
Location
p235
(dp236
g10
I68
sg11
I68
sg12
I56
sbsg13
g14
sg15
g16
sba(itasks.task
Task
p237
(dp238
g5
F1494071679.473464
sg6
F1494071779.473464
sg7
(imaps.location
Location
p239
(dp240
g10
I69
sg11
I69
sg12
I57
sbsg13
g14
sg15
g16
sba(itasks.task
Task
p241
(dp242
g5
F1494071679.473467
sg6
F1494071779.473467
sg7
(imaps.location
Location
p243
(dp244
g10
I70
sg11
I70
sg12
I58
sbsg13
g14
sg15
g16
sba(itasks.task
Task
p245
(dp246
g5
F1494071679.473469
sg6
F1494071779.473469
sg7
(imaps.location
Location
p247
(dp248
g10
I71
sg11
I71
sg12
I59
sbsg13
g14
sg15
g16
sba(itasks.task
Task
p249
(dp250
g5
F1494071679.473473
sg6
F1494071779.473473
sg7
(imaps.location
Location
p251
(dp252
g10
I72
sg11
I72
sg12
I60
sbsg13
g14
sg15
g16
sba(itasks.task
Task
p253
(dp254
g5
F1494071679.473477
sg6
F1494071779.473477
sg7
(imaps.location
Location
p255
(dp256
g10
I73
sg11
I73
sg12
I61
sbsg13
g14
sg15
g16
sba(itasks.task
Task
p257
(dp258
g5
F1494071679.473479
sg6
F1494071779.473479
sg7
(imaps.location
Location
p259
(dp260
g10
I74
sg11
I74
sg12
I62
sbsg13
g14
sg15
g16
sba(itasks.task
Task
p261
(dp262
g5
F1494071679.473483
sg6
F1494071779.473484
sg7
(imaps.location
Location
p263
(dp264
g10
I75
sg11
I75
sg12
I63
sbsg13
g14
sg15
g16
sba(itasks.task
Task
p265
(dp266
g5
F1494071679.473486
sg6
F1494071779.473486
sg7
(imaps.location
Location
p267
(dp268
g10
I76
sg11
I76
sg12
I64
sbsg13
g14
sg15
g16
sba(itasks.task
Task
p269
(dp270
g5
F1494071679.473489
sg6
F1494071779.473489
sg7
(imaps.location
Location
p271
(dp272
g10
I77
sg11
I77
sg12
I65
sbsg13
g14
sg15
g16
sba(itasks.task
Task
p273
(dp274
g5
F1494071679.473492
sg6
F1494071779.473492
sg7
(imaps.location
Location
p275
(dp276
g10
I78
sg11
I78
sg12
I66
sbsg13
g14
sg15
g16
sba(itasks.task
Task
p277
(dp278
g5
F1494071679.473495
sg6
F1494071779.473495
sg7
(imaps.location
Location
p279
(dp280
g10
I79
sg11
I79
sg12
I67
sbsg13
g14
sg15
g16
sba(itasks.task
Task
p281
(dp282
g5
F1494071679.473497
sg6
F1494071779.473497
sg7
(imaps.location
Location
p283
(dp284
g10
I80
sg11
I80
sg12
I68
sbsg13
g14
sg15
g16
sba(itasks.task
Task
p285
(dp286
g5
F1494071679.4735
sg6
F1494071779.4735
sg7
(imaps.location
Location
p287
(dp288
g10
I81
sg11
I81
sg12
I69
sbsg13
g14
sg15
g16
sba(itasks.task
Task
p289
(dp290
g5
F1494071679.473504
sg6
F1494071779.473504
sg7
(imaps.location
Location
p291
(dp292
g10
I82
sg11
I82
sg12
I70
sbsg13
g14
sg15
g16
sba(itasks.task
Task
p293
(dp294
g5
F1494071679.473507
sg6
F1494071779.473507
sg7
(imaps.location
Location
p295
(dp296
g10
I83
sg11
I83
sg12
I71
sbsg13
g14
sg15
g16
sba(itasks.task
Task
p297
(dp298
g5
F1494071679.47351
sg6
F1494071779.47351
sg7
(imaps.location
Location
p299
(dp300
g10
I84
sg11
I84
sg12
I72
sbsg13
g14
sg15
g16
sba(itasks.task
Task
p301
(dp302
g5
F1494071679.473512
sg6
F1494071779.473512
sg7
(imaps.location
Location
p303
(dp304
g10
I85
sg11
I85
sg12
I73
sbsg13
g14
sg15
g16
sba(itasks.task
Task
p305
(dp306
g5
F1494071679.473634
sg6
F1494071779.473634
sg7
(imaps.location
Location
p307
(dp308
g10
I86
sg11
I86
sg12
I74
sbsg13
g14
sg15
g16
sba(itasks.task
Task
p309
(dp310
g5
F1494071679.473637
sg6
F1494071779.473637
sg7
(imaps.location
Location
p311
(dp312
g10
I87
sg11
I87
sg12
I75
sbsg13
g14
sg15
g16
sba(itasks.task
Task
p313
(dp314
g5
F1494071679.473639
sg6
F1494071779.473639
sg7
(imaps.location
Location
p315
(dp316
g10
I88
sg11
I88
sg12
I76
sbsg13
g14
sg15
g16
sba(itasks.task
Task
p317
(dp318
g5
F1494071679.473646
sg6
F1494071779.473646
sg7
(imaps.location
Location
p319
(dp320
g10
I89
sg11
I89
sg12
I77
sbsg13
g14
sg15
g16
sba(itasks.task
Task
p321
(dp322
g5
F1494071679.47365
sg6
F1494071779.47365
sg7
(imaps.location
Location
p323
(dp324
g10
I90
sg11
I90
sg12
I78
sbsg13
g14
sg15
g16
sba(itasks.task
Task
p325
(dp326
g5
F1494071679.473653
sg6
F1494071779.473653
sg7
(imaps.location
Location
p327
(dp328
g10
I91
sg11
I91
sg12
I79
sbsg13
g14
sg15
g16
sba(itasks.task
Task
p329
(dp330
g5
F1494071679.473655
sg6
F1494071779.473655
sg7
(imaps.location
Location
p331
(dp332
g10
I92
sg11
I92
sg12
I80
sbsg13
g14
sg15
g16
sba(itasks.task
Task
p333
(dp334
g5
F1494071679.473658
sg6
F1494071779.473658
sg7
(imaps.location
Location
p335
(dp336
g10
I93
sg11
I93
sg12
I81
sbsg13
g14
sg15
g16
sba(itasks.task
Task
p337
(dp338
g5
F1494071679.473661
sg6
F1494071779.473661
sg7
(imaps.location
Location
p339
(dp340
g10
I94
sg11
I94
sg12
I82
sbsg13
g14
sg15
g16
sba(itasks.task
Task
p341
(dp342
g5
F1494071679.473663
sg6
F1494071779.473664
sg7
(imaps.location
Location
p343
(dp344
g10
I95
sg11
I95
sg12
I83
sbsg13
g14
sg15
g16
sba(itasks.task
Task
p345
(dp346
g5
F1494071679.473667
sg6
F1494071779.473668
sg7
(imaps.location
Location
p347
(dp348
g10
I96
sg11
I96
sg12
I84
sbsg13
g14
sg15
g16
sba(itasks.task
Task
p349
(dp350
g5
F1494071679.47367
sg6
F1494071779.47367
sg7
(imaps.location
Location
p351
(dp352
g10
I97
sg11
I97
sg12
I85
sbsg13
g14
sg15
g16
sba(itasks.task
Task
p353
(dp354
g5
F1494071679.473672
sg6
F1494071779.473672
sg7
(imaps.location
Location
p355
(dp356
g10
I98
sg11
I98
sg12
I86
sbsg13
g14
sg15
g16
sba(itasks.task
Task
p357
(dp358
g5
F1494071679.473675
sg6
F1494071779.473675
sg7
(imaps.location
Location
p359
(dp360
g10
I99
sg11
I99
sg12
I87
sbsg13
g14
sg15
g16
sba(itasks.task
Task
p361
(dp362
g5
F1494071679.473677
sg6
F1494071779.473677
sg7
(imaps.location
Location
p363
(dp364
g10
I100
sg11
I100
sg12
I88
sbsg13
g14
sg15
g16
sba(itasks.task
Task
p365
(dp366
g5
F1494071679.473679
sg6
F1494071779.47368
sg7
(imaps.location
Location
p367
(dp368
g10
I101
sg11
I101
sg12
I89
sbsg13
g14
sg15
g16
sba(itasks.task
Task
p369
(dp370
g5
F1494071679.473682
sg6
F1494071779.473683
sg7
(imaps.location
Location
p371
(dp372
g10
I102
sg11
I102
sg12
I90
sbsg13
g14
sg15
g16
sba(itasks.task
Task
p373
(dp374
g5
F1494071679.473688
sg6
F1494071779.473688
sg7
(imaps.location
Location
p375
(dp376
g10
I103
sg11
I103
sg12
I91
sbsg13
g14
sg15
g16
sba(itasks.task
Task
p377
(dp378
g5
F1494071679.473691
sg6
F1494071779.473691
sg7
(imaps.location
Location
p379
(dp380
g10
I104
sg11
I104
sg12
I92
sbsg13
g14
sg15
g16
sba(itasks.task
Task
p381
(dp382
g5
F1494071679.473693
sg6
F1494071779.473693
sg7
(imaps.location
Location
p383
(dp384
g10
I105
sg11
I105
sg12
I93
sbsg13
g14
sg15
g16
sba(itasks.task
Task
p385
(dp386
g5
F1494071679.473696
sg6
F1494071779.473696
sg7
(imaps.location
Location
p387
(dp388
g10
I106
sg11
I106
sg12
I94
sbsg13
g14
sg15
g16
sba(itasks.task
Task
p389
(dp390
g5
F1494071679.473698
sg6
F1494071779.473698
sg7
(imaps.location
Location
p391
(dp392
g10
I107
sg11
I107
sg12
I95
sbsg13
g14
sg15
g16
sba(itasks.task
Task
p393
(dp394
g5
F1494071679.473701
sg6
F1494071779.473701
sg7
(imaps.location
Location
p395
(dp396
g10
I108
sg11
I108
sg12
I96
sbsg13
g14
sg15
g16
sba(itasks.task
Task
p397
(dp398
g5
F1494071679.473703
sg6
F1494071779.473703
sg7
(imaps.location
Location
p399
(dp400
g10
I109
sg11
I109
sg12
I97
sbsg13
g14
sg15
g16
sba(itasks.task
Task
p401
(dp402
g5
F1494071679.473707
sg6
F1494071779.473708
sg7
(imaps.location
Location
p403
(dp404
g10
I110
sg11
I110
sg12
I98
sbsg13
g14
sg15
g16
sba(itasks.task
Task
p405
(dp406
g5
F1494071679.473711
sg6
F1494071779.473711
sg7
(imaps.location
Location
p407
(dp408
g10
I111
sg11
I111
sg12
I99
sbsg13
g14
sg15
g16
sbasS'missions'
p409
(lp410
sS'machines'
p411
(lp412
(imachines.machine
Machine
p413
(dp414
S'weight'
p415
I1
sS'fuelCapacity'
p416
I1
sS'isAvailable'
p417
I01
sg7
(imaps.location
Location
p418
(dp419
g10
I1
sg11
I1
sg12
I1
sbsS'model'
p420
S'123'
p421
sS'fulConsumption'
p422
I1
sS'id'
p423
I1
sS'speed'
p424
I1
sba(imachines.machine
Machine
p425
(dp426
g415
I2
sg416
I2
sg417
I01
sg7
(imaps.location
Location
p427
(dp428
g10
I2
sg11
I2
sg12
I2
sbsg420
g421
sg422
I2
sg423
I2
sg424
I2
sba(imachines.machine
Machine
p429
(dp430
g415
I3
sg416
I3
sg417
I01
sg7
(imaps.location
Location
p431
(dp432
g10
I3
sg11
I3
sg12
I3
sbsg420
g421
sg422
I3
sg423
I3
sg424
I3
sba(imachines.machine
Machine
p433
(dp434
g415
I4
sg416
I4
sg417
I01
sg7
(imaps.location
Location
p435
(dp436
g10
I4
sg11
I4
sg12
I4
sbsg420
g421
sg422
I4
sg423
I4
sg424
I4
sba(imachines.machine
Machine
p437
(dp438
g415
I5
sg416
I5
sg417
I01
sg7
(imaps.location
Location
p439
(dp440
g10
I5
sg11
I5
sg12
I5
sbsg420
g421
sg422
I5
sg423
I5
sg424
I5
sba(imachines.machine
Machine
p441
(dp442
g415
I6
sg416
I6
sg417
I01
sg7
(imaps.location
Location
p443
(dp444
g10
I6
sg11
I6
sg12
I6
sbsg420
g421
sg422
I6
sg423
I6
sg424
I6
sba(imachines.machine
Machine
p445
(dp446
g415
I7
sg416
I7
sg417
I01
sg7
(imaps.location
Location
p447
(dp448
g10
I7
sg11
I7
sg12
I7
sbsg420
g421
sg422
I7
sg423
I7
sg424
I7
sba(imachines.machine
Machine
p449
(dp450
g415
I8
sg416
I8
sg417
I01
sg7
(imaps.location
Location
p451
(dp452
g10
I8
sg11
I8
sg12
I8
sbsg420
g421
sg422
I8
sg423
I8
sg424
I8
sba(imachines.machine
Machine
p453
(dp454
g415
I9
sg416
I9
sg417
I01
sg7
(imaps.location
Location
p455
(dp456
g10
I9
sg11
I9
sg12
I9
sbsg420
g421
sg422
I9
sg423
I9
sg424
I9
sba(imachines.machine
Machine
p457
(dp458
g415
I10
sg416
I10
sg417
I01
sg7
(imaps.location
Location
p459
(dp460
g10
I10
sg11
I10
sg12
I10
sbsg420
g421
sg422
I10
sg423
I10
sg424
I10
sba(imachines.machine
Machine
p461
(dp462
g415
I11
sg416
I11
sg417
I01
sg7
(imaps.location
Location
p463
(dp464
g10
I11
sg11
I11
sg12
I11
sbsg420
g421
sg422
I11
sg423
I11
sg424
I11
sba(imachines.machine
Machine
p465
(dp466
g415
I12
sg416
I12
sg417
I01
sg7
(imaps.location
Location
p467
(dp468
g10
I12
sg11
I12
sg12
I12
sbsg420
g421
sg422
I12
sg423
I12
sg424
I12
sba(imachines.machine
Machine
p469
(dp470
g415
I13
sg416
I13
sg417
I01
sg7
(imaps.location
Location
p471
(dp472
g10
I13
sg11
I13
sg12
I13
sbsg420
g421
sg422
I13
sg423
I13
sg424
I13
sba(imachines.machine
Machine
p473
(dp474
g415
I14
sg416
I14
sg417
I01
sg7
(imaps.location
Location
p475
(dp476
g10
I14
sg11
I14
sg12
I14
sbsg420
g421
sg422
I14
sg423
I14
sg424
I14
sba(imachines.machine
Machine
p477
(dp478
g415
I15
sg416
I15
sg417
I01
sg7
(imaps.location
Location
p479
(dp480
g10
I15
sg11
I15
sg12
I15
sbsg420
g421
sg422
I15
sg423
I15
sg424
I15
sba(imachines.machine
Machine
p481
(dp482
g415
I16
sg416
I16
sg417
I01
sg7
(imaps.location
Location
p483
(dp484
g10
I16
sg11
I16
sg12
I16
sbsg420
g421
sg422
I16
sg423
I16
sg424
I16
sba(imachines.machine
Machine
p485
(dp486
g415
I17
sg416
I17
sg417
I01
sg7
(imaps.location
Location
p487
(dp488
g10
I17
sg11
I17
sg12
I17
sbsg420
g421
sg422
I17
sg423
I17
sg424
I17
sba(imachines.machine
Machine
p489
(dp490
g415
I18
sg416
I18
sg417
I01
sg7
(imaps.location
Location
p491
(dp492
g10
I18
sg11
I18
sg12
I18
sbsg420
g421
sg422
I18
sg423
I18
sg424
I18
sba(imachines.machine
Machine
p493
(dp494
g415
I19
sg416
I19
sg417
I01
sg7
(imaps.location
Location
p495
(dp496
g10
I19
sg11
I19
sg12
I19
sbsg420
g421
sg422
I19
sg423
I19
sg424
I19
sba(imachines.machine
Machine
p497
(dp498
g415
I20
sg416
I20
sg417
I01
sg7
(imaps.location
Location
p499
(dp500
g10
I20
sg11
I20
sg12
I20
sbsg420
g421
sg422
I20
sg423
I20
sg424
I20
sba(imachines.machine
Machine
p501
(dp502
g415
I21
sg416
I21
sg417
I01
sg7
(imaps.location
Location
p503
(dp504
g10
I21
sg11
I21
sg12
I21
sbsg420
g421
sg422
I21
sg423
I21
sg424
I21
sba(imachines.machine
Machine
p505
(dp506
g415
I22
sg416
I22
sg417
I01
sg7
(imaps.location
Location
p507
(dp508
g10
I22
sg11
I22
sg12
I22
sbsg420
g421
sg422
I22
sg423
I22
sg424
I22
sba(imachines.machine
Machine
p509
(dp510
g415
I23
sg416
I23
sg417
I01
sg7
(imaps.location
Location
p511
(dp512
g10
I23
sg11
I23
sg12
I23
sbsg420
g421
sg422
I23
sg423
I23
sg424
I23
sba(imachines.machine
Machine
p513
(dp514
g415
I24
sg416
I24
sg417
I01
sg7
(imaps.location
Location
p515
(dp516
g10
I24
sg11
I24
sg12
I24
sbsg420
g421
sg422
I24
sg423
I24
sg424
I24
sba(imachines.machine
Machine
p517
(dp518
g415
I25
sg416
I25
sg417
I01
sg7
(imaps.location
Location
p519
(dp520
g10
I25
sg11
I25
sg12
I25
sbsg420
g421
sg422
I25
sg423
I25
sg424
I25
sba(imachines.machine
Machine
p521
(dp522
g415
I26
sg416
I26
sg417
I01
sg7
(imaps.location
Location
p523
(dp524
g10
I26
sg11
I26
sg12
I26
sbsg420
g421
sg422
I26
sg423
I26
sg424
I26
sba(imachines.machine
Machine
p525
(dp526
g415
I27
sg416
I27
sg417
I01
sg7
(imaps.location
Location
p527
(dp528
g10
I27
sg11
I27
sg12
I27
sbsg420
g421
sg422
I27
sg423
I27
sg424
I27
sba(imachines.machine
Machine
p529
(dp530
g415
I28
sg416
I28
sg417
I01
sg7
(imaps.location
Location
p531
(dp532
g10
I28
sg11
I28
sg12
I28
sbsg420
g421
sg422
I28
sg423
I28
sg424
I28
sba(imachines.machine
Machine
p533
(dp534
g415
I29
sg416
I29
sg417
I01
sg7
(imaps.location
Location
p535
(dp536
g10
I29
sg11
I29
sg12
I29
sbsg420
g421
sg422
I29
sg423
I29
sg424
I29
sba(imachines.machine
Machine
p537
(dp538
g415
I30
sg416
I30
sg417
I01
sg7
(imaps.location
Location
p539
(dp540
g10
I30
sg11
I30
sg12
I30
sbsg420
g421
sg422
I30
sg423
I30
sg424
I30
sba(imachines.machine
Machine
p541
(dp542
g415
I31
sg416
I31
sg417
I01
sg7
(imaps.location
Location
p543
(dp544
g10
I31
sg11
I31
sg12
I31
sbsg420
g421
sg422
I31
sg423
I31
sg424
I31
sba(imachines.machine
Machine
p545
(dp546
g415
I32
sg416
I32
sg417
I01
sg7
(imaps.location
Location
p547
(dp548
g10
I32
sg11
I32
sg12
I32
sbsg420
g421
sg422
I32
sg423
I32
sg424
I32
sba(imachines.machine
Machine
p549
(dp550
g415
I33
sg416
I33
sg417
I01
sg7
(imaps.location
Location
p551
(dp552
g10
I33
sg11
I33
sg12
I33
sbsg420
g421
sg422
I33
sg423
I33
sg424
I33
sba(imachines.machine
Machine
p553
(dp554
g415
I34
sg416
I34
sg417
I01
sg7
(imaps.location
Location
p555
(dp556
g10
I34
sg11
I34
sg12
I34
sbsg420
g421
sg422
I34
sg423
I34
sg424
I34
sba(imachines.machine
Machine
p557
(dp558
g415
I35
sg416
I35
sg417
I01
sg7
(imaps.location
Location
p559
(dp560
g10
I35
sg11
I35
sg12
I35
sbsg420
g421
sg422
I35
sg423
I35
sg424
I35
sba(imachines.machine
Machine
p561
(dp562
g415
I36
sg416
I36
sg417
I01
sg7
(imaps.location
Location
p563
(dp564
g10
I36
sg11
I36
sg12
I36
sbsg420
g421
sg422
I36
sg423
I36
sg424
I36
sba(imachines.machine
Machine
p565
(dp566
g415
I37
sg416
I37
sg417
I01
sg7
(imaps.location
Location
p567
(dp568
g10
I37
sg11
I37
sg12
I37
sbsg420
g421
sg422
I37
sg423
I37
sg424
I37
sba(imachines.machine
Machine
p569
(dp570
g415
I38
sg416
I38
sg417
I01
sg7
(imaps.location
Location
p571
(dp572
g10
I38
sg11
I38
sg12
I38
sbsg420
g421
sg422
I38
sg423
I38
sg424
I38
sba(imachines.machine
Machine
p573
(dp574
g415
I39
sg416
I39
sg417
I01
sg7
(imaps.location
Location
p575
(dp576
g10
I39
sg11
I39
sg12
I39
sbsg420
g421
sg422
I39
sg423
I39
sg424
I39
sba(imachines.machine
Machine
p577
(dp578
g415
I40
sg416
I40
sg417
I01
sg7
(imaps.location
Location
p579
(dp580
g10
I40
sg11
I40
sg12
I40
sbsg420
g421
sg422
I40
sg423
I40
sg424
I40
sba(imachines.machine
Machine
p581
(dp582
g415
I41
sg416
I41
sg417
I01
sg7
(imaps.location
Location
p583
(dp584
g10
I41
sg11
I41
sg12
I41
sbsg420
g421
sg422
I41
sg423
I41
sg424
I41
sba(imachines.machine
Machine
p585
(dp586
g415
I42
sg416
I42
sg417
I01
sg7
(imaps.location
Location
p587
(dp588
g10
I42
sg11
I42
sg12
I42
sbsg420
g421
sg422
I42
sg423
I42
sg424
I42
sba(imachines.machine
Machine
p589
(dp590
g415
I43
sg416
I43
sg417
I01
sg7
(imaps.location
Location
p591
(dp592
g10
I43
sg11
I43
sg12
I43
sbsg420
g421
sg422
I43
sg423
I43
sg424
I43
sba(imachines.machine
Machine
p593
(dp594
g415
I44
sg416
I44
sg417
I01
sg7
(imaps.location
Location
p595
(dp596
g10
I44
sg11
I44
sg12
I44
sbsg420
g421
sg422
I44
sg423
I44
sg424
I44
sba(imachines.machine
Machine
p597
(dp598
g415
I45
sg416
I45
sg417
I01
sg7
(imaps.location
Location
p599
(dp600
g10
I45
sg11
I45
sg12
I45
sbsg420
g421
sg422
I45
sg423
I45
sg424
I45
sba(imachines.machine
Machine
p601
(dp602
g415
I46
sg416
I46
sg417
I01
sg7
(imaps.location
Location
p603
(dp604
g10
I46
sg11
I46
sg12
I46
sbsg420
g421
sg422
I46
sg423
I46
sg424
I46
sba(imachines.machine
Machine
p605
(dp606
g415
I47
sg416
I47
sg417
I01
sg7
(imaps.location
Location
p607
(dp608
g10
I47
sg11
I47
sg12
I47
sbsg420
g421
sg422
I47
sg423
I47
sg424
I47
sba(imachines.machine
Machine
p609
(dp610
g415
I48
sg416
I48
sg417
I01
sg7
(imaps.location
Location
p611
(dp612
g10
I48
sg11
I48
sg12
I48
sbsg420
g421
sg422
I48
sg423
I48
sg424
I48
sba(imachines.machine
Machine
p613
(dp614
g415
I49
sg416
I49
sg417
I01
sg7
(imaps.location
Location
p615
(dp616
g10
I49
sg11
I49
sg12
I49
sbsg420
g421
sg422
I49
sg423
I49
sg424
I49
sba(imachines.machine
Machine
p617
(dp618
g415
I50
sg416
I50
sg417
I01
sg7
(imaps.location
Location
p619
(dp620
g10
I50
sg11
I50
sg12
I50
sbsg420
g421
sg422
I50
sg423
I50
sg424
I50
sba(imachines.machine
Machine
p621
(dp622
g415
I51
sg416
I51
sg417
I01
sg7
(imaps.location
Location
p623
(dp624
g10
I51
sg11
I51
sg12
I51
sbsg420
g421
sg422
I51
sg423
I51
sg424
I51
sba(imachines.machine
Machine
p625
(dp626
g415
I52
sg416
I52
sg417
I01
sg7
(imaps.location
Location
p627
(dp628
g10
I52
sg11
I52
sg12
I52
sbsg420
g421
sg422
I52
sg423
I52
sg424
I52
sba(imachines.machine
Machine
p629
(dp630
g415
I53
sg416
I53
sg417
I01
sg7
(imaps.location
Location
p631
(dp632
g10
I53
sg11
I53
sg12
I53
sbsg420
g421
sg422
I53
sg423
I53
sg424
I53
sba(imachines.machine
Machine
p633
(dp634
g415
I54
sg416
I54
sg417
I01
sg7
(imaps.location
Location
p635
(dp636
g10
I54
sg11
I54
sg12
I54
sbsg420
g421
sg422
I54
sg423
I54
sg424
I54
sba(imachines.machine
Machine
p637
(dp638
g415
I55
sg416
I55
sg417
I01
sg7
(imaps.location
Location
p639
(dp640
g10
I55
sg11
I55
sg12
I55
sbsg420
g421
sg422
I55
sg423
I55
sg424
I55
sba(imachines.machine
Machine
p641
(dp642
g415
I56
sg416
I56
sg417
I01
sg7
(imaps.location
Location
p643
(dp644
g10
I56
sg11
I56
sg12
I56
sbsg420
g421
sg422
I56
sg423
I56
sg424
I56
sba(imachines.machine
Machine
p645
(dp646
g415
I57
sg416
I57
sg417
I01
sg7
(imaps.location
Location
p647
(dp648
g10
I57
sg11
I57
sg12
I57
sbsg420
g421
sg422
I57
sg423
I57
sg424
I57
sba(imachines.machine
Machine
p649
(dp650
g415
I58
sg416
I58
sg417
I01
sg7
(imaps.location
Location
p651
(dp652
g10
I58
sg11
I58
sg12
I58
sbsg420
g421
sg422
I58
sg423
I58
sg424
I58
sba(imachines.machine
Machine
p653
(dp654
g415
I59
sg416
I59
sg417
I01
sg7
(imaps.location
Location
p655
(dp656
g10
I59
sg11
I59
sg12
I59
sbsg420
g421
sg422
I59
sg423
I59
sg424
I59
sba(imachines.machine
Machine
p657
(dp658
g415
I60
sg416
I60
sg417
I01
sg7
(imaps.location
Location
p659
(dp660
g10
I60
sg11
I60
sg12
I60
sbsg420
g421
sg422
I60
sg423
I60
sg424
I60
sba(imachines.machine
Machine
p661
(dp662
g415
I61
sg416
I61
sg417
I01
sg7
(imaps.location
Location
p663
(dp664
g10
I61
sg11
I61
sg12
I61
sbsg420
g421
sg422
I61
sg423
I61
sg424
I61
sba(imachines.machine
Machine
p665
(dp666
g415
I62
sg416
I62
sg417
I01
sg7
(imaps.location
Location
p667
(dp668
g10
I62
sg11
I62
sg12
I62
sbsg420
g421
sg422
I62
sg423
I62
sg424
I62
sba(imachines.machine
Machine
p669
(dp670
g415
I63
sg416
I63
sg417
I01
sg7
(imaps.location
Location
p671
(dp672
g10
I63
sg11
I63
sg12
I63
sbsg420
g421
sg422
I63
sg423
I63
sg424
I63
sba(imachines.machine
Machine
p673
(dp674
g415
I64
sg416
I64
sg417
I01
sg7
(imaps.location
Location
p675
(dp676
g10
I64
sg11
I64
sg12
I64
sbsg420
g421
sg422
I64
sg423
I64
sg424
I64
sba(imachines.machine
Machine
p677
(dp678
g415
I65
sg416
I65
sg417
I01
sg7
(imaps.location
Location
p679
(dp680
g10
I65
sg11
I65
sg12
I65
sbsg420
g421
sg422
I65
sg423
I65
sg424
I65
sba(imachines.machine
Machine
p681
(dp682
g415
I66
sg416
I66
sg417
I01
sg7
(imaps.location
Location
p683
(dp684
g10
I66
sg11
I66
sg12
I66
sbsg420
g421
sg422
I66
sg423
I66
sg424
I66
sba(imachines.machine
Machine
p685
(dp686
g415
I67
sg416
I67
sg417
I01
sg7
(imaps.location
Location
p687
(dp688
g10
I67
sg11
I67
sg12
I67
sbsg420
g421
sg422
I67
sg423
I67
sg424
I67
sba(imachines.machine
Machine
p689
(dp690
g415
I68
sg416
I68
sg417
I01
sg7
(imaps.location
Location
p691
(dp692
g10
I68
sg11
I68
sg12
I68
sbsg420
g421
sg422
I68
sg423
I68
sg424
I68
sba(imachines.machine
Machine
p693
(dp694
g415
I69
sg416
I69
sg417
I01
sg7
(imaps.location
Location
p695
(dp696
g10
I69
sg11
I69
sg12
I69
sbsg420
g421
sg422
I69
sg423
I69
sg424
I69
sba(imachines.machine
Machine
p697
(dp698
g415
I70
sg416
I70
sg417
I01
sg7
(imaps.location
Location
p699
(dp700
g10
I70
sg11
I70
sg12
I70
sbsg420
g421
sg422
I70
sg423
I70
sg424
I70
sba(imachines.machine
Machine
p701
(dp702
g415
I71
sg416
I71
sg417
I01
sg7
(imaps.location
Location
p703
(dp704
g10
I71
sg11
I71
sg12
I71
sbsg420
g421
sg422
I71
sg423
I71
sg424
I71
sba(imachines.machine
Machine
p705
(dp706
g415
I72
sg416
I72
sg417
I01
sg7
(imaps.location
Location
p707
(dp708
g10
I72
sg11
I72
sg12
I72
sbsg420
g421
sg422
I72
sg423
I72
sg424
I72
sba(imachines.machine
Machine
p709
(dp710
g415
I73
sg416
I73
sg417
I01
sg7
(imaps.location
Location
p711
(dp712
g10
I73
sg11
I73
sg12
I73
sbsg420
g421
sg422
I73
sg423
I73
sg424
I73
sba(imachines.machine
Machine
p713
(dp714
g415
I74
sg416
I74
sg417
I01
sg7
(imaps.location
Location
p715
(dp716
g10
I74
sg11
I74
sg12
I74
sbsg420
g421
sg422
I74
sg423
I74
sg424
I74
sba(imachines.machine
Machine
p717
(dp718
g415
I75
sg416
I75
sg417
I01
sg7
(imaps.location
Location
p719
(dp720
g10
I75
sg11
I75
sg12
I75
sbsg420
g421
sg422
I75
sg423
I75
sg424
I75
sba(imachines.machine
Machine
p721
(dp722
g415
I76
sg416
I76
sg417
I01
sg7
(imaps.location
Location
p723
(dp724
g10
I76
sg11
I76
sg12
I76
sbsg420
g421
sg422
I76
sg423
I76
sg424
I76
sba(imachines.machine
Machine
p725
(dp726
g415
I77
sg416
I77
sg417
I01
sg7
(imaps.location
Location
p727
(dp728
g10
I77
sg11
I77
sg12
I77
sbsg420
g421
sg422
I77
sg423
I77
sg424
I77
sba(imachines.machine
Machine
p729
(dp730
g415
I78
sg416
I78
sg417
I01
sg7
(imaps.location
Location
p731
(dp732
g10
I78
sg11
I78
sg12
I78
sbsg420
g421
sg422
I78
sg423
I78
sg424
I78
sba(imachines.machine
Machine
p733
(dp734
g415
I79
sg416
I79
sg417
I01
sg7
(imaps.location
Location
p735
(dp736
g10
I79
sg11
I79
sg12
I79
sbsg420
g421
sg422
I79
sg423
I79
sg424
I79
sba(imachines.machine
Machine
p737
(dp738
g415
I80
sg416
I80
sg417
I01
sg7
(imaps.location
Location
p739
(dp740
g10
I80
sg11
I80
sg12
I80
sbsg420
g421
sg422
I80
sg423
I80
sg424
I80
sba(imachines.machine
Machine
p741
(dp742
g415
I81
sg416
I81
sg417
I01
sg7
(imaps.location
Location
p743
(dp744
g10
I81
sg11
I81
sg12
I81
sbsg420
g421
sg422
I81
sg423
I81
sg424
I81
sba(imachines.machine
Machine
p745
(dp746
g415
I82
sg416
I82
sg417
I01
sg7
(imaps.location
Location
p747
(dp748
g10
I82
sg11
I82
sg12
I82
sbsg420
g421
sg422
I82
sg423
I82
sg424
I82
sba(imachines.machine
Machine
p749
(dp750
g415
I83
sg416
I83
sg417
I01
sg7
(imaps.location
Location
p751
(dp752
g10
I83
sg11
I83
sg12
I83
sbsg420
g421
sg422
I83
sg423
I83
sg424
I83
sba(imachines.machine
Machine
p753
(dp754
g415
I84
sg416
I84
sg417
I01
sg7
(imaps.location
Location
p755
(dp756
g10
I84
sg11
I84
sg12
I84
sbsg420
g421
sg422
I84
sg423
I84
sg424
I84
sba(imachines.machine
Machine
p757
(dp758
g415
I85
sg416
I85
sg417
I01
sg7
(imaps.location
Location
p759
(dp760
g10
I85
sg11
I85
sg12
I85
sbsg420
g421
sg422
I85
sg423
I85
sg424
I85
sba(imachines.machine
Machine
p761
(dp762
g415
I86
sg416
I86
sg417
I01
sg7
(imaps.location
Location
p763
(dp764
g10
I86
sg11
I86
sg12
I86
sbsg420
g421
sg422
I86
sg423
I86
sg424
I86
sba(imachines.machine
Machine
p765
(dp766
g415
I87
sg416
I87
sg417
I01
sg7
(imaps.location
Location
p767
(dp768
g10
I87
sg11
I87
sg12
I87
sbsg420
g421
sg422
I87
sg423
I87
sg424
I87
sba(imachines.machine
Machine
p769
(dp770
g415
I88
sg416
I88
sg417
I01
sg7
(imaps.location
Location
p771
(dp772
g10
I88
sg11
I88
sg12
I88
sbsg420
g421
sg422
I88
sg423
I88
sg424
I88
sba(imachines.machine
Machine
p773
(dp774
g415
I89
sg416
I89
sg417
I01
sg7
(imaps.location
Location
p775
(dp776
g10
I89
sg11
I89
sg12
I89
sbsg420
g421
sg422
I89
sg423
I89
sg424
I89
sba(imachines.machine
Machine
p777
(dp778
g415
I90
sg416
I90
sg417
I01
sg7
(imaps.location
Location
p779
(dp780
g10
I90
sg11
I90
sg12
I90
sbsg420
g421
sg422
I90
sg423
I90
sg424
I90
sba(imachines.machine
Machine
p781
(dp782
g415
I91
sg416
I91
sg417
I01
sg7
(imaps.location
Location
p783
(dp784
g10
I91
sg11
I91
sg12
I91
sbsg420
g421
sg422
I91
sg423
I91
sg424
I91
sba(imachines.machine
Machine
p785
(dp786
g415
I92
sg416
I92
sg417
I01
sg7
(imaps.location
Location
p787
(dp788
g10
I92
sg11
I92
sg12
I92
sbsg420
g421
sg422
I92
sg423
I92
sg424
I92
sba(imachines.machine
Machine
p789
(dp790
g415
I93
sg416
I93
sg417
I01
sg7
(imaps.location
Location
p791
(dp792
g10
I93
sg11
I93
sg12
I93
sbsg420
g421
sg422
I93
sg423
I93
sg424
I93
sba(imachines.machine
Machine
p793
(dp794
g415
I94
sg416
I94
sg417
I01
sg7
(imaps.location
Location
p795
(dp796
g10
I94
sg11
I94
sg12
I94
sbsg420
g421
sg422
I94
sg423
I94
sg424
I94
sba(imachines.machine
Machine
p797
(dp798
g415
I95
sg416
I95
sg417
I01
sg7
(imaps.location
Location
p799
(dp800
g10
I95
sg11
I95
sg12
I95
sbsg420
g421
sg422
I95
sg423
I95
sg424
I95
sba(imachines.machine
Machine
p801
(dp802
g415
I96
sg416
I96
sg417
I01
sg7
(imaps.location
Location
p803
(dp804
g10
I96
sg11
I96
sg12
I96
sbsg420
g421
sg422
I96
sg423
I96
sg424
I96
sba(imachines.machine
Machine
p805
(dp806
g415
I97
sg416
I97
sg417
I01
sg7
(imaps.location
Location
p807
(dp808
g10
I97
sg11
I97
sg12
I97
sbsg420
g421
sg422
I97
sg423
I97
sg424
I97
sba(imachines.machine
Machine
p809
(dp810
g415
I98
sg416
I98
sg417
I01
sg7
(imaps.location
Location
p811
(dp812
g10
I98
sg11
I98
sg12
I98
sbsg420
g421
sg422
I98
sg423
I98
sg424
I98
sba(imachines.machine
Machine
p813
(dp814
g415
I99
sg416
I99
sg417
I01
sg7
(imaps.location
Location
p815
(dp816
g10
I99
sg11
I99
sg12
I99
sbsg420
g421
sg422
I99
sg423
I99
sg424
I99
sbas.