(dp0
S'tasks'
p1
(lp2
(itasks.task
Task
p3
(dp4
S'comments'
p5
S'new task '
p6
sS'endTime'
p7
F1494063106.601433
sS'location'
p8
(imaps.location
Location
p9
(dp10
S'lat'
p11
I13
sS'lng'
p12
I13
sS'nid'
p13
I1
sbsS'startTime'
p14
F1494063006.601433
sS'taskType'
p15
S'dig'
p16
sba(itasks.task
Task
p17
(dp18
g5
g6
sg7
F1494063106.601445
sg8
(imaps.location
Location
p19
(dp20
g11
I14
sg12
I14
sg13
I2
sbsg14
F1494063006.601445
sg15
g16
sba(itasks.task
Task
p21
(dp22
g5
g6
sg7
F1494063106.601448
sg8
(imaps.location
Location
p23
(dp24
g11
I15
sg12
I15
sg13
I3
sbsg14
F1494063006.601448
sg15
g16
sba(itasks.task
Task
p25
(dp26
g5
g6
sg7
F1494063106.60145
sg8
(imaps.location
Location
p27
(dp28
g11
I16
sg12
I16
sg13
I4
sbsg14
F1494063006.60145
sg15
g16
sba(itasks.task
Task
p29
(dp30
g5
g6
sg7
F1494063106.601453
sg8
(imaps.location
Location
p31
(dp32
g11
I17
sg12
I17
sg13
I5
sbsg14
F1494063006.601452
sg15
g16
sba(itasks.task
Task
p33
(dp34
g5
g6
sg7
F1494063106.601455
sg8
(imaps.location
Location
p35
(dp36
g11
I18
sg12
I18
sg13
I6
sbsg14
F1494063006.601455
sg15
g16
sba(itasks.task
Task
p37
(dp38
g5
g6
sg7
F1494063106.601457
sg8
(imaps.location
Location
p39
(dp40
g11
I19
sg12
I19
sg13
I7
sbsg14
F1494063006.601457
sg15
g16
sba(itasks.task
Task
p41
(dp42
g5
g6
sg7
F1494063106.60146
sg8
(imaps.location
Location
p43
(dp44
g11
I20
sg12
I20
sg13
I8
sbsg14
F1494063006.60146
sg15
g16
sba(itasks.task
Task
p45
(dp46
g5
g6
sg7
F1494063106.601463
sg8
(imaps.location
Location
p47
(dp48
g11
I21
sg12
I21
sg13
I9
sbsg14
F1494063006.601463
sg15
g16
sba(itasks.task
Task
p49
(dp50
g5
g6
sg7
F1494063106.601465
sg8
(imaps.location
Location
p51
(dp52
g11
I22
sg12
I22
sg13
I10
sbsg14
F1494063006.601465
sg15
g16
sba(itasks.task
Task
p53
(dp54
g5
g6
sg7
F1494063106.601468
sg8
(imaps.location
Location
p55
(dp56
g11
I23
sg12
I23
sg13
I11
sbsg14
F1494063006.601468
sg15
g16
sba(itasks.task
Task
p57
(dp58
g5
g6
sg7
F1494063106.60147
sg8
(imaps.location
Location
p59
(dp60
g11
I24
sg12
I24
sg13
I12
sbsg14
F1494063006.60147
sg15
g16
sba(itasks.task
Task
p61
(dp62
g5
g6
sg7
F1494063106.601472
sg8
(imaps.location
Location
p63
(dp64
g11
I25
sg12
I25
sg13
I13
sbsg14
F1494063006.601472
sg15
g16
sba(itasks.task
Task
p65
(dp66
g5
g6
sg7
F1494063106.601474
sg8
(imaps.location
Location
p67
(dp68
g11
I26
sg12
I26
sg13
I14
sbsg14
F1494063006.601474
sg15
g16
sba(itasks.task
Task
p69
(dp70
g5
g6
sg7
F1494063106.601478
sg8
(imaps.location
Location
p71
(dp72
g11
I27
sg12
I27
sg13
I15
sbsg14
F1494063006.601478
sg15
g16
sba(itasks.task
Task
p73
(dp74
g5
g6
sg7
F1494063106.60148
sg8
(imaps.location
Location
p75
(dp76
g11
I28
sg12
I28
sg13
I16
sbsg14
F1494063006.60148
sg15
g16
sba(itasks.task
Task
p77
(dp78
g5
g6
sg7
F1494063106.601482
sg8
(imaps.location
Location
p79
(dp80
g11
I29
sg12
I29
sg13
I17
sbsg14
F1494063006.601482
sg15
g16
sba(itasks.task
Task
p81
(dp82
g5
g6
sg7
F1494063106.601485
sg8
(imaps.location
Location
p83
(dp84
g11
I30
sg12
I30
sg13
I18
sbsg14
F1494063006.601485
sg15
g16
sba(itasks.task
Task
p85
(dp86
g5
g6
sg7
F1494063106.601488
sg8
(imaps.location
Location
p87
(dp88
g11
I31
sg12
I31
sg13
I19
sbsg14
F1494063006.601488
sg15
g16
sba(itasks.task
Task
p89
(dp90
g5
g6
sg7
F1494063106.601491
sg8
(imaps.location
Location
p91
(dp92
g11
I32
sg12
I32
sg13
I20
sbsg14
F1494063006.601491
sg15
g16
sba(itasks.task
Task
p93
(dp94
g5
g6
sg7
F1494063106.601493
sg8
(imaps.location
Location
p95
(dp96
g11
I33
sg12
I33
sg13
I21
sbsg14
F1494063006.601493
sg15
g16
sba(itasks.task
Task
p97
(dp98
g5
g6
sg7
F1494063106.601496
sg8
(imaps.location
Location
p99
(dp100
g11
I34
sg12
I34
sg13
I22
sbsg14
F1494063006.601496
sg15
g16
sba(itasks.task
Task
p101
(dp102
g5
g6
sg7
F1494063106.601499
sg8
(imaps.location
Location
p103
(dp104
g11
I35
sg12
I35
sg13
I23
sbsg14
F1494063006.601498
sg15
g16
sba(itasks.task
Task
p105
(dp106
g5
g6
sg7
F1494063106.601501
sg8
(imaps.location
Location
p107
(dp108
g11
I36
sg12
I36
sg13
I24
sbsg14
F1494063006.601501
sg15
g16
sba(itasks.task
Task
p109
(dp110
g5
g6
sg7
F1494063106.601503
sg8
(imaps.location
Location
p111
(dp112
g11
I37
sg12
I37
sg13
I25
sbsg14
F1494063006.601503
sg15
g16
sba(itasks.task
Task
p113
(dp114
g5
g6
sg7
F1494063106.601505
sg8
(imaps.location
Location
p115
(dp116
g11
I38
sg12
I38
sg13
I26
sbsg14
F1494063006.601505
sg15
g16
sba(itasks.task
Task
p117
(dp118
g5
g6
sg7
F1494063106.601508
sg8
(imaps.location
Location
p119
(dp120
g11
I39
sg12
I39
sg13
I27
sbsg14
F1494063006.601508
sg15
g16
sba(itasks.task
Task
p121
(dp122
g5
g6
sg7
F1494063106.60151
sg8
(imaps.location
Location
p123
(dp124
g11
I40
sg12
I40
sg13
I28
sbsg14
F1494063006.60151
sg15
g16
sba(itasks.task
Task
p125
(dp126
g5
g6
sg7
F1494063106.601513
sg8
(imaps.location
Location
p127
(dp128
g11
I41
sg12
I41
sg13
I29
sbsg14
F1494063006.601513
sg15
g16
sba(itasks.task
Task
p129
(dp130
g5
g6
sg7
F1494063106.601515
sg8
(imaps.location
Location
p131
(dp132
g11
I42
sg12
I42
sg13
I30
sbsg14
F1494063006.601515
sg15
g16
sba(itasks.task
Task
p133
(dp134
g5
g6
sg7
F1494063106.601517
sg8
(imaps.location
Location
p135
(dp136
g11
I43
sg12
I43
sg13
I31
sbsg14
F1494063006.601517
sg15
g16
sba(itasks.task
Task
p137
(dp138
g5
g6
sg7
F1494063106.601519
sg8
(imaps.location
Location
p139
(dp140
g11
I44
sg12
I44
sg13
I32
sbsg14
F1494063006.601519
sg15
g16
sba(itasks.task
Task
p141
(dp142
g5
g6
sg7
F1494063106.601522
sg8
(imaps.location
Location
p143
(dp144
g11
I45
sg12
I45
sg13
I33
sbsg14
F1494063006.601521
sg15
g16
sba(itasks.task
Task
p145
(dp146
g5
g6
sg7
F1494063106.601524
sg8
(imaps.location
Location
p147
(dp148
g11
I46
sg12
I46
sg13
I34
sbsg14
F1494063006.601524
sg15
g16
sba(itasks.task
Task
p149
(dp150
g5
g6
sg7
F1494063106.601526
sg8
(imaps.location
Location
p151
(dp152
g11
I47
sg12
I47
sg13
I35
sbsg14
F1494063006.601526
sg15
g16
sba(itasks.task
Task
p153
(dp154
g5
g6
sg7
F1494063106.601529
sg8
(imaps.location
Location
p155
(dp156
g11
I48
sg12
I48
sg13
I36
sbsg14
F1494063006.601529
sg15
g16
sba(itasks.task
Task
p157
(dp158
g5
g6
sg7
F1494063106.601532
sg8
(imaps.location
Location
p159
(dp160
g11
I49
sg12
I49
sg13
I37
sbsg14
F1494063006.601532
sg15
g16
sba(itasks.task
Task
p161
(dp162
g5
g6
sg7
F1494063106.601534
sg8
(imaps.location
Location
p163
(dp164
g11
I50
sg12
I50
sg13
I38
sbsg14
F1494063006.601534
sg15
g16
sba(itasks.task
Task
p165
(dp166
g5
g6
sg7
F1494063106.601536
sg8
(imaps.location
Location
p167
(dp168
g11
I51
sg12
I51
sg13
I39
sbsg14
F1494063006.601536
sg15
g16
sba(itasks.task
Task
p169
(dp170
g5
g6
sg7
F1494063106.601539
sg8
(imaps.location
Location
p171
(dp172
g11
I52
sg12
I52
sg13
I40
sbsg14
F1494063006.601539
sg15
g16
sba(itasks.task
Task
p173
(dp174
g5
g6
sg7
F1494063106.601541
sg8
(imaps.location
Location
p175
(dp176
g11
I53
sg12
I53
sg13
I41
sbsg14
F1494063006.601541
sg15
g16
sba(itasks.task
Task
p177
(dp178
g5
g6
sg7
F1494063106.601544
sg8
(imaps.location
Location
p179
(dp180
g11
I54
sg12
I54
sg13
I42
sbsg14
F1494063006.601543
sg15
g16
sba(itasks.task
Task
p181
(dp182
g5
g6
sg7
F1494063106.601547
sg8
(imaps.location
Location
p183
(dp184
g11
I55
sg12
I55
sg13
I43
sbsg14
F1494063006.601547
sg15
g16
sba(itasks.task
Task
p185
(dp186
g5
g6
sg7
F1494063106.601549
sg8
(imaps.location
Location
p187
(dp188
g11
I56
sg12
I56
sg13
I44
sbsg14
F1494063006.601549
sg15
g16
sba(itasks.task
Task
p189
(dp190
g5
g6
sg7
F1494063106.601551
sg8
(imaps.location
Location
p191
(dp192
g11
I57
sg12
I57
sg13
I45
sbsg14
F1494063006.601551
sg15
g16
sba(itasks.task
Task
p193
(dp194
g5
g6
sg7
F1494063106.601553
sg8
(imaps.location
Location
p195
(dp196
g11
I58
sg12
I58
sg13
I46
sbsg14
F1494063006.601553
sg15
g16
sba(itasks.task
Task
p197
(dp198
g5
g6
sg7
F1494063106.601557
sg8
(imaps.location
Location
p199
(dp200
g11
I59
sg12
I59
sg13
I47
sbsg14
F1494063006.601557
sg15
g16
sba(itasks.task
Task
p201
(dp202
g5
g6
sg7
F1494063106.60156
sg8
(imaps.location
Location
p203
(dp204
g11
I60
sg12
I60
sg13
I48
sbsg14
F1494063006.60156
sg15
g16
sba(itasks.task
Task
p205
(dp206
g5
g6
sg7
F1494063106.601562
sg8
(imaps.location
Location
p207
(dp208
g11
I61
sg12
I61
sg13
I49
sbsg14
F1494063006.601562
sg15
g16
sba(itasks.task
Task
p209
(dp210
g5
g6
sg7
F1494063106.601565
sg8
(imaps.location
Location
p211
(dp212
g11
I62
sg12
I62
sg13
I50
sbsg14
F1494063006.601565
sg15
g16
sba(itasks.task
Task
p213
(dp214
g5
g6
sg7
F1494063106.601567
sg8
(imaps.location
Location
p215
(dp216
g11
I63
sg12
I63
sg13
I51
sbsg14
F1494063006.601567
sg15
g16
sba(itasks.task
Task
p217
(dp218
g5
g6
sg7
F1494063106.60157
sg8
(imaps.location
Location
p219
(dp220
g11
I64
sg12
I64
sg13
I52
sbsg14
F1494063006.601569
sg15
g16
sba(itasks.task
Task
p221
(dp222
g5
g6
sg7
F1494063106.601572
sg8
(imaps.location
Location
p223
(dp224
g11
I65
sg12
I65
sg13
I53
sbsg14
F1494063006.601572
sg15
g16
sba(itasks.task
Task
p225
(dp226
g5
g6
sg7
F1494063106.601574
sg8
(imaps.location
Location
p227
(dp228
g11
I66
sg12
I66
sg13
I54
sbsg14
F1494063006.601574
sg15
g16
sba(itasks.task
Task
p229
(dp230
g5
g6
sg7
F1494063106.601576
sg8
(imaps.location
Location
p231
(dp232
g11
I67
sg12
I67
sg13
I55
sbsg14
F1494063006.601576
sg15
g16
sba(itasks.task
Task
p233
(dp234
g5
g6
sg7
F1494063106.601578
sg8
(imaps.location
Location
p235
(dp236
g11
I68
sg12
I68
sg13
I56
sbsg14
F1494063006.601578
sg15
g16
sba(itasks.task
Task
p237
(dp238
g5
g6
sg7
F1494063106.601582
sg8
(imaps.location
Location
p239
(dp240
g11
I69
sg12
I69
sg13
I57
sbsg14
F1494063006.601582
sg15
g16
sba(itasks.task
Task
p241
(dp242
g5
g6
sg7
F1494063106.601584
sg8
(imaps.location
Location
p243
(dp244
g11
I70
sg12
I70
sg13
I58
sbsg14
F1494063006.601584
sg15
g16
sba(itasks.task
Task
p245
(dp246
g5
g6
sg7
F1494063106.601586
sg8
(imaps.location
Location
p247
(dp248
g11
I71
sg12
I71
sg13
I59
sbsg14
F1494063006.601586
sg15
g16
sba(itasks.task
Task
p249
(dp250
g5
g6
sg7
F1494063106.601589
sg8
(imaps.location
Location
p251
(dp252
g11
I72
sg12
I72
sg13
I60
sbsg14
F1494063006.601589
sg15
g16
sba(itasks.task
Task
p253
(dp254
g5
g6
sg7
F1494063106.601591
sg8
(imaps.location
Location
p255
(dp256
g11
I73
sg12
I73
sg13
I61
sbsg14
F1494063006.601591
sg15
g16
sba(itasks.task
Task
p257
(dp258
g5
g6
sg7
F1494063106.601594
sg8
(imaps.location
Location
p259
(dp260
g11
I74
sg12
I74
sg13
I62
sbsg14
F1494063006.601593
sg15
g16
sba(itasks.task
Task
p261
(dp262
g5
g6
sg7
F1494063106.601596
sg8
(imaps.location
Location
p263
(dp264
g11
I75
sg12
I75
sg13
I63
sbsg14
F1494063006.601596
sg15
g16
sba(itasks.task
Task
p265
(dp266
g5
g6
sg7
F1494063106.601599
sg8
(imaps.location
Location
p267
(dp268
g11
I76
sg12
I76
sg13
I64
sbsg14
F1494063006.601599
sg15
g16
sba(itasks.task
Task
p269
(dp270
g5
g6
sg7
F1494063106.601601
sg8
(imaps.location
Location
p271
(dp272
g11
I77
sg12
I77
sg13
I65
sbsg14
F1494063006.601601
sg15
g16
sba(itasks.task
Task
p273
(dp274
g5
g6
sg7
F1494063106.601604
sg8
(imaps.location
Location
p275
(dp276
g11
I78
sg12
I78
sg13
I66
sbsg14
F1494063006.601603
sg15
g16
sba(itasks.task
Task
p277
(dp278
g5
g6
sg7
F1494063106.601606
sg8
(imaps.location
Location
p279
(dp280
g11
I79
sg12
I79
sg13
I67
sbsg14
F1494063006.601606
sg15
g16
sba(itasks.task
Task
p281
(dp282
g5
g6
sg7
F1494063106.601608
sg8
(imaps.location
Location
p283
(dp284
g11
I80
sg12
I80
sg13
I68
sbsg14
F1494063006.601608
sg15
g16
sba(itasks.task
Task
p285
(dp286
g5
g6
sg7
F1494063106.601611
sg8
(imaps.location
Location
p287
(dp288
g11
I81
sg12
I81
sg13
I69
sbsg14
F1494063006.60161
sg15
g16
sba(itasks.task
Task
p289
(dp290
g5
g6
sg7
F1494063106.601613
sg8
(imaps.location
Location
p291
(dp292
g11
I82
sg12
I82
sg13
I70
sbsg14
F1494063006.601613
sg15
g16
sba(itasks.task
Task
p293
(dp294
g5
g6
sg7
F1494063106.601616
sg8
(imaps.location
Location
p295
(dp296
g11
I83
sg12
I83
sg13
I71
sbsg14
F1494063006.601616
sg15
g16
sba(itasks.task
Task
p297
(dp298
g5
g6
sg7
F1494063106.601618
sg8
(imaps.location
Location
p299
(dp300
g11
I84
sg12
I84
sg13
I72
sbsg14
F1494063006.601618
sg15
g16
sba(itasks.task
Task
p301
(dp302
g5
g6
sg7
F1494063106.60162
sg8
(imaps.location
Location
p303
(dp304
g11
I85
sg12
I85
sg13
I73
sbsg14
F1494063006.60162
sg15
g16
sba(itasks.task
Task
p305
(dp306
g5
g6
sg7
F1494063106.601623
sg8
(imaps.location
Location
p307
(dp308
g11
I86
sg12
I86
sg13
I74
sbsg14
F1494063006.601623
sg15
g16
sba(itasks.task
Task
p309
(dp310
g5
g6
sg7
F1494063106.601629
sg8
(imaps.location
Location
p311
(dp312
g11
I87
sg12
I87
sg13
I75
sbsg14
F1494063006.601628
sg15
g16
sba(itasks.task
Task
p313
(dp314
g5
g6
sg7
F1494063106.601631
sg8
(imaps.location
Location
p315
(dp316
g11
I88
sg12
I88
sg13
I76
sbsg14
F1494063006.601631
sg15
g16
sba(itasks.task
Task
p317
(dp318
g5
g6
sg7
F1494063106.601633
sg8
(imaps.location
Location
p319
(dp320
g11
I89
sg12
I89
sg13
I77
sbsg14
F1494063006.601633
sg15
g16
sba(itasks.task
Task
p321
(dp322
g5
g6
sg7
F1494063106.601715
sg8
(imaps.location
Location
p323
(dp324
g11
I90
sg12
I90
sg13
I78
sbsg14
F1494063006.601715
sg15
g16
sba(itasks.task
Task
p325
(dp326
g5
g6
sg7
F1494063106.601717
sg8
(imaps.location
Location
p327
(dp328
g11
I91
sg12
I91
sg13
I79
sbsg14
F1494063006.601717
sg15
g16
sba(itasks.task
Task
p329
(dp330
g5
g6
sg7
F1494063106.601719
sg8
(imaps.location
Location
p331
(dp332
g11
I92
sg12
I92
sg13
I80
sbsg14
F1494063006.601719
sg15
g16
sba(itasks.task
Task
p333
(dp334
g5
g6
sg7
F1494063106.601722
sg8
(imaps.location
Location
p335
(dp336
g11
I93
sg12
I93
sg13
I81
sbsg14
F1494063006.601722
sg15
g16
sba(itasks.task
Task
p337
(dp338
g5
g6
sg7
F1494063106.601724
sg8
(imaps.location
Location
p339
(dp340
g11
I94
sg12
I94
sg13
I82
sbsg14
F1494063006.601724
sg15
g16
sba(itasks.task
Task
p341
(dp342
g5
g6
sg7
F1494063106.601726
sg8
(imaps.location
Location
p343
(dp344
g11
I95
sg12
I95
sg13
I83
sbsg14
F1494063006.601726
sg15
g16
sba(itasks.task
Task
p345
(dp346
g5
g6
sg7
F1494063106.601728
sg8
(imaps.location
Location
p347
(dp348
g11
I96
sg12
I96
sg13
I84
sbsg14
F1494063006.601728
sg15
g16
sba(itasks.task
Task
p349
(dp350
g5
g6
sg7
F1494063106.601732
sg8
(imaps.location
Location
p351
(dp352
g11
I97
sg12
I97
sg13
I85
sbsg14
F1494063006.601732
sg15
g16
sba(itasks.task
Task
p353
(dp354
g5
g6
sg7
F1494063106.601734
sg8
(imaps.location
Location
p355
(dp356
g11
I98
sg12
I98
sg13
I86
sbsg14
F1494063006.601734
sg15
g16
sba(itasks.task
Task
p357
(dp358
g5
g6
sg7
F1494063106.601736
sg8
(imaps.location
Location
p359
(dp360
g11
I99
sg12
I99
sg13
I87
sbsg14
F1494063006.601736
sg15
g16
sba(itasks.task
Task
p361
(dp362
g5
g6
sg7
F1494063106.601738
sg8
(imaps.location
Location
p363
(dp364
g11
I100
sg12
I100
sg13
I88
sbsg14
F1494063006.601738
sg15
g16
sba(itasks.task
Task
p365
(dp366
g5
g6
sg7
F1494063106.60174
sg8
(imaps.location
Location
p367
(dp368
g11
I101
sg12
I101
sg13
I89
sbsg14
F1494063006.60174
sg15
g16
sba(itasks.task
Task
p369
(dp370
g5
g6
sg7
F1494063106.601743
sg8
(imaps.location
Location
p371
(dp372
g11
I102
sg12
I102
sg13
I90
sbsg14
F1494063006.601742
sg15
g16
sba(itasks.task
Task
p373
(dp374
g5
g6
sg7
F1494063106.601744
sg8
(imaps.location
Location
p375
(dp376
g11
I103
sg12
I103
sg13
I91
sbsg14
F1494063006.601744
sg15
g16
sba(itasks.task
Task
p377
(dp378
g5
g6
sg7
F1494063106.601748
sg8
(imaps.location
Location
p379
(dp380
g11
I104
sg12
I104
sg13
I92
sbsg14
F1494063006.601747
sg15
g16
sba(itasks.task
Task
p381
(dp382
g5
g6
sg7
F1494063106.60175
sg8
(imaps.location
Location
p383
(dp384
g11
I105
sg12
I105
sg13
I93
sbsg14
F1494063006.60175
sg15
g16
sba(itasks.task
Task
p385
(dp386
g5
g6
sg7
F1494063106.601751
sg8
(imaps.location
Location
p387
(dp388
g11
I106
sg12
I106
sg13
I94
sbsg14
F1494063006.601751
sg15
g16
sba(itasks.task
Task
p389
(dp390
g5
g6
sg7
F1494063106.601753
sg8
(imaps.location
Location
p391
(dp392
g11
I107
sg12
I107
sg13
I95
sbsg14
F1494063006.601753
sg15
g16
sba(itasks.task
Task
p393
(dp394
g5
g6
sg7
F1494063106.601755
sg8
(imaps.location
Location
p395
(dp396
g11
I108
sg12
I108
sg13
I96
sbsg14
F1494063006.601755
sg15
g16
sba(itasks.task
Task
p397
(dp398
g5
g6
sg7
F1494063106.601756
sg8
(imaps.location
Location
p399
(dp400
g11
I109
sg12
I109
sg13
I97
sbsg14
F1494063006.601756
sg15
g16
sba(itasks.task
Task
p401
(dp402
g5
g6
sg7
F1494063106.601758
sg8
(imaps.location
Location
p403
(dp404
g11
I110
sg12
I110
sg13
I98
sbsg14
F1494063006.601758
sg15
g16
sba(itasks.task
Task
p405
(dp406
g5
g6
sg7
F1494063106.601761
sg8
(imaps.location
Location
p407
(dp408
g11
I111
sg12
I111
sg13
I99
sbsg14
F1494063006.60176
sg15
g16
sbasS'missions'
p409
(itasks.mission
Mission
p410
(dp411
S'startDate'
p412
F1494063006.601424
sg1
(lp413
g3
ag17
ag21
ag25
ag29
ag33
ag37
ag41
ag45
ag49
ag53
ag57
ag61
ag65
ag69
ag73
ag77
ag81
ag85
ag89
ag93
ag97
ag101
ag105
ag109
ag113
ag117
ag121
ag125
ag129
ag133
ag137
ag141
ag145
ag149
ag153
ag157
ag161
ag165
ag169
ag173
ag177
ag181
ag185
ag189
ag193
ag197
ag201
ag205
ag209
ag213
ag217
ag221
ag225
ag229
ag233
ag237
ag241
ag245
ag249
ag253
ag257
ag261
ag265
ag269
ag273
ag277
ag281
ag285
ag289
ag293
ag297
ag301
ag305
ag309
ag313
ag317
ag321
ag325
ag329
ag333
ag337
ag341
ag345
ag349
ag353
ag357
ag361
ag365
ag369
ag373
ag377
ag381
ag385
ag389
ag393
ag397
ag401
ag405
asS'target'
p414
I125000
sg8
(imaps.location
Location
p415
(dp416
g11
I123
sg12
I123
sg13
I1
sbsS'title'
p417
S'dig2'
p418
sbs.