(dp0
S'missions'
p1
(lp2
(imodels.mission
Mission
p3
(dp4
S'startDate'
p5
cdatetime
datetime
p6
(S'\x07\xe1\x05\x01\x00\x00\x00\x00\x00\x00'
p7
tp8
Rp9
sS'dumpLocations'
p10
(lp11
(imodels.locations
Location
p12
(dp13
S'location'
p14
(imodels.point
Point
p15
(dp16
S'lat'
p17
F40.52387895130079
sS'index'
p18
I4
sS'lng'
p19
F-112.15300591635344
sS'nid'
p20
I70
sbsS'type'
p21
S'dump'
p22
sS'id'
p23
I5
sS'name'
p24
S'Dump5'
p25
sba(imodels.locations
Location
p26
(dp27
g14
(imodels.point
Point
p28
(dp29
g17
F40.51882860152375
sg18
I2
sg19
F-112.15250166522429
sg20
I121
sbsg21
g22
sg23
I6
sg24
S'Dump6'
p30
sba(imodels.locations
Location
p31
(dp32
g14
(imodels.point
Point
p33
(dp34
g17
F40.51129108105971
sg18
I36
sg19
F-112.14017219832942
sg20
I185
sbsg21
g22
sg23
I7
sg24
S'Dump7'
p35
sba(imodels.locations
Location
p36
(dp37
g14
(imodels.point
Point
p38
(dp39
g17
F40.51865378394097
sg18
I4
sg19
F-112.14797353538222
sg20
I126
sbsg21
g22
sg23
I8
sg24
S'Dump8'
p40
sba(imodels.locations
Location
p41
(dp42
g14
(imodels.point
Point
p43
(dp44
g17
F40.528067561722764
sg18
I2
sg19
F-112.14214828710544
sg20
I132
sbsg21
g22
sg23
I9
sg24
S'Dump9'
p45
sbasS'endDate'
p46
g6
(S'\x07\xe1\x05\x0b\x00\x00\x00\x00\x00\x00'
p47
tp48
Rp49
sS'target'
p50
I500000
sS'title'
p51
S'New mission'
p52
sS'numDays'
p53
I10
sS'schedules'
p54
(lp55
sS'digLocation'
p56
(imodels.locations
Location
p57
(dp58
g14
(imodels.point
Point
p59
(dp60
g17
F40.52876182355014
sg18
I1
sg19
F-112.14954320139691
sg20
I81
sbsg21
S'dig'
p61
sg23
I2
sg24
S'Site2'
p62
sbsbasS'machines'
p63
(lp64
(imodels.machine
Shovel
p65
(dp66
S'weightCapacity'
p67
I37
sS'tasks'
p68
(lp69
sS'staticFuelConsupmtion'
p70
I99
sS'weight'
p71
I1229
sS'speed'
p72
I19
sS'isAvailable'
p73
I01
sg14
(imodels.point
Point
p74
(dp75
g17
F40.52196600270872
sg18
I13
sg19
F-112.15605829755253
sg20
I117
sbsS'fuelConsumption'
p76
I187
sS'model'
p77
S'SHV0'
p78
sS'fuelCapacity'
p79
I11958
sg23
I0
sba(imodels.machine
Shovel
p80
(dp81
g67
I86
sg68
(lp82
sg70
I88
sg71
I1984
sg72
I16
sg73
I01
sg14
(imodels.point
Point
p83
(dp84
g17
F40.53168320699514
sg18
I1
sg19
F-112.14108619637295
sg20
I238
sbsg76
I187
sg77
S'SHV1'
p85
sg79
I9739
sg23
I1
sba(imodels.machine
Shovel
p86
(dp87
g67
I76
sg68
(lp88
sg70
I80
sg71
I1446
sg72
I13
sg73
I01
sg14
(imodels.point
Point
p89
(dp90
g17
F40.518991694454094
sg18
I1
sg19
F-112.15212080426022
sg20
I105
sbsg76
I171
sg77
S'SHV2'
p91
sg79
I11681
sg23
I2
sba(imodels.machine
Shovel
p92
(dp93
g67
I74
sg68
(lp94
sg70
I102
sg71
I1513
sg72
I19
sg73
I01
sg14
(imodels.point
Point
p95
(dp96
g17
F40.50937149461206
sg18
I7
sg19
F-112.1428325575697
sg20
I204
sbsg76
I168
sg77
S'SHV3'
p97
sg79
I8676
sg23
I3
sba(imodels.machine
Shovel
p98
(dp99
g67
I54
sg68
(lp100
sg70
I85
sg71
I1295
sg72
I13
sg73
I01
sg14
(imodels.point
Point
p101
(dp102
g17
F40.52406145192949
sg18
I1
sg19
F-112.14723784274861
sg20
I89
sbsg76
I182
sg77
S'SHV4'
p103
sg79
I11290
sg23
I4
sba(imodels.machine
Loader
p104
(dp105
g67
I60
sg68
(lp106
sg70
I84
sg71
I251515
sg72
I40
sg73
I01
sg14
(imodels.point
Point
p107
(dp108
g17
F40.52196651518252
sg18
I15
sg19
F-112.15500686116025
sg20
I119
sbsg76
I187
sg77
S'LOD5'
p109
sg79
I9663
sg23
I5
sba(imodels.machine
Loader
p110
(dp111
g67
I44
sg68
(lp112
sg70
I120
sg71
I332664
sg72
I48
sg73
I01
sg14
(imodels.point
Point
p113
(dp114
g17
F40.52359965398034
sg18
I1
sg19
F-112.1546206230621
sg20
I142
sbsg76
I190
sg77
S'LOD6'
p115
sg79
I10408
sg23
I6
sba(imodels.machine
Loader
p116
(dp117
g67
I36
sg68
(lp118
sg70
I109
sg71
I311840
sg72
I43
sg73
I01
sg14
(imodels.point
Point
p119
(dp120
g17
F40.523754599861704
sg18
I3
sg19
F-112.15259822802483
sg20
I69
sbsg76
I159
sg77
S'LOD7'
p121
sg79
I8858
sg23
I7
sba(imodels.machine
Loader
p122
(dp123
g67
I37
sg68
(lp124
sg70
I113
sg71
I330194
sg72
I41
sg73
I01
sg14
(imodels.point
Point
p125
(dp126
g17
F40.52144455481663
sg18
I4
sg19
F-112.14980874008938
sg20
I88
sbsg76
I185
sg77
S'LOD8'
p127
sg79
I9578
sg23
I8
sba(imodels.machine
Loader
p128
(dp129
g67
I34
sg68
(lp130
sg70
I112
sg71
I292816
sg72
I50
sg73
I01
sg14
(imodels.point
Point
p131
(dp132
g17
F40.524452280723104
sg18
I4
sg19
F-112.14027479428802
sg20
I134
sbsg76
I153
sg77
S'LOD9'
p133
sg79
I9521
sg23
I9
sba(imodels.machine
Truck
p134
(dp135
g67
I322
sg68
(lp136
sg70
I98
sg71
I362
sg72
I47
sg73
I01
sg14
(imodels.point
Point
p137
(dp138
g17
F40.51543389498886
sg18
I4
sg19
F-112.13385560637846
sg20
I201
sbsg76
I157
sg77
S'TRK10'
p139
sg79
I11577
sg23
I10
sba(imodels.machine
Truck
p140
(dp141
g67
I378
sg68
(lp142
sg70
I120
sg71
I277
sg72
I40
sg73
I01
sg14
(imodels.point
Point
p143
(dp144
g17
F40.51964416685738
sg18
I2
sg19
F-112.15076226431802
sg20
I146
sbsg76
I177
sg77
S'TRK11'
p145
sg79
I8804
sg23
I11
sba(imodels.machine
Truck
p146
(dp147
g67
I379
sg68
(lp148
sg70
I101
sg71
I295
sg72
I40
sg73
I01
sg14
(imodels.point
Point
p149
(dp150
g17
F40.52062271585255
sg18
I14
sg19
F-112.15972248580744
sg20
I14
sbsg76
I181
sg77
S'TRK12'
p151
sg79
I9876
sg23
I12
sba(imodels.machine
Truck
p152
(dp153
g67
I393
sg68
(lp154
sg70
I99
sg71
I393
sg72
I48
sg73
I01
sg14
g113
sg76
I159
sg77
S'TRK13'
p155
sg79
I10099
sg23
I13
sba(imodels.machine
Truck
p156
(dp157
g67
I385
sg68
(lp158
sg70
I88
sg71
I284
sg72
I50
sg73
I01
sg14
(imodels.point
Point
p159
(dp160
g17
F40.52294721878397
sg18
I7
sg19
F-112.15614411778256
sg20
I80
sbsg76
I174
sg77
S'TRK14'
p161
sg79
I8931
sg23
I14
sba(imodels.machine
Truck
p162
(dp163
g67
I327
sg68
(lp164
sg70
I118
sg71
I327
sg72
I40
sg73
I01
sg14
(imodels.point
Point
p165
(dp166
g17
F40.53019297078088
sg18
I1
sg19
F-112.14367184586331
sg20
I131
sbsg76
I178
sg77
S'TRK15'
p167
sg79
I10423
sg23
I15
sba(imodels.machine
Truck
p168
(dp169
g67
I379
sg68
(lp170
sg70
I83
sg71
I277
sg72
I40
sg73
I01
sg14
(imodels.point
Point
p171
(dp172
g17
F40.517122510265644
sg18
I7
sg19
F-112.15331366397902
sg20
I129
sbsg76
I175
sg77
S'TRK16'
p173
sg79
I8081
sg23
I16
sba(imodels.machine
Truck
p174
(dp175
g67
I378
sg68
(lp176
sg70
I86
sg71
I312
sg72
I41
sg73
I01
sg14
(imodels.point
Point
p177
(dp178
g17
F40.521600289092895
sg18
I3
sg19
F-112.15016361369356
sg20
I87
sbsg76
I166
sg77
S'TRK17'
p179
sg79
I9963
sg23
I17
sba(imodels.machine
Truck
p180
(dp181
g67
I303
sg68
(lp182
sg70
I111
sg71
I336
sg72
I47
sg73
I01
sg14
(imodels.point
Point
p183
(dp184
g17
F40.521979767580525
sg18
I14
sg19
F-112.15566132940194
sg20
I118
sbsg76
I176
sg77
S'TRK18'
p185
sg79
I8642
sg23
I18
sba(imodels.machine
Truck
p186
(dp187
g67
I330
sg68
(lp188
sg70
I116
sg71
I359
sg72
I45
sg73
I01
sg14
(imodels.point
Point
p189
(dp190
g17
F40.518287894584915
sg18
I4
sg19
F-112.10799523381002
sg20
I212
sbsg76
I170
sg77
S'TRK19'
p191
sg79
I8064
sg23
I19
sbasS'locations'
p192
(lp193
(imodels.locations
Location
p194
(dp195
g14
(imodels.point
Point
p196
(dp197
g17
F40.51290707153489
sg18
I1
sg19
F-112.14024398274228
sg20
I230
sbsg21
g61
sg23
I0
sg24
S'Site0'
p198
sba(imodels.locations
Location
p199
(dp200
g14
(imodels.point
Point
p201
(dp202
g17
F40.518991694454094
sg18
I1
sg19
F-112.15212080426022
sg20
I120
sbsg21
g61
sg23
I1
sg24
S'Site1'
p203
sbag57
a(imodels.locations
Location
p204
(dp205
g14
(imodels.point
Point
p206
(dp207
g17
F40.519030435813804
sg18
I3
sg19
F-112.15059865197139
sg20
I140
sbsg21
g61
sg23
I3
sg24
S'Site3'
p208
sba(imodels.locations
Location
p209
(dp210
g14
(imodels.point
Point
p211
(dp212
g17
F40.526362112063275
sg18
I2
sg19
F-112.14034315782186
sg20
I190
sbsg21
g61
sg23
I4
sg24
S'Site4'
p213
sbag12
ag26
ag31
ag36
ag41
a(imodels.locations
Location
p214
(dp215
g14
g159
sg21
S'fuel'
p216
sg23
I10
sg24
S'Fuel10'
p217
sba(imodels.locations
Location
p218
(dp219
g14
(imodels.point
Point
p220
(dp221
g17
F40.51513382802257
sg18
I3
sg19
F-112.13631731772568
sg20
I232
sbsg21
g216
sg23
I11
sg24
S'Fuel11'
p222
sbas.