(dp0
S'missions'
p1
(lp2
(imodels.mission
Mission
p3
(dp4
S'startDate'
p5
cdatetime
datetime
p6
(S'\x07\xe1\x05\x01\x00\x00\x00\x00\x00\x00'
p7
tp8
Rp9
sS'dumpLocations'
p10
(lp11
(imodels.point
Point
p12
(dp13
S'lat'
p14
F40.522525044644716
sS'index'
p15
I10
sS'lng'
p16
F-112.14753449645366
sS'nid'
p17
I43
sba(imodels.point
Point
p18
(dp19
g14
F40.524900429038105
sg15
I8
sg16
F-112.15478156110925
sg17
I103
sbasS'endDate'
p20
g6
(S'\x07\xe1\x05\x0b\x00\x00\x00\x00\x00\x00'
p21
tp22
Rp23
sS'target'
p24
I500000
sS'title'
p25
S'New mission'
p26
sS'numDays'
p27
I10
sS'schedules'
p28
(lp29
sS'digLocation'
p30
(imodels.point
Point
p31
(dp32
g14
F40.525849994573086
sg15
I3
sg16
F-112.1480257423629
sg17
I91
sbsbasS'machines'
p33
(lp34
(imodels.machine
Shovel
p35
(dp36
S'weightCapacity'
p37
I95
sS'tasks'
p38
(lp39
sS'staticFuelConsupmtion'
p40
I88
sS'weight'
p41
I1882
sS'speed'
p42
I17
sS'isAvailable'
p43
I01
sS'location'
p44
(imodels.point
Point
p45
(dp46
g14
F40.52430101473363
sg15
I1
sg16
F-112.13355991787716
sg17
I234
sbsS'fuelConsumption'
p47
I173
sS'model'
p48
S'SHV0'
p49
sS'fuelCapacity'
p50
I8907
sS'id'
p51
I0
sba(imodels.machine
Shovel
p52
(dp53
g37
I26
sg38
(lp54
sg40
I114
sg41
I1027
sg42
I20
sg43
I01
sg44
(imodels.point
Point
p55
(dp56
g14
F40.51967883063745
sg15
I1
sg16
F-112.14999783582493
sg17
I138
sbsg47
I197
sg48
S'SHV1'
p57
sg50
I8566
sg51
I1
sba(imodels.machine
Shovel
p58
(dp59
g37
I94
sg38
(lp60
sg40
I100
sg41
I1027
sg42
I12
sg43
I01
sg44
(imodels.point
Point
p61
(dp62
g14
F40.51024793425604
sg15
I11
sg16
F-112.15380523152157
sg17
I208
sbsg47
I155
sg48
S'SHV2'
p63
sg50
I8735
sg51
I2
sba(imodels.machine
Shovel
p64
(dp65
g37
I64
sg38
(lp66
sg40
I89
sg41
I1275
sg42
I17
sg43
I01
sg44
(imodels.point
Point
p67
(dp68
g14
F40.51674876769078
sg15
I4
sg16
F-112.13403198666379
sg17
I233
sbsg47
I199
sg48
S'SHV3'
p69
sg50
I8280
sg51
I3
sba(imodels.machine
Shovel
p70
(dp71
g37
I59
sg38
(lp72
sg40
I96
sg41
I1897
sg42
I12
sg43
I01
sg44
(imodels.point
Point
p73
(dp74
g14
F40.518991694454094
sg15
I1
sg16
F-112.15212080426022
sg17
I120
sbsg47
I175
sg48
S'SHV4'
p75
sg50
I10676
sg51
I4
sba(imodels.machine
Loader
p76
(dp77
g37
I26
sg38
(lp78
sg40
I83
sg41
I287872
sg42
I44
sg43
I01
sg44
(imodels.point
Point
p79
(dp80
g14
F40.52294721878397
sg15
I7
sg16
F-112.15614411778256
sg17
I80
sbsg47
I152
sg48
S'LOD5'
p81
sg50
I11595
sg51
I5
sba(imodels.machine
Loader
p82
(dp83
g37
I57
sg38
(lp84
sg40
I117
sg41
I309066
sg42
I47
sg43
I01
sg44
(imodels.point
Point
p85
(dp86
g14
F40.52138128720112
sg15
I30
sg16
F-112.12869095919694
sg17
I179
sbsg47
I197
sg48
S'LOD6'
p87
sg50
I11409
sg51
I6
sba(imodels.machine
Loader
p88
(dp89
g37
I28
sg38
(lp90
sg40
I86
sg41
I341580
sg42
I44
sg43
I01
sg44
(imodels.point
Point
p91
(dp92
g14
F40.518991694454094
sg15
I1
sg16
F-112.15212080426022
sg17
I105
sbsg47
I181
sg48
S'LOD7'
p93
sg50
I11476
sg51
I7
sba(imodels.machine
Loader
p94
(dp95
g37
I28
sg38
(lp96
sg40
I108
sg41
I337807
sg42
I50
sg43
I01
sg44
(imodels.point
Point
p97
(dp98
g14
F40.52359965398034
sg15
I1
sg16
F-112.1546206230621
sg17
I142
sbsg47
I181
sg48
S'LOD8'
p99
sg50
I8146
sg51
I8
sba(imodels.machine
Loader
p100
(dp101
g37
I46
sg38
(lp102
sg40
I104
sg41
I331033
sg42
I40
sg43
I01
sg44
(imodels.point
Point
p103
(dp104
g14
F40.52945165509868
sg15
I5
sg16
F-112.13736795724333
sg17
I242
sbsg47
I198
sg48
S'LOD9'
p105
sg50
I10127
sg51
I9
sba(imodels.machine
Truck
p106
(dp107
g37
I353
sg38
(lp108
sg40
I87
sg41
I386
sg42
I48
sg43
I01
sg44
(imodels.point
Point
p109
(dp110
g14
F40.52827708825454
sg15
I4
sg16
F-112.15161898771271
sg17
I99
sbsg47
I181
sg48
S'TRK10'
p111
sg50
I9886
sg51
I10
sba(imodels.machine
Truck
p112
(dp113
g37
I312
sg38
(lp114
sg40
I111
sg41
I335
sg42
I41
sg43
I01
sg44
(imodels.point
Point
p115
(dp116
g14
F40.52239060498719
sg15
I24
sg16
F-112.15284768290326
sg17
I57
sbsg47
I168
sg48
S'TRK11'
p117
sg50
I9539
sg51
I11
sba(imodels.machine
Truck
p118
(dp119
g37
I363
sg38
(lp120
sg40
I104
sg41
I313
sg42
I49
sg43
I01
sg44
(imodels.point
Point
p121
(dp122
g14
F40.51919151519808
sg15
I7
sg16
F-112.14201155848309
sg17
I137
sbsg47
I173
sg48
S'TRK12'
p123
sg50
I9663
sg51
I12
sba(imodels.machine
Truck
p124
(dp125
g37
I361
sg38
(lp126
sg40
I80
sg41
I309
sg42
I43
sg43
I01
sg44
(imodels.point
Point
p127
(dp128
g14
F40.52199302087392
sg15
I1
sg16
F-112.1485695595245
sg17
I64
sbsg47
I179
sg48
S'TRK13'
p129
sg50
I11753
sg51
I13
sba(imodels.machine
Truck
p130
(dp131
g37
I309
sg38
(lp132
sg40
I105
sg41
I299
sg42
I43
sg43
I01
sg44
g85
sg47
I178
sg48
S'TRK14'
p133
sg50
I10549
sg51
I14
sba(imodels.machine
Truck
p134
(dp135
g37
I396
sg38
(lp136
sg40
I93
sg41
I352
sg42
I45
sg43
I01
sg44
(imodels.point
Point
p137
(dp138
g14
F40.523770911584855
sg15
I6
sg16
F-112.14899067669228
sg17
I94
sbsg47
I197
sg48
S'TRK15'
p139
sg50
I9326
sg51
I15
sba(imodels.machine
Truck
p140
(dp141
g37
I358
sg38
(lp142
sg40
I100
sg41
I264
sg42
I43
sg43
I01
sg44
g73
sg47
I151
sg48
S'TRK16'
p143
sg50
I10054
sg51
I16
sba(imodels.machine
Truck
p144
(dp145
g37
I394
sg38
(lp146
sg40
I83
sg41
I256
sg42
I40
sg43
I01
sg44
(imodels.point
Point
p147
(dp148
g14
F40.53105432014323
sg15
I2
sg16
F-112.14738744003029
sg17
I75
sbsg47
I152
sg48
S'TRK17'
p149
sg50
I10490
sg51
I17
sba(imodels.machine
Truck
p150
(dp151
g37
I399
sg38
(lp152
sg40
I118
sg41
I336
sg42
I50
sg43
I01
sg44
(imodels.point
Point
p153
(dp154
g14
F40.50937149461206
sg15
I7
sg16
F-112.1428325575697
sg17
I204
sbsg47
I182
sg48
S'TRK18'
p155
sg50
I11532
sg51
I18
sba(imodels.machine
Truck
p156
(dp157
g37
I336
sg38
(lp158
sg40
I103
sg41
I279
sg42
I50
sg43
I01
sg44
(imodels.point
Point
p159
(dp160
g14
F40.519089564731466
sg15
I4
sg16
F-112.15094331622777
sg17
I141
sbsg47
I180
sg48
S'TRK19'
p161
sg50
I9779
sg51
I19
sbasS'locations'
p162
(lp163
(imodels.locations
Location
p164
(dp165
S'point'
p166
(imodels.point
Point
p167
(dp168
g14
F40.519030435813804
sg15
I3
sg16
F-112.15059865197139
sg17
I140
sbsS'type'
p169
S'dig'
p170
sg51
I0
sS'name'
p171
S'Site0'
p172
sba(imodels.locations
Location
p173
(dp174
g166
(imodels.point
Point
p175
(dp176
g14
F40.521600289092895
sg15
I3
sg16
F-112.15016361369356
sg17
I87
sbsg169
g170
sg51
I1
sg171
S'Site1'
p177
sba(imodels.locations
Location
p178
(dp179
g166
(imodels.point
Point
p180
(dp181
g14
F40.524449849065824
sg15
I6
sg16
F-112.15532470292851
sg17
I79
sbsg169
g170
sg51
I2
sg171
S'Site2'
p182
sba(imodels.locations
Location
p183
(dp184
g166
(imodels.point
Point
p185
(dp186
g14
F40.52387895130079
sg15
I4
sg16
F-112.15300591635344
sg17
I70
sbsg169
g170
sg51
I3
sg171
S'Site3'
p187
sba(imodels.locations
Location
p188
(dp189
g166
(imodels.point
Point
p190
(dp191
g14
F40.51722613443143
sg15
I3
sg16
F-112.13269675223654
sg17
I200
sbsg169
g170
sg51
I4
sg171
S'Site4'
p192
sba(imodels.locations
Location
p193
(dp194
g166
(imodels.point
Point
p195
(dp196
g14
F40.518991694454094
sg15
I5
sg16
F-112.15212080426022
sg17
I149
sbsg169
S'dump'
p197
sg51
I5
sg171
S'Dump5'
p198
sba(imodels.locations
Location
p199
(dp200
g166
(imodels.point
Point
p201
(dp202
g14
F40.51952590776382
sg15
I4
sg16
F-112.14713725991055
sg17
I4
sbsg169
g197
sg51
I6
sg171
S'Dump6'
p203
sba(imodels.locations
Location
p204
(dp205
g166
g147
sg169
g197
sg51
I7
sg171
S'Dump7'
p206
sba(imodels.locations
Location
p207
(dp208
g166
(imodels.point
Point
p209
(dp210
g14
F40.527766933963264
sg15
I4
sg16
F-112.13397834248349
sg17
I237
sbsg169
g197
sg51
I8
sg171
S'Dump8'
p211
sba(imodels.locations
Location
p212
(dp213
g166
(imodels.point
Point
p214
(dp215
g14
F40.51938419908192
sg15
I2
sg16
F-112.15045850678587
sg17
I139
sbsg169
g197
sg51
I9
sg171
S'Dump9'
p216
sba(imodels.locations
Location
p217
(dp218
g166
g209
sg169
S'fuel'
p219
sg51
I10
sg171
S'Fuel10'
p220
sba(imodels.locations
Location
p221
(dp222
g166
(imodels.point
Point
p223
(dp224
g14
F40.52937238411766
sg15
I3
sg16
F-112.15080726847532
sg17
I98
sbsg169
g219
sg51
I11
sg171
S'Fuel11'
p225
sbas.