(dp0
S'map'
p1
(imodels.map
Map
p2
(dp3
S'roads'
p4
(lp5
(imodels.road
Road
p6
(dp7
S'points'
p8
(lp9
(imodels.point
Point
p10
(dp11
S'lat'
p12
F40.527179779080214
sS'lng'
p13
F-112.14562985844418
sS'nid'
p14
I0
sba(imodels.point
Point
p15
(dp16
g12
F40.52481063848461
sg13
F-112.14410371875732
sg14
I1
sba(imodels.point
Point
p17
(dp18
g12
F40.52220498100684
sg13
F-112.14396165032576
sg14
I2
sba(imodels.point
Point
p19
(dp20
g12
F40.51952590776382
sg13
F-112.14713725991055
sg14
I3
sba(imodels.point
Point
p21
(dp22
g12
F40.51855129581975
sg13
F-112.15113909219804
sg14
I4
sba(imodels.point
Point
p23
(dp24
g12
F40.518991694454094
sg13
F-112.15212080426022
sg14
I5
sba(imodels.point
Point
p25
(dp26
g12
F40.519726717719045
sg13
F-112.15284290396403
sg14
I6
sba(imodels.point
Point
p27
(dp28
g12
F40.52034960086581
sg13
F-112.15384001833581
sg14
I7
sba(imodels.point
Point
p29
(dp30
g12
F40.52143326987838
sg13
F-112.15478348743108
sg14
I8
sba(imodels.point
Point
p31
(dp32
g12
F40.52196651518252
sg13
F-112.15500686116025
sg14
I9
sba(imodels.point
Point
p33
(dp34
g12
F40.522468002815515
sg13
F-112.15530318977221
sg14
I10
sba(imodels.point
Point
p35
(dp36
g12
F40.5229309078227
sg13
F-112.15563986248776
sg14
I11
sba(imodels.point
Point
p37
(dp38
g12
F40.52294721878397
sg13
F-112.15614411778256
sg14
I12
sba(imodels.point
Point
p39
(dp40
g12
F40.52062271585255
sg13
F-112.15972248580744
sg14
I13
sba(imodels.point
Point
p41
(dp42
g12
F40.51935853556928
sg13
F-112.16057282239603
sg14
I14
sba(imodels.point
Point
p43
(dp44
g12
F40.51802910641094
sg13
F-112.1605648358053
sg14
I15
sba(imodels.point
Point
p45
(dp46
g12
F40.517117808895
sg13
F-112.15653490256864
sg14
I16
sba(imodels.point
Point
p47
(dp48
g12
F40.5167446895738
sg13
F-112.15372476525113
sg14
I17
sba(imodels.point
Point
p49
(dp50
g12
F40.51656524076234
sg13
F-112.15240850592454
sg14
I18
sba(imodels.point
Point
p51
(dp52
g12
F40.516240924447345
sg13
F-112.14992364912848
sg14
I19
sba(imodels.point
Point
p53
(dp54
g12
F40.51644169101281
sg13
F-112.14704507776895
sg14
I20
sba(imodels.point
Point
p55
(dp56
g12
F40.51704207491591
sg13
F-112.14552904055648
sg14
I21
sba(imodels.point
Point
p57
(dp58
g12
F40.51802580379146
sg13
F-112.14339068607933
sg14
I22
sba(imodels.point
Point
p59
(dp60
g12
F40.51919151519808
sg13
F-112.14201155848309
sg14
I23
sba(imodels.point
Point
p61
(dp62
g12
F40.51931206211512
sg13
F-112.14137647153512
sg14
I24
sba(imodels.point
Point
p63
(dp64
g12
F40.51980877249694
sg13
F-112.14060848417938
sg14
I25
sba(imodels.point
Point
p65
(dp66
g12
F40.5226437858001
sg13
F-112.13811583850264
sg14
I26
sba(imodels.point
Point
p67
(dp68
g12
F40.524834484111594
sg13
F-112.13767230456722
sg14
I27
sba(imodels.point
Point
p69
(dp70
g12
F40.5272837547989
sg13
F-112.13899407334134
sg14
I28
sba(imodels.point
Point
p71
(dp72
g12
F40.53090133042925
sg13
F-112.14031144758167
sg14
I29
sba(imodels.point
Point
p73
(dp74
g12
F40.53168320699514
sg13
F-112.14108619637295
sg14
I30
sba(imodels.point
Point
p75
(dp76
g12
F40.53335972612005
sg13
F-112.14454955138109
sg14
I31
sba(imodels.point
Point
p77
(dp78
g12
F40.5342905309938
sg13
F-112.14583370632931
sg14
I32
sbasS'type'
p79
S'dirt'
p80
sS'id'
p81
I0
sS'name'
p82
S'R'
p83
sba(imodels.road
Road
p84
(dp85
g8
(lp86
(imodels.point
Point
p87
(dp88
g12
F40.52406145192949
sg13
F-112.14723784274861
sg14
I33
sba(imodels.point
Point
p89
(dp90
g12
F40.52406145192949
sg13
F-112.14723784274861
sg14
I34
sba(imodels.point
Point
p91
(dp92
g12
F40.52336435156166
sg13
F-112.14681154854554
sg14
I35
sba(imodels.point
Point
p93
(dp94
g12
F40.522690798635296
sg13
F-112.14660088663788
sg14
I36
sba(imodels.point
Point
p95
(dp96
g12
F40.522690798635296
sg13
F-112.14660088663788
sg14
I37
sba(imodels.point
Point
p97
(dp98
g12
F40.522690798635296
sg13
F-112.14660088663788
sg14
I38
sba(imodels.point
Point
p99
(dp100
g12
F40.522690798635296
sg13
F-112.14660088663788
sg14
I39
sba(imodels.point
Point
p101
(dp102
g12
F40.522690798635296
sg13
F-112.14660088663788
sg14
I40
sba(imodels.point
Point
p103
(dp104
g12
F40.522401756342724
sg13
F-112.14671092504932
sg14
I41
sba(imodels.point
Point
p105
(dp106
g12
F40.522525044644716
sg13
F-112.14753449645366
sg14
I42
sba(imodels.point
Point
p107
(dp108
g12
F40.523236476427776
sg13
F-112.14844135713713
sg14
I43
sba(imodels.point
Point
p109
(dp110
g12
F40.52369853813562
sg13
F-112.14936751670643
sg14
I44
sba(imodels.point
Point
p111
(dp112
g12
F40.52358048094886
sg13
F-112.14984795040118
sg14
I45
sba(imodels.point
Point
p113
(dp114
g12
F40.52305620857581
sg13
F-112.15029911276793
sg14
I46
sba(imodels.point
Point
p115
(dp116
g12
F40.52245009485042
sg13
F-112.15041284938081
sg14
I47
sba(imodels.point
Point
p117
(dp118
g12
F40.52144455481663
sg13
F-112.14980874008938
sg14
I48
sba(imodels.point
Point
p119
(dp120
g12
F40.52144455481663
sg13
F-112.14980874008938
sg14
I49
sba(imodels.point
Point
p121
(dp122
g12
F40.5213016346787
sg13
F-112.15028519197688
sg14
I50
sba(imodels.point
Point
p123
(dp124
g12
F40.52201296357837
sg13
F-112.15144288987375
sg14
I51
sba(imodels.point
Point
p125
(dp126
g12
F40.5223991989187
sg13
F-112.15192519721535
sg14
I52
sba(imodels.point
Point
p127
(dp128
g12
F40.523580598264154
sg13
F-112.15137216886711
sg14
I53
sba(imodels.point
Point
p129
(dp130
g12
F40.523840237856376
sg13
F-112.15156826920315
sg14
I54
sba(imodels.point
Point
p131
(dp132
g12
F40.52377811800151
sg13
F-112.15197736858426
sg14
I55
sba(imodels.point
Point
p133
(dp134
g12
F40.52239060498719
sg13
F-112.15284768290326
sg14
I56
sba(imodels.point
Point
p135
(dp136
g12
F40.52204811588998
sg13
F-112.15288531678806
sg14
I57
sba(imodels.point
Point
p137
(dp138
g12
F40.520300713396445
sg13
F-112.1516675109367
sg14
I58
sba(imodels.point
Point
p139
(dp140
g12
F40.5198868051858
sg13
F-112.15163398332402
sg14
I59
sba(imodels.point
Point
p141
(dp142
g12
F40.51999085755343
sg13
F-112.15231396749118
sg14
I60
sba(imodels.point
Point
p143
(dp144
g12
F40.52102457081804
sg13
F-112.15367113109602
sg14
I61
sba(imodels.point
Point
p145
(dp146
g12
F40.52196651518252
sg13
F-112.15500686116025
sg14
I62
sbasg79
g80
sg81
I1
sg82
g83
sba(imodels.road
Road
p147
(dp148
g8
(lp149
(imodels.point
Point
p150
(dp151
g12
F40.52199302087392
sg13
F-112.1485695595245
sg14
I63
sba(imodels.point
Point
p152
(dp153
g12
F40.52268929737417
sg13
F-112.1483978964535
sg14
I64
sba(imodels.point
Point
p154
(dp155
g12
F40.52345285661486
sg13
F-112.14888069577023
sg14
I65
sbasg79
g80
sg81
I2
sg82
g83
sba(imodels.road
Road
p156
(dp157
g8
(lp158
(imodels.point
Point
p159
(dp160
g12
F40.52239060498719
sg13
F-112.15284768290326
sg14
I66
sba(imodels.point
Point
p161
(dp162
g12
F40.5226281282086
sg13
F-112.15311724145829
sg14
I67
sba(imodels.point
Point
p163
(dp164
g12
F40.523754599861704
sg13
F-112.15259822802483
sg14
I68
sba(imodels.point
Point
p165
(dp166
g12
F40.52387895130079
sg13
F-112.15300591635344
sg14
I69
sba(imodels.point
Point
p167
(dp168
g12
F40.5224649901301
sg13
F-112.15391785781912
sg14
I70
sba(imodels.point
Point
p169
(dp170
g12
F40.52108109681687
sg13
F-112.15296835079641
sg14
I71
sba(imodels.point
Point
p171
(dp172
g12
F40.520300713396445
sg13
F-112.1516675109367
sg14
I72
sbasg79
g80
sg81
I3
sg82
g83
sba(imodels.road
Road
p173
(dp174
g8
(lp175
(imodels.point
Point
p176
(dp177
g12
F40.53062720171753
sg13
F-112.14591685480877
sg14
I73
sba(imodels.point
Point
p178
(dp179
g12
F40.53105432014323
sg13
F-112.14738744003029
sg14
I74
sba(imodels.point
Point
p180
(dp181
g12
F40.53127343080907
sg13
F-112.15153489693762
sg14
I75
sba(imodels.point
Point
p182
(dp183
g12
F40.530417151348395
sg13
F-112.15297189238458
sg14
I76
sba(imodels.point
Point
p184
(dp185
g12
F40.52595648401059
sg13
F-112.1545160579335
sg14
I77
sba(imodels.point
Point
p186
(dp187
g12
F40.52294721878397
sg13
F-112.15614411778256
sg14
I78
sbasg79
g80
sg81
I4
sg82
g83
sba(imodels.road
Road
p188
(dp189
g8
(lp190
(imodels.point
Point
p191
(dp192
g12
F40.52876182355014
sg13
F-112.14954320139691
sg14
I79
sba(imodels.point
Point
p193
(dp194
g12
F40.528383625142695
sg13
F-112.15034251342354
sg14
I80
sba(imodels.point
Point
p195
(dp196
g12
F40.527597683697266
sg13
F-112.15038007082154
sg14
I81
sba(imodels.point
Point
p197
(dp198
g12
F40.523840237856376
sg13
F-112.15156826920315
sg14
I82
sbasg79
g80
sg81
I5
sg82
g83
sba(imodels.road
Road
p199
(dp200
g8
(lp201
(imodels.point
Point
p202
(dp203
g12
F40.52266284555888
sg13
F-112.15109951390832
sg14
I83
sba(imodels.point
Point
p204
(dp205
g12
F40.52222904690337
sg13
F-112.15097983410101
sg14
I84
sba(imodels.point
Point
p206
(dp207
g12
F40.521600289092895
sg13
F-112.15016361369356
sg14
I85
sba(imodels.point
Point
p208
(dp209
g12
F40.52144455481663
sg13
F-112.14980874008938
sg14
I86
sbasg79
g80
sg81
I6
sg82
g83
sba(imodels.road
Road
p210
(dp211
g8
(lp212
(imodels.point
Point
p213
(dp214
g12
F40.52406145192949
sg13
F-112.14723784274861
sg14
I87
sba(imodels.point
Point
p215
(dp216
g12
F40.52503778607846
sg13
F-112.14760965944618
sg14
I88
sba(imodels.point
Point
p217
(dp218
g12
F40.525849994573086
sg13
F-112.1480257423629
sg14
I89
sba(imodels.point
Point
p219
(dp220
g12
F40.525908608790786
sg13
F-112.14826781586851
sg14
I90
sba(imodels.point
Point
p221
(dp222
g12
F40.52505944774498
sg13
F-112.1482852548599
sg14
I91
sba(imodels.point
Point
p223
(dp224
g12
F40.523770911584855
sg13
F-112.14899067669228
sg14
I92
sba(imodels.point
Point
p225
(dp226
g12
F40.52369853813562
sg13
F-112.14936751670643
sg14
I93
sbasg79
g80
sg81
I7
sg82
g83
sba(imodels.road
Road
p227
(dp228
g8
(lp229
(imodels.point
Point
p230
(dp231
g12
F40.52960991448731
sg13
F-112.14773539252087
sg14
I94
sba(imodels.point
Point
p232
(dp233
g12
F40.53002936641421
sg13
F-112.14985069036732
sg14
I95
sba(imodels.point
Point
p234
(dp235
g12
F40.52937238411766
sg13
F-112.15080726847532
sg14
I96
sba(imodels.point
Point
p236
(dp237
g12
F40.52827708825454
sg13
F-112.15161898771271
sg14
I97
sba(imodels.point
Point
p238
(dp239
g12
F40.52754659020056
sg13
F-112.15193456723233
sg14
I98
sba(imodels.point
Point
p240
(dp241
g12
F40.52671822875951
sg13
F-112.15303333533564
sg14
I99
sba(imodels.point
Point
p242
(dp243
g12
F40.525151201835214
sg13
F-112.15401847356003
sg14
I100
sba(imodels.point
Point
p244
(dp245
g12
F40.524900429038105
sg13
F-112.15478156110925
sg14
I101
sba(imodels.point
Point
p246
(dp247
g12
F40.52443965494404
sg13
F-112.15533945507809
sg14
I102
sbasg79
g80
sg81
I8
sg82
g83
sba(imodels.road
Road
p248
(dp249
g8
(lp250
(imodels.point
Point
p251
(dp252
g12
F40.518991694454094
sg13
F-112.15212080426022
sg14
I103
sba(imodels.point
Point
p253
(dp254
g12
F40.519245792442035
sg13
F-112.1533225862911
sg14
I104
sba(imodels.point
Point
p255
(dp256
g12
F40.519877475942195
sg13
F-112.15487298680534
sg14
I105
sba(imodels.point
Point
p257
(dp258
g12
F40.51994047554273
sg13
F-112.1555516364524
sg14
I106
sba(imodels.point
Point
p259
(dp260
g12
F40.52022072529596
sg13
F-112.1557085714515
sg14
I107
sba(imodels.point
Point
p261
(dp262
g12
F40.52006316199804
sg13
F-112.1561893718432
sg14
I108
sba(imodels.point
Point
p263
(dp264
g12
F40.519889282781556
sg13
F-112.1570778643424
sg14
I109
sba(imodels.point
Point
p265
(dp266
g12
F40.519697181358865
sg13
F-112.15714458174511
sg14
I110
sba(imodels.point
Point
p267
(dp268
g12
F40.519697181358865
sg13
F-112.15714458174511
sg14
I111
sba(imodels.point
Point
p269
(dp270
g12
F40.51985360720397
sg13
F-112.15769711880858
sg14
I112
sba(imodels.point
Point
p271
(dp272
g12
F40.52033422442912
sg13
F-112.15743158337494
sg14
I113
sba(imodels.point
Point
p273
(dp274
g12
F40.521332156169606
sg13
F-112.1563962555399
sg14
I114
sba(imodels.point
Point
p275
(dp276
g12
F40.52196600270872
sg13
F-112.15605829755253
sg14
I115
sba(imodels.point
Point
p277
(dp278
g12
F40.521979767580525
sg13
F-112.15566132940194
sg14
I116
sba(imodels.point
Point
p279
(dp280
g12
F40.52196651518252
sg13
F-112.15500686116025
sg14
I117
sbasg79
g80
sg81
I9
sg82
g83
sba(imodels.road
Road
p281
(dp282
g8
(lp283
(imodels.point
Point
p284
(dp285
g12
F40.518991694454094
sg13
F-112.15212080426022
sg14
I118
sba(imodels.point
Point
p286
(dp287
g12
F40.51882860152375
sg13
F-112.15250166522429
sg14
I119
sba(imodels.point
Point
p288
(dp289
g12
F40.519697181358865
sg13
F-112.15714458174511
sg14
I120
sbasg79
g80
sg81
I10
sg82
g83
sba(imodels.road
Road
p290
(dp291
g8
(lp292
(imodels.point
Point
p293
(dp294
g12
F40.51952590776382
sg13
F-112.14713725991055
sg14
I121
sba(imodels.point
Point
p295
(dp296
g12
F40.5192792223195
sg13
F-112.14700053644839
sg14
I122
sba(imodels.point
Point
p297
(dp298
g12
F40.518862269185945
sg13
F-112.14784948551801
sg14
I123
sba(imodels.point
Point
p299
(dp300
g12
F40.51865378394097
sg13
F-112.14797353538222
sg14
I124
sba(imodels.point
Point
p301
(dp302
g12
F40.51756673417712
sg13
F-112.14983263492104
sg14
I125
sba(imodels.point
Point
p303
(dp304
g12
F40.51711290753156
sg13
F-112.15228565021403
sg14
I126
sba(imodels.point
Point
p305
(dp306
g12
F40.517122510265644
sg13
F-112.15331366397902
sg14
I127
sba(imodels.point
Point
p307
(dp308
g12
F40.5167446895738
sg13
F-112.15372476525113
sg14
I128
sbasg79
g80
sg81
I11
sg82
g83
sba(imodels.road
Road
p309
(dp310
g8
(lp311
(imodels.point
Point
p312
(dp313
g12
F40.53019297078088
sg13
F-112.14367184586331
sg14
I129
sba(imodels.point
Point
p314
(dp315
g12
F40.528067561722764
sg13
F-112.14214828710544
sg14
I130
sba(imodels.point
Point
p316
(dp317
g12
F40.52560778799078
sg13
F-112.14102178593572
sg14
I131
sba(imodels.point
Point
p318
(dp319
g12
F40.524452280723104
sg13
F-112.14027479428802
sg14
I132
sba(imodels.point
Point
p320
(dp321
g12
F40.522791142637054
sg13
F-112.14019300788948
sg14
I133
sba(imodels.point
Point
p322
(dp323
g12
F40.520529070040396
sg13
F-112.14105938451621
sg14
I134
sba(imodels.point
Point
p324
(dp325
g12
F40.51919151519808
sg13
F-112.14201155848309
sg14
I135
sbasg79
g80
sg81
I12
sg82
g83
sba(imodels.road
Road
p326
(dp327
g8
(lp328
(imodels.point
Point
p329
(dp330
g12
F40.51967883063745
sg13
F-112.14999783582493
sg14
I136
sba(imodels.point
Point
p331
(dp332
g12
F40.51938419908192
sg13
F-112.15045850678587
sg14
I137
sba(imodels.point
Point
p333
(dp334
g12
F40.519030435813804
sg13
F-112.15059865197139
sg14
I138
sba(imodels.point
Point
p335
(dp336
g12
F40.519089564731466
sg13
F-112.15094331622777
sg14
I139
sbasg79
g80
sg81
I13
sg82
g83
sba(imodels.road
Road
p337
(dp338
g8
(lp339
(imodels.point
Point
p340
(dp341
g12
F40.52359965398034
sg13
F-112.1546206230621
sg14
I140
sba(imodels.point
Point
p342
(dp343
g12
F40.52308178440836
sg13
F-112.15494785501107
sg14
I141
sba(imodels.point
Point
p344
(dp345
g12
F40.5229309078227
sg13
F-112.15563986248776
sg14
I142
sbasg79
g80
sg81
I14
sg82
g83
sba(imodels.road
Road
p346
(dp347
g8
(lp348
(imodels.point
Point
p349
(dp350
g12
F40.5198868051858
sg13
F-112.15163398332402
sg14
I143
sba(imodels.point
Point
p351
(dp352
g12
F40.51964416685738
sg13
F-112.15076226431802
sg14
I144
sba(imodels.point
Point
p353
(dp354
g12
F40.519089564731466
sg13
F-112.15094331622777
sg14
I145
sba(imodels.point
Point
p355
(dp356
g12
F40.51908548882387
sg13
F-112.15185392575552
sg14
I146
sba(imodels.point
Point
p357
(dp358
g12
F40.518991694454094
sg13
F-112.15212080426022
sg14
I147
sbasg79
g80
sg81
I15
sg82
g83
sba(imodels.road
Road
p359
(dp360
g8
(lp361
(imodels.point
Point
p362
(dp363
g12
F40.5272837547989
sg13
F-112.13899407334134
sg14
I148
sba(imodels.point
Point
p364
(dp365
g12
F40.528013668947594
sg13
F-112.13682424128115
sg14
I149
sba(imodels.point
Point
p366
(dp367
g12
F40.52832970483428
sg13
F-112.13688600231217
sg14
I150
sba(imodels.point
Point
p368
(dp369
g12
F40.528875990263
sg13
F-112.13703606076047
sg14
I151
sba(imodels.point
Point
p370
(dp371
g12
F40.52916482143234
sg13
F-112.13673211798874
sg14
I152
sba(imodels.point
Point
p372
(dp373
g12
F40.52911718686249
sg13
F-112.13621074106612
sg14
I153
sba(imodels.point
Point
p374
(dp375
g12
F40.52804815496961
sg13
F-112.13505368111299
sg14
I154
sba(imodels.point
Point
p376
(dp377
g12
F40.527766933963264
sg13
F-112.13397834248349
sg14
I155
sba(imodels.point
Point
p378
(dp379
g12
F40.527495276494996
sg13
F-112.13205314204737
sg14
I156
sba(imodels.point
Point
p380
(dp381
g12
F40.527054501154055
sg13
F-112.1309194388196
sg14
I157
sba(imodels.point
Point
p382
(dp383
g12
F40.52740945859946
sg13
F-112.13075611618962
sg14
I158
sba(imodels.point
Point
p384
(dp385
g12
F40.52837694513573
sg13
F-112.1321577141282
sg14
I159
sba(imodels.point
Point
p386
(dp387
g12
F40.5288257442967
sg13
F-112.13363866790462
sg14
I160
sba(imodels.point
Point
p388
(dp389
g12
F40.5291277486565
sg13
F-112.134196953203
sg14
I161
sba(imodels.point
Point
p390
(dp391
g12
F40.52953604428945
sg13
F-112.13400461025049
sg14
I162
sba(imodels.point
Point
p392
(dp393
g12
F40.529410781839964
sg13
F-112.13327242958962
sg14
I163
sba(imodels.point
Point
p394
(dp395
g12
F40.52893480762052
sg13
F-112.12887637205426
sg14
I164
sba(imodels.point
Point
p396
(dp397
g12
F40.52891140962279
sg13
F-112.12787330848664
sg14
I165
sba(imodels.point
Point
p398
(dp399
g12
F40.52933651991315
sg13
F-112.1279538565513
sg14
I166
sba(imodels.point
Point
p400
(dp401
g12
F40.53075038373261
sg13
F-112.13160035411443
sg14
I167
sba(imodels.point
Point
p402
(dp403
g12
F40.531379340915265
sg13
F-112.13140329368042
sg14
I168
sba(imodels.point
Point
p404
(dp405
g12
F40.53116047444245
sg13
F-112.12850476403491
sg14
I169
sba(imodels.point
Point
p406
(dp407
g12
F40.530778467845444
sg13
F-112.126566486902
sg14
I170
sba(imodels.point
Point
p408
(dp409
g12
F40.529745322754735
sg13
F-112.12517905680045
sg14
I171
sba(imodels.point
Point
p410
(dp411
g12
F40.52746676529191
sg13
F-112.12498634116253
sg14
I172
sba(imodels.point
Point
p412
(dp413
g12
F40.52499248936342
sg13
F-112.12524423432808
sg14
I173
sba(imodels.point
Point
p414
(dp415
g12
F40.52442654336232
sg13
F-112.12470820352326
sg14
I174
sba(imodels.point
Point
p416
(dp417
g12
F40.52178811121781
sg13
F-112.12502244658276
sg14
I175
sba(imodels.point
Point
p418
(dp419
g12
F40.52179587005564
sg13
F-112.12731354130256
sg14
I176
sba(imodels.point
Point
p420
(dp421
g12
F40.52138128720112
sg13
F-112.12869095919694
sg14
I177
sba(imodels.point
Point
p422
(dp423
g12
F40.52101036609054
sg13
F-112.12959490597905
sg14
I178
sba(imodels.point
Point
p424
(dp425
g12
F40.520606816772116
sg13
F-112.1302654914814
sg14
I179
sba(imodels.point
Point
p426
(dp427
g12
F40.51674876769078
sg13
F-112.13403198666379
sg14
I180
sba(imodels.point
Point
p428
(dp429
g12
F40.51243249665109
sg13
F-112.1367471021897
sg14
I181
sba(imodels.point
Point
p430
(dp431
g12
F40.512000467432195
sg13
F-112.13856695319538
sg14
I182
sba(imodels.point
Point
p432
(dp433
g12
F40.51129108105971
sg13
F-112.14017219832942
sg14
I183
sba(imodels.point
Point
p434
(dp435
g12
F40.51067978686863
sg13
F-112.14300713381647
sg14
I184
sba(imodels.point
Point
p436
(dp437
g12
F40.51030492650342
sg13
F-112.14973657685601
sg14
I185
sba(imodels.point
Point
p438
(dp439
g12
F40.51024793425604
sg13
F-112.15380523152157
sg14
I186
sbasg79
g80
sg81
I16
sg82
g83
sba(imodels.road
Road
p440
(dp441
g8
(lp442
(imodels.point
Point
p443
(dp444
g12
F40.529357119273065
sg13
F-112.14197132534787
sg14
I187
sba(imodels.point
Point
p445
(dp446
g12
F40.526362112063275
sg13
F-112.14034315782186
sg14
I188
sba(imodels.point
Point
p447
(dp448
g12
F40.52547622695672
sg13
F-112.13941646928743
sg14
I189
sba(imodels.point
Point
p449
(dp450
g12
F40.52456587015929
sg13
F-112.13865073597219
sg14
I190
sba(imodels.point
Point
p451
(dp452
g12
F40.523901227580545
sg13
F-112.13921402058872
sg14
I191
sba(imodels.point
Point
p453
(dp454
g12
F40.52284920562756
sg13
F-112.13894582837514
sg14
I192
sba(imodels.point
Point
p455
(dp456
g12
F40.52196333372621
sg13
F-112.13930995935533
sg14
I193
sba(imodels.point
Point
p457
(dp458
g12
F40.520930657625264
sg13
F-112.14018905667513
sg14
I194
sba(imodels.point
Point
p459
(dp460
g12
F40.51919151519808
sg13
F-112.14201155848309
sg14
I195
sbasg79
g80
sg81
I17
sg82
g83
sba(imodels.road
Road
p461
(dp462
g8
(lp463
(imodels.point
Point
p464
(dp465
g12
F40.51867768922455
sg13
F-112.13214907593533
sg14
I196
sba(imodels.point
Point
p466
(dp467
g12
F40.51797233977931
sg13
F-112.13263221671065
sg14
I197
sba(imodels.point
Point
p468
(dp469
g12
F40.51722613443143
sg13
F-112.13269675223654
sg14
I198
sba(imodels.point
Point
p470
(dp471
g12
F40.51543389498886
sg13
F-112.13385560637846
sg14
I199
sba(imodels.point
Point
p472
(dp473
g12
F40.51283825158735
sg13
F-112.1338931895906
sg14
I200
sba(imodels.point
Point
p474
(dp475
g12
F40.51002629012335
sg13
F-112.14165802303148
sg14
I201
sba(imodels.point
Point
p476
(dp477
g12
F40.50937149461206
sg13
F-112.1428325575697
sg14
I202
sba(imodels.point
Point
p478
(dp479
g12
F40.50912571625677
sg13
F-112.14476031939245
sg14
I203
sba(imodels.point
Point
p480
(dp481
g12
F40.50917764580214
sg13
F-112.14644667718045
sg14
I204
sba(imodels.point
Point
p482
(dp483
g12
F40.50971492414702
sg13
F-112.14944999585163
sg14
I205
sba(imodels.point
Point
p484
(dp485
g12
F40.51024793425604
sg13
F-112.15380523152157
sg14
I206
sbasg79
g80
sg81
I18
sg82
g83
sba(imodels.road
Road
p486
(dp487
g8
(lp488
(imodels.point
Point
p489
(dp490
g12
F40.52451305258641
sg13
F-112.10572931713864
sg14
I207
sba(imodels.point
Point
p491
(dp492
g12
F40.52164425657388
sg13
F-112.10358071762755
sg14
I208
sba(imodels.point
Point
p493
(dp494
g12
F40.519509323799085
sg13
F-112.10610984562408
sg14
I209
sba(imodels.point
Point
p495
(dp496
g12
F40.518287894584915
sg13
F-112.10799523381002
sg14
I210
sba(imodels.point
Point
p497
(dp498
g12
F40.517621027480764
sg13
F-112.11082469316898
sg14
I211
sba(imodels.point
Point
p499
(dp500
g12
F40.51477419983338
sg13
F-112.11488943557771
sg14
I212
sba(imodels.point
Point
p501
(dp502
g12
F40.515406038498405
sg13
F-112.1153125812076
sg14
I213
sba(imodels.point
Point
p503
(dp504
g12
F40.51815851620562
sg13
F-112.1130320132711
sg14
I214
sba(imodels.point
Point
p505
(dp506
g12
F40.518774095442225
sg13
F-112.1160729723614
sg14
I215
sba(imodels.point
Point
p507
(dp508
g12
F40.52045206150102
sg13
F-112.11581249781193
sg14
I216
sba(imodels.point
Point
p509
(dp510
g12
F40.52115132628771
sg13
F-112.11647471004926
sg14
I217
sba(imodels.point
Point
p511
(dp512
g12
F40.519315730673064
sg13
F-112.1193272777935
sg14
I218
sba(imodels.point
Point
p513
(dp514
g12
F40.51732132085282
sg13
F-112.11881157833085
sg14
I219
sba(imodels.point
Point
p515
(dp516
g12
F40.516014176059926
sg13
F-112.11972316613736
sg14
I220
sba(imodels.point
Point
p517
(dp518
g12
F40.515587904925745
sg13
F-112.12052744340207
sg14
I221
sba(imodels.point
Point
p519
(dp520
g12
F40.51616673729683
sg13
F-112.12066083791603
sg14
I222
sba(imodels.point
Point
p521
(dp522
g12
F40.5174143845541
sg13
F-112.1200861232387
sg14
I223
sba(imodels.point
Point
p523
(dp524
g12
F40.51818055924393
sg13
F-112.12116831018704
sg14
I224
sba(imodels.point
Point
p525
(dp526
g12
F40.51964639323057
sg13
F-112.1235982408096
sg14
I225
sba(imodels.point
Point
p527
(dp528
g12
F40.52152110103793
sg13
F-112.1237189052091
sg14
I226
sba(imodels.point
Point
p529
(dp530
g12
F40.52178811121781
sg13
F-112.12502244658276
sg14
I227
sbasg79
g80
sg81
I19
sg82
g83
sba(imodels.road
Road
p531
(dp532
g8
(lp533
(imodels.point
Point
p534
(dp535
g12
F40.519897
sg13
F-112.14847299999997
sg14
I228
sba(imodels.point
Point
p536
(dp537
g12
F40.519897
sg13
F-112.14847299999997
sg14
I229
sbasg79
g80
sg81
I20
sg82
g83
sba(imodels.road
Road
p538
(dp539
g8
(lp540
(imodels.point
Point
p541
(dp542
g12
F40.51290707153489
sg13
F-112.14024398274228
sg14
I230
sba(imodels.point
Point
p543
(dp544
g12
F40.51310284647761
sg13
F-112.1382324030725
sg14
I231
sba(imodels.point
Point
p545
(dp546
g12
F40.51513382802257
sg13
F-112.13631731772568
sg14
I232
sba(imodels.point
Point
p547
(dp548
g12
F40.51674876769078
sg13
F-112.13403198666379
sg14
I233
sbasg79
g80
sg81
I21
sg82
g83
sba(imodels.road
Road
p549
(dp550
g8
(lp551
(imodels.point
Point
p552
(dp553
g12
F40.52430101473363
sg13
F-112.13355991787716
sg14
I234
sba(imodels.point
Point
p554
(dp555
g12
F40.525175647691775
sg13
F-112.13218660632606
sg14
I235
sba(imodels.point
Point
p556
(dp557
g12
F40.52720015727784
sg13
F-112.13470788709247
sg14
I236
sba(imodels.point
Point
p558
(dp559
g12
F40.527766933963264
sg13
F-112.13397834248349
sg14
I237
sbasg79
g80
sg81
I22
sg82
g83
sba(imodels.road
Road
p560
(dp561
g8
(lp562
(imodels.point
Point
p563
(dp564
g12
F40.53168320699514
sg13
F-112.14108619637295
sg14
I238
sba(imodels.point
Point
p565
(dp566
g12
F40.53152929205798
sg13
F-112.14053094217684
sg14
I239
sba(imodels.point
Point
p567
(dp568
g12
F40.53073142988414
sg13
F-112.13919317066586
sg14
I240
sba(imodels.point
Point
p569
(dp570
g12
F40.53012926029443
sg13
F-112.13780178348395
sg14
I241
sba(imodels.point
Point
p571
(dp572
g12
F40.52945165509868
sg13
F-112.13736795724333
sg14
I242
sba(imodels.point
Point
p573
(dp574
g12
F40.5290251923612
sg13
F-112.13749168686275
sg14
I243
sba(imodels.point
Point
p575
(dp576
g12
F40.528626439476795
sg13
F-112.1374677219352
sg14
I244
sba(imodels.point
Point
p577
(dp578
g12
F40.528875990263
sg13
F-112.13703606076047
sg14
I245
sbasg79
g80
sg81
I23
sg82
g83
sbasS'locations'
p579
(lp580
sbsS'machines'
p581
(lp582
(imodels.machine
Loader
p583
(dp584
S'weightCapacity'
p585
I20
sS'tasks'
p586
(lp587
sS'weight'
p588
I10000
sS'point'
p589
g87
sS'speed'
p590
I40
sS'isAvailable'
p591
I01
sS'loadCapacity'
p592
I10
sS'fuelConsumption'
p593
I10
sS'model'
p594
S'TRX'
p595
sS'fuelCapacity'
p596
I800
sg81
I0
sba(imodels.machine
Loader
p597
(dp598
g585
I20
sg586
(lp599
sg588
I10000
sg589
g87
sg590
I40
sg591
I01
sg592
I10
sg593
I10
sg594
g595
sg596
I800
sg81
I1
sba(imodels.machine
Loader
p600
(dp601
g585
I20
sg586
(lp602
sg588
I10000
sg589
g87
sg590
I40
sg591
I01
sg592
I10
sg593
I10
sg594
g595
sg596
I800
sg81
I2
sba(imodels.machine
Loader
p603
(dp604
g585
I20
sg586
(lp605
sg588
I10000
sg589
g87
sg590
I40
sg591
I01
sg592
I10
sg593
I10
sg594
g595
sg596
I800
sg81
I3
sba(imodels.machine
Loader
p606
(dp607
g585
I20
sg586
(lp608
sg588
I10000
sg589
g87
sg590
I40
sg591
I01
sg592
I10
sg593
I10
sg594
g595
sg596
I800
sg81
I4
sba(imodels.machine
Loader
p609
(dp610
g585
I20
sg586
(lp611
sg588
I10000
sg589
g87
sg590
I40
sg591
I01
sg592
I10
sg593
I10
sg594
g595
sg596
I800
sg81
I5
sba(imodels.machine
Loader
p612
(dp613
g585
I20
sg586
(lp614
sg588
I10000
sg589
g87
sg590
I40
sg591
I01
sg592
I10
sg593
I10
sg594
g595
sg596
I800
sg81
I6
sba(imodels.machine
Loader
p615
(dp616
g585
I20
sg586
(lp617
sg588
I10000
sg589
g87
sg590
I40
sg591
I01
sg592
I10
sg593
I10
sg594
g595
sg596
I800
sg81
I7
sba(imodels.machine
Loader
p618
(dp619
g585
I20
sg586
(lp620
sg588
I10000
sg589
g87
sg590
I40
sg591
I01
sg592
I10
sg593
I10
sg594
g595
sg596
I800
sg81
I8
sba(imodels.machine
Loader
p621
(dp622
g585
I20
sg586
(lp623
sg588
I10000
sg589
g87
sg590
I40
sg591
I01
sg592
I10
sg593
I10
sg594
g595
sg596
I800
sg81
I9
sba(imodels.machine
Loader
p624
(dp625
g585
I20
sg586
(lp626
sg588
I10000
sg589
g87
sg590
I40
sg591
I01
sg592
I10
sg593
I10
sg594
g595
sg596
I800
sg81
I10
sba(imodels.machine
Loader
p627
(dp628
g585
I20
sg586
(lp629
sg588
I10000
sg589
g87
sg590
I40
sg591
I01
sg592
I10
sg593
I10
sg594
g595
sg596
I800
sg81
I11
sba(imodels.machine
Loader
p630
(dp631
g585
I20
sg586
(lp632
sg588
I10000
sg589
g87
sg590
I40
sg591
I01
sg592
I10
sg593
I10
sg594
g595
sg596
I800
sg81
I12
sba(imodels.machine
Loader
p633
(dp634
g585
I20
sg586
(lp635
sg588
I10000
sg589
g87
sg590
I40
sg591
I01
sg592
I10
sg593
I10
sg594
g595
sg596
I800
sg81
I13
sba(imodels.machine
Loader
p636
(dp637
g585
I20
sg586
(lp638
sg588
I10000
sg589
g87
sg590
I40
sg591
I01
sg592
I10
sg593
I10
sg594
g595
sg596
I800
sg81
I14
sba(imodels.machine
Loader
p639
(dp640
g585
I20
sg586
(lp641
sg588
I10000
sg589
g87
sg590
I40
sg591
I01
sg592
I10
sg593
I10
sg594
g595
sg596
I800
sg81
I15
sba(imodels.machine
Loader
p642
(dp643
g585
I20
sg586
(lp644
sg588
I10000
sg589
g87
sg590
I40
sg591
I01
sg592
I10
sg593
I10
sg594
g595
sg596
I800
sg81
I16
sba(imodels.machine
Loader
p645
(dp646
g585
I20
sg586
(lp647
sg588
I10000
sg589
g87
sg590
I40
sg591
I01
sg592
I10
sg593
I10
sg594
g595
sg596
I800
sg81
I17
sba(imodels.machine
Loader
p648
(dp649
g585
I20
sg586
(lp650
sg588
I10000
sg589
g87
sg590
I40
sg591
I01
sg592
I10
sg593
I10
sg594
g595
sg596
I800
sg81
I18
sba(imodels.machine
Loader
p651
(dp652
g585
I20
sg586
(lp653
sg588
I10000
sg589
g87
sg590
I40
sg591
I01
sg592
I10
sg593
I10
sg594
g595
sg596
I800
sg81
I19
sba(imodels.machine
Shovel
p654
(dp655
g586
(lp656
sS'power'
p657
I50
sg588
I10000
sg589
g10
sg590
I40
sg591
I01
sg593
I10
sS'digRate'
p658
I20
sg594
S'ZXF'
p659
sg596
I800
sg81
I20
sba(imodels.machine
Shovel
p660
(dp661
g586
(lp662
sg657
I50
sg588
I10000
sg589
g10
sg590
I40
sg591
I01
sg593
I10
sg658
I20
sg594
g659
sg596
I800
sg81
I21
sba(imodels.machine
Shovel
p663
(dp664
g586
(lp665
sg657
I50
sg588
I10000
sg589
g10
sg590
I40
sg591
I01
sg593
I10
sg658
I20
sg594
g659
sg596
I800
sg81
I22
sba(imodels.machine
Shovel
p666
(dp667
g586
(lp668
sg657
I50
sg588
I10000
sg589
g10
sg590
I40
sg591
I01
sg593
I10
sg658
I20
sg594
g659
sg596
I800
sg81
I23
sba(imodels.machine
Shovel
p669
(dp670
g586
(lp671
sg657
I50
sg588
I10000
sg589
g10
sg590
I40
sg591
I01
sg593
I10
sg658
I20
sg594
g659
sg596
I800
sg81
I24
sba(imodels.machine
Shovel
p672
(dp673
g586
(lp674
sg657
I50
sg588
I10000
sg589
g10
sg590
I40
sg591
I01
sg593
I10
sg658
I20
sg594
g659
sg596
I800
sg81
I25
sba(imodels.machine
Shovel
p675
(dp676
g586
(lp677
sg657
I50
sg588
I10000
sg589
g10
sg590
I40
sg591
I01
sg593
I10
sg658
I20
sg594
g659
sg596
I800
sg81
I26
sba(imodels.machine
Shovel
p678
(dp679
g586
(lp680
sg657
I50
sg588
I10000
sg589
g10
sg590
I40
sg591
I01
sg593
I10
sg658
I20
sg594
g659
sg596
I800
sg81
I27
sba(imodels.machine
Shovel
p681
(dp682
g586
(lp683
sg657
I50
sg588
I10000
sg589
g10
sg590
I40
sg591
I01
sg593
I10
sg658
I20
sg594
g659
sg596
I800
sg81
I28
sba(imodels.machine
Shovel
p684
(dp685
g586
(lp686
sg657
I50
sg588
I10000
sg589
g10
sg590
I40
sg591
I01
sg593
I10
sg658
I20
sg594
g659
sg596
I800
sg81
I29
sba(imodels.machine
Shovel
p687
(dp688
g586
(lp689
sg657
I50
sg588
I10000
sg589
g10
sg590
I40
sg591
I01
sg593
I10
sg658
I20
sg594
g659
sg596
I800
sg81
I30
sba(imodels.machine
Shovel
p690
(dp691
g586
(lp692
sg657
I50
sg588
I10000
sg589
g10
sg590
I40
sg591
I01
sg593
I10
sg658
I20
sg594
g659
sg596
I800
sg81
I31
sba(imodels.machine
Shovel
p693
(dp694
g586
(lp695
sg657
I50
sg588
I10000
sg589
g10
sg590
I40
sg591
I01
sg593
I10
sg658
I20
sg594
g659
sg596
I800
sg81
I32
sba(imodels.machine
Shovel
p696
(dp697
g586
(lp698
sg657
I50
sg588
I10000
sg589
g10
sg590
I40
sg591
I01
sg593
I10
sg658
I20
sg594
g659
sg596
I800
sg81
I33
sba(imodels.machine
Shovel
p699
(dp700
g586
(lp701
sg657
I50
sg588
I10000
sg589
g10
sg590
I40
sg591
I01
sg593
I10
sg658
I20
sg594
g659
sg596
I800
sg81
I34
sba(imodels.machine
Shovel
p702
(dp703
g586
(lp704
sg657
I50
sg588
I10000
sg589
g10
sg590
I40
sg591
I01
sg593
I10
sg658
I20
sg594
g659
sg596
I800
sg81
I35
sba(imodels.machine
Shovel
p705
(dp706
g586
(lp707
sg657
I50
sg588
I10000
sg589
g10
sg590
I40
sg591
I01
sg593
I10
sg658
I20
sg594
g659
sg596
I800
sg81
I36
sba(imodels.machine
Shovel
p708
(dp709
g586
(lp710
sg657
I50
sg588
I10000
sg589
g10
sg590
I40
sg591
I01
sg593
I10
sg658
I20
sg594
g659
sg596
I800
sg81
I37
sba(imodels.machine
Shovel
p711
(dp712
g586
(lp713
sg657
I50
sg588
I10000
sg589
g10
sg590
I40
sg591
I01
sg593
I10
sg658
I20
sg594
g659
sg596
I800
sg81
I38
sba(imodels.machine
Shovel
p714
(dp715
g586
(lp716
sg657
I50
sg588
I10000
sg589
g10
sg590
I40
sg591
I01
sg593
I10
sg658
I20
sg594
g659
sg596
I800
sg81
I39
sba(imodels.machine
Truck
p717
(dp718
g585
I400
sg586
(lp719
sg588
I10000
sg589
g150
sg590
I40
sg591
I01
sg592
I500
sg593
I10
sg594
S'TRK1'
p720
sg596
I800
sg81
I40
sba(imodels.machine
Truck
p721
(dp722
g585
I400
sg586
(lp723
sg588
I10000
sg589
g150
sg590
I40
sg591
I01
sg592
I500
sg593
I10
sg594
g720
sg596
I800
sg81
I41
sba(imodels.machine
Truck
p724
(dp725
g585
I400
sg586
(lp726
sg588
I10000
sg589
g150
sg590
I40
sg591
I01
sg592
I500
sg593
I10
sg594
g720
sg596
I800
sg81
I42
sba(imodels.machine
Truck
p727
(dp728
g585
I400
sg586
(lp729
sg588
I10000
sg589
g150
sg590
I40
sg591
I01
sg592
I500
sg593
I10
sg594
g720
sg596
I800
sg81
I43
sba(imodels.machine
Truck
p730
(dp731
g585
I400
sg586
(lp732
sg588
I10000
sg589
g150
sg590
I40
sg591
I01
sg592
I500
sg593
I10
sg594
g720
sg596
I800
sg81
I44
sba(imodels.machine
Truck
p733
(dp734
g585
I400
sg586
(lp735
sg588
I10000
sg589
g150
sg590
I40
sg591
I01
sg592
I500
sg593
I10
sg594
g720
sg596
I800
sg81
I45
sba(imodels.machine
Truck
p736
(dp737
g585
I400
sg586
(lp738
sg588
I10000
sg589
g150
sg590
I40
sg591
I01
sg592
I500
sg593
I10
sg594
g720
sg596
I800
sg81
I46
sba(imodels.machine
Truck
p739
(dp740
g585
I400
sg586
(lp741
sg588
I10000
sg589
g150
sg590
I40
sg591
I01
sg592
I500
sg593
I10
sg594
g720
sg596
I800
sg81
I47
sba(imodels.machine
Truck
p742
(dp743
g585
I400
sg586
(lp744
sg588
I10000
sg589
g150
sg590
I40
sg591
I01
sg592
I500
sg593
I10
sg594
g720
sg596
I800
sg81
I48
sba(imodels.machine
Truck
p745
(dp746
g585
I400
sg586
(lp747
sg588
I10000
sg589
g150
sg590
I40
sg591
I01
sg592
I500
sg593
I10
sg594
g720
sg596
I800
sg81
I49
sbas.