(dp0
S'missions'
p1
(lp2
(imodels.mission
Mission
p3
(dp4
S'startDate'
p5
cdatetime
datetime
p6
(S'\x07\xe1\x05\x01\x00\x00\x00\x00\x00\x00'
p7
tp8
Rp9
sS'endDate'
p10
g6
(S'\x07\xe1\x05\x02\x00\x00\x00\x00\x00\x00'
p11
tp12
Rp13
sS'target'
p14
I10000
sS'title'
p15
S'New mission'
p16
sS'location'
p17
(imodels.point
Point
p18
(dp19
S'lat'
p20
F40.52503778607846
sS'index'
p21
I2
sS'lng'
p22
F-112.14760965944618
sS'nid'
p23
I90
sbsS'schedules'
p24
(lp25
(imodels.schedule
Schedule
p26
(dp27
S'date'
p28
g6
(S'\x07\xe1\x05\x01\x00\x00\x00\x00\x00\x00'
p29
tp30
Rp31
sS'endTime'
p32
g6
(S'\x07\xe1\x05\x01\x15\x00\x00\x00\x00\x00'
p33
tp34
Rp35
sg17
g18
sS'startTime'
p36
g6
(S'\x07\xe1\x05\x01\t\x00\x00\x00\x00\x00'
p37
tp38
Rp39
sS'tasks'
p40
(lp41
(imodels.task
DigTask
p42
(dp43
S'power'
p44
I100
sS'comments'
p45
S'Dig all day'
p46
sS'amount'
p47
I10000
sg17
g18
sg36
g39
sg32
g35
sba(imodels.task
LoadTask
p48
(dp49
S'material'
p50
I100
sg45
S'Loader'
p51
sg47
I10000
sg17
g18
sg36
g39
sg32
g35
sba(imodels.task
HaulageTask
p52
(dp53
g50
I100
sg45
S'Haul all day'
p54
sg47
I1666
sS'dumpLocation'
p55
(imodels.point
Point
p56
(dp57
g20
F40.523840237856376
sg21
I4
sg22
F-112.15156826920315
sg23
I84
sbsg17
g18
sg36
g6
(S'\x07\xe1\x05\x01\t\x00\x00\x00\x00\x00'
p58
tp59
Rp60
sg32
g6
(S'\x07\xe1\x05\x01\x0b\x00\x00\x00\x00\x00'
p61
tp62
Rp63
sba(imodels.task
HaulageTask
p64
(dp65
g50
I100
sg45
g54
sg47
I1666
sg55
g56
sg17
g18
sg36
g6
(S'\x07\xe1\x05\x01\x0b\x00\x00\x00\x00\x00'
p66
tp67
Rp68
sg32
g6
(S'\x07\xe1\x05\x01\r\x00\x00\x00\x00\x00'
p69
tp70
Rp71
sba(imodels.task
HaulageTask
p72
(dp73
g50
I100
sg45
g54
sg47
I1666
sg55
g56
sg17
g18
sg36
g6
(S'\x07\xe1\x05\x01\r\x00\x00\x00\x00\x00'
p74
tp75
Rp76
sg32
g6
(S'\x07\xe1\x05\x01\x0f\x00\x00\x00\x00\x00'
p77
tp78
Rp79
sba(imodels.task
HaulageTask
p80
(dp81
g50
I100
sg45
g54
sg47
I1666
sg55
g56
sg17
g18
sg36
g6
(S'\x07\xe1\x05\x01\x0f\x00\x00\x00\x00\x00'
p82
tp83
Rp84
sg32
g6
(S'\x07\xe1\x05\x01\x11\x00\x00\x00\x00\x00'
p85
tp86
Rp87
sba(imodels.task
HaulageTask
p88
(dp89
g50
I100
sg45
g54
sg47
I1666
sg55
g56
sg17
g18
sg36
g6
(S'\x07\xe1\x05\x01\x11\x00\x00\x00\x00\x00'
p90
tp91
Rp92
sg32
g6
(S'\x07\xe1\x05\x01\x13\x00\x00\x00\x00\x00'
p93
tp94
Rp95
sba(imodels.task
HaulageTask
p96
(dp97
g50
I100
sg45
g54
sg47
I1666
sg55
g56
sg17
g18
sg36
g6
(S'\x07\xe1\x05\x01\x13\x00\x00\x00\x00\x00'
p98
tp99
Rp100
sg32
g6
(S'\x07\xe1\x05\x01\x15\x00\x00\x00\x00\x00'
p101
tp102
Rp103
sbasbasbasS'machines'
p104
(lp105
(imodels.machine
Loader
p106
(dp107
S'model'
p108
S'TRX'
p109
sS'weightCapacity'
p110
I28
sg40
(lp111
sS'staticFuelConsupmtion'
p112
I6
sS'weight'
p113
I10000
sS'speed'
p114
I28
sS'loadCapacity'
p115
I10
sg17
(imodels.point
Point
p116
(dp117
g20
F40.5229309078227
sg21
I3
sg22
F-112.15563986248776
sg23
I144
sbsS'fuelConsumption'
p118
I12
sS'isAvailable'
p119
I01
sS'fuelCapacity'
p120
I854
sS'id'
p121
I0
sba(imodels.machine
Loader
p122
(dp123
g108
g109
sg110
I25
sg40
(lp124
sg112
I4
sg113
I10000
sg114
I26
sg115
I10
sg17
(imodels.point
Point
p125
(dp126
g20
F40.51967883063745
sg21
I1
sg22
F-112.14999783582493
sg23
I138
sbsg118
I9
sg119
I01
sg120
I626
sg121
I1
sba(imodels.machine
Loader
p127
(dp128
g108
g109
sg110
I37
sg40
(lp129
sg112
I6
sg113
I10000
sg114
I25
sg115
I10
sg17
(imodels.point
Point
p130
(dp131
g20
F40.527597683697266
sg21
I3
sg22
F-112.15038007082154
sg23
I83
sbsg118
I10
sg119
I01
sg120
I663
sg121
I2
sba(imodels.machine
Loader
p132
(dp133
g108
g109
sg110
I24
sg40
(lp134
sg112
I6
sg113
I10000
sg114
I25
sg115
I10
sg17
(imodels.point
Point
p135
(dp136
g20
F40.52827708825454
sg21
I4
sg22
F-112.15161898771271
sg23
I99
sbsg118
I12
sg119
I01
sg120
I757
sg121
I3
sba(imodels.machine
Loader
p137
(dp138
g108
g109
sg110
I27
sg40
(lp139
sg112
I6
sg113
I10000
sg114
I28
sg115
I10
sg17
(imodels.point
Point
p140
(dp141
g20
F40.52945165509868
sg21
I5
sg22
F-112.13736795724333
sg23
I242
sbsg118
I10
sg119
I01
sg120
I630
sg121
I4
sba(imodels.machine
Shovel
p142
(dp143
g108
S'ZXF'
p144
sg40
(lp145
sg112
I10
sg44
I50
sg113
I10000
sg114
I15
sg17
(imodels.point
Point
p146
(dp147
g20
F40.51797233977931
sg21
I2
sg22
F-112.13263221671065
sg23
I199
sbsg118
I17
sS'digRate'
p148
I59
sg119
I01
sg120
I1146
sg121
I5
sba(imodels.machine
Shovel
p149
(dp150
g108
g144
sg40
(lp151
sg112
I10
sg44
I50
sg113
I10000
sg114
I17
sg17
(imodels.point
Point
p152
(dp153
g20
F40.5224649901301
sg21
I5
sg22
F-112.15391785781912
sg23
I71
sbsg118
I16
sg148
I47
sg119
I01
sg120
I977
sg121
I6
sba(imodels.machine
Shovel
p154
(dp155
g108
g144
sg40
(lp156
sg112
I12
sg44
I50
sg113
I10000
sg114
I17
sg17
(imodels.point
Point
p157
(dp158
g20
F40.528067561722764
sg21
I2
sg22
F-112.14214828710544
sg23
I132
sbsg118
I17
sg148
I44
sg119
I01
sg120
I1394
sg121
I7
sba(imodels.machine
Shovel
p159
(dp160
g108
g144
sg40
(lp161
sg112
I9
sg44
I50
sg113
I10000
sg114
I22
sg17
(imodels.point
Point
p162
(dp163
g20
F40.52876182355014
sg21
I1
sg22
F-112.14954320139691
sg23
I81
sbsg118
I17
sg148
I49
sg119
I01
sg120
I1195
sg121
I8
sba(imodels.machine
Shovel
p164
(dp165
g108
g144
sg40
(lp166
sg112
I8
sg44
I50
sg113
I10000
sg114
I15
sg17
(imodels.point
Point
p167
(dp168
g20
F40.53019297078088
sg21
I1
sg22
F-112.14367184586331
sg23
I131
sbsg118
I17
sg148
I64
sg119
I01
sg120
I856
sg121
I9
sba(imodels.machine
Truck
p169
(dp170
g108
S'TRK1'
p171
sg110
I456
sg40
(lp172
sg112
I1
sg113
I10000
sg114
I43
sg115
I500
sg17
g157
sg118
I7
sg119
I01
sg120
I562
sg121
I10
sba(imodels.machine
Truck
p173
(dp174
g108
g171
sg110
I695
sg40
(lp175
sg112
I1
sg113
I10000
sg114
I51
sg115
I500
sg17
(imodels.point
Point
p176
(dp177
g20
F40.51882860152375
sg21
I2
sg22
F-112.15250166522429
sg23
I121
sbsg118
I9
sg119
I01
sg120
I734
sg121
I11
sba(imodels.machine
Truck
p178
(dp179
g108
g171
sg110
I706
sg40
(lp180
sg112
I1
sg113
I10000
sg114
I51
sg115
I500
sg17
(imodels.point
Point
p181
(dp182
g20
F40.51964416685738
sg21
I2
sg22
F-112.15076226431802
sg23
I146
sbsg118
I6
sg119
I01
sg120
I622
sg121
I12
sba(imodels.machine
Truck
p183
(dp184
g108
g171
sg110
I462
sg40
(lp185
sg112
I1
sg113
I10000
sg114
I49
sg115
I500
sg17
(imodels.point
Point
p186
(dp187
g20
F40.52345285661486
sg21
I3
sg22
F-112.14888069577023
sg23
I66
sbsg118
I8
sg119
I01
sg120
I654
sg121
I13
sba(imodels.machine
Truck
p188
(dp189
g108
g171
sg110
I583
sg40
(lp190
sg112
I1
sg113
I10000
sg114
I44
sg115
I500
sg17
(imodels.point
Point
p191
(dp192
g20
F40.52179587005564
sg21
I29
sg22
F-112.12731354130256
sg23
I178
sbsg118
I10
sg119
I01
sg120
I541
sg121
I14
sba(imodels.machine
Truck
p193
(dp194
g108
g171
sg110
I432
sg40
(lp195
sg112
I1
sg113
I10000
sg114
I40
sg115
I500
sg17
(imodels.point
Point
p196
(dp197
g20
F40.53127343080907
sg21
I3
sg22
F-112.15153489693762
sg23
I76
sbsg118
I6
sg119
I01
sg120
I521
sg121
I15
sba(imodels.machine
Truck
p198
(dp199
g108
g171
sg110
I565
sg40
(lp200
sg112
I1
sg113
I10000
sg114
I59
sg115
I500
sg17
(imodels.point
Point
p201
(dp202
g20
F40.525175647691775
sg21
I2
sg22
F-112.13218660632606
sg23
I235
sbsg118
I9
sg119
I01
sg120
I826
sg121
I16
sba(imodels.machine
Truck
p203
(dp204
g108
g171
sg110
I719
sg40
(lp205
sg112
I1
sg113
I10000
sg114
I49
sg115
I500
sg17
(imodels.point
Point
p206
(dp207
g20
F40.527766933963264
sg21
I4
sg22
F-112.13397834248349
sg23
I237
sbsg118
I10
sg119
I01
sg120
I785
sg121
I17
sba(imodels.machine
Truck
p208
(dp209
g108
g171
sg110
I408
sg40
(lp210
sg112
I1
sg113
I10000
sg114
I41
sg115
I500
sg17
g186
sg118
I10
sg119
I01
sg120
I671
sg121
I18
sba(imodels.machine
Truck
p211
(dp212
g108
g171
sg110
I759
sg40
(lp213
sg112
I1
sg113
I10000
sg114
I48
sg115
I500
sg17
(imodels.point
Point
p214
(dp215
g20
F40.526362112063275
sg21
I2
sg22
F-112.14034315782186
sg23
I190
sbsg118
I10
sg119
I01
sg120
I567
sg121
I19
sbas.