(dp0
S'missions'
p1
(lp2
(imodels.mission
Mission
p3
(dp4
S'startDate'
p5
cdatetime
datetime
p6
(S'\x07\xe1\x05\x01\x00\x00\x00\x00\x00\x00'
p7
tp8
Rp9
sS'dumpLocations'
p10
(lp11
(imodels.locations
Location
p12
(dp13
S'location'
p14
(imodels.point
Point
p15
(dp16
S'lat'
p17
F40.51644169101281
sS'index'
p18
I21
sS'lng'
p19
F-112.14704507776895
sS'nid'
p20
I21
sbsS'type'
p21
S'dump'
p22
sS'id'
p23
I5
sS'name'
p24
S'Dump5'
p25
sba(imodels.locations
Location
p26
(dp27
g14
(imodels.point
Point
p28
(dp29
g17
F40.519697181358865
sg18
I8
sg19
F-112.15714458174511
sg20
I112
sbsg21
g22
sg23
I6
sg24
S'Dump6'
p30
sba(imodels.locations
Location
p31
(dp32
g14
(imodels.point
Point
p33
(dp34
g17
F40.520300713396445
sg18
I7
sg19
F-112.1516675109367
sg20
I73
sbsg21
g22
sg23
I7
sg24
S'Dump7'
p35
sba(imodels.locations
Location
p36
(dp37
g14
(imodels.point
Point
p38
(dp39
g17
F40.523236476427776
sg18
I11
sg19
F-112.14844135713713
sg20
I44
sbsg21
g22
sg23
I8
sg24
S'Dump8'
p40
sba(imodels.locations
Location
p41
(dp42
g14
(imodels.point
Point
p43
(dp44
g17
F40.52266284555888
sg18
I1
sg19
F-112.15109951390832
sg20
I85
sbsg21
g22
sg23
I9
sg24
S'Dump9'
p45
sbasS'endDate'
p46
g6
(S'\x07\xe1\x05\x0b\x00\x00\x00\x00\x00\x00'
p47
tp48
Rp49
sS'target'
p50
I500000
sS'title'
p51
S'New mission'
p52
sS'numDays'
p53
I10
sS'schedules'
p54
(lp55
sS'digLocation'
p56
(imodels.locations
Location
p57
(dp58
g14
(imodels.point
Point
p59
(dp60
g17
F40.5229309078227
sg18
I3
sg19
F-112.15563986248776
sg20
I144
sbsg21
S'dig'
p61
sg23
I2
sg24
S'Site2'
p62
sbsbasS'machines'
p63
(lp64
(imodels.machine
Shovel
p65
(dp66
S'weightCapacity'
p67
I48
sS'tasks'
p68
(lp69
sS'weight'
p70
I1581
sS'speed'
p71
I16
sS'staticFuelConsumption'
p72
I118
sS'isAvailable'
p73
I01
sg14
(imodels.point
Point
p74
(dp75
g17
F40.51024793425604
sg18
I39
sg19
F-112.15380523152157
sg20
I188
sbsS'fuelConsumption'
p76
I174
sS'model'
p77
S'SHV0'
p78
sS'fuelCapacity'
p79
I8608
sg23
I0
sba(imodels.machine
Shovel
p80
(dp81
g67
I82
sg68
(lp82
sg70
I1458
sg71
I18
sg72
I93
sg73
I01
sg14
(imodels.point
Point
p83
(dp84
g17
F40.522791142637054
sg18
I5
sg19
F-112.14019300788948
sg20
I135
sbsg76
I198
sg77
S'SHV1'
p85
sg79
I11703
sg23
I1
sba(imodels.machine
Shovel
p86
(dp87
g67
I113
sg68
(lp88
sg70
I1605
sg71
I15
sg72
I96
sg73
I01
sg14
(imodels.point
Point
p89
(dp90
g17
F40.52220498100684
sg18
I3
sg19
F-112.14396165032576
sg20
I3
sbsg76
I174
sg77
S'SHV2'
p91
sg79
I8469
sg23
I2
sba(imodels.machine
Shovel
p92
(dp93
g67
I23
sg68
(lp94
sg70
I1455
sg71
I16
sg72
I93
sg73
I01
sg14
(imodels.point
Point
p95
(dp96
g17
F40.52369853813562
sg18
I7
sg19
F-112.14936751670643
sg20
I95
sbsg76
I167
sg77
S'SHV3'
p97
sg79
I11071
sg23
I3
sba(imodels.machine
Shovel
p98
(dp99
g67
I81
sg68
(lp100
sg70
I1699
sg71
I17
sg72
I81
sg73
I01
sg14
(imodels.point
Point
p101
(dp102
g17
F40.530417151348395
sg18
I4
sg19
F-112.15297189238458
sg20
I77
sbsg76
I155
sg77
S'SHV4'
p103
sg79
I8381
sg23
I4
sba(imodels.machine
Loader
p104
(dp105
g67
I46
sg68
(lp106
sg70
I368172
sg71
I43
sg72
I108
sg73
I01
sg14
(imodels.point
Point
p107
(dp108
g17
F40.51967883063745
sg18
I1
sg19
F-112.14999783582493
sg20
I138
sbsg76
I154
sg77
S'LOD5'
p109
sg79
I10514
sg23
I5
sba(imodels.machine
Loader
p110
(dp111
g67
I53
sg68
(lp112
sg70
I392043
sg71
I46
sg72
I112
sg73
I01
sg14
g107
sg76
I172
sg77
S'LOD6'
p113
sg79
I9155
sg23
I6
sba(imodels.machine
Loader
p114
(dp115
g67
I38
sg68
(lp116
sg70
I366468
sg71
I48
sg72
I80
sg73
I01
sg14
(imodels.point
Point
p117
(dp118
g17
F40.523580598264154
sg18
I21
sg19
F-112.15137216886711
sg20
I54
sbsg76
I180
sg77
S'LOD7'
p119
sg79
I8597
sg23
I7
sba(imodels.machine
Loader
p120
(dp121
g67
I45
sg68
(lp122
sg70
I388443
sg71
I40
sg72
I88
sg73
I01
sg14
(imodels.point
Point
p123
(dp124
g17
F40.52108109681687
sg18
I6
sg19
F-112.15296835079641
sg20
I72
sbsg76
I181
sg77
S'LOD8'
p125
sg79
I11007
sg23
I8
sba(imodels.machine
Loader
p126
(dp127
g67
I60
sg68
(lp128
sg70
I368415
sg71
I41
sg72
I89
sg73
I01
sg14
(imodels.point
Point
p129
(dp130
g17
F40.518991694454094
sg18
I1
sg19
F-112.15212080426022
sg20
I105
sbsg76
I196
sg77
S'LOD9'
p131
sg79
I10006
sg23
I9
sba(imodels.machine
Truck
p132
(dp133
g67
I360
sg68
(lp134
sg70
I368
sg71
I50
sg72
I117
sg73
I01
sg14
(imodels.point
Point
p135
(dp136
g17
F40.5342905309938
sg18
I33
sg19
F-112.14583370632931
sg20
I33
sbsg76
I195
sg77
S'TRK10'
p137
sg79
I9166
sg23
I10
sba(imodels.machine
Truck
p138
(dp139
g67
I310
sg68
(lp140
sg70
I338
sg71
I41
sg72
I84
sg73
I01
sg14
g28
sg76
I159
sg77
S'TRK11'
p141
sg79
I9009
sg23
I11
sba(imodels.machine
Truck
p142
(dp143
g67
I301
sg68
(lp144
sg70
I353
sg71
I48
sg72
I105
sg73
I01
sg14
(imodels.point
Point
p145
(dp146
g17
F40.524834484111594
sg18
I28
sg19
F-112.13767230456722
sg20
I28
sbsg76
I197
sg77
S'TRK12'
p147
sg79
I8647
sg23
I12
sba(imodels.machine
Truck
p148
(dp149
g67
I337
sg68
(lp150
sg70
I397
sg71
I42
sg72
I109
sg73
I01
sg14
(imodels.point
Point
p151
(dp152
g17
F40.52359965398034
sg18
I1
sg19
F-112.1546206230621
sg20
I142
sbsg76
I164
sg77
S'TRK13'
p153
sg79
I11569
sg23
I13
sba(imodels.machine
Truck
p154
(dp155
g67
I366
sg68
(lp156
sg70
I355
sg71
I43
sg72
I113
sg73
I01
sg14
(imodels.point
Point
p157
(dp158
g17
F40.51882860152375
sg18
I2
sg19
F-112.15250166522429
sg20
I121
sbsg76
I159
sg77
S'TRK14'
p159
sg79
I9320
sg23
I14
sba(imodels.machine
Truck
p160
(dp161
g67
I308
sg68
(lp162
sg70
I266
sg71
I40
sg72
I114
sg73
I01
sg14
g107
sg76
I161
sg77
S'TRK15'
p163
sg79
I9884
sg23
I15
sba(imodels.machine
Truck
p164
(dp165
g67
I352
sg68
(lp166
sg70
I348
sg71
I42
sg72
I82
sg73
I01
sg14
(imodels.point
Point
p167
(dp168
g17
F40.523754599861704
sg18
I3
sg19
F-112.15259822802483
sg20
I69
sbsg76
I158
sg77
S'TRK16'
p169
sg79
I10080
sg23
I16
sba(imodels.machine
Truck
p170
(dp171
g67
I324
sg68
(lp172
sg70
I375
sg71
I45
sg72
I88
sg73
I01
sg14
(imodels.point
Point
p173
(dp174
g17
F40.53012926029443
sg18
I4
sg19
F-112.13780178348395
sg20
I241
sbsg76
I165
sg77
S'TRK17'
p175
sg79
I10429
sg23
I17
sba(imodels.machine
Truck
p176
(dp177
g67
I343
sg68
(lp178
sg70
I364
sg71
I43
sg72
I90
sg73
I01
sg14
(imodels.point
Point
p179
(dp180
g17
F40.52062271585255
sg18
I14
sg19
F-112.15972248580744
sg20
I14
sbsg76
I155
sg77
S'TRK18'
p181
sg79
I10435
sg23
I18
sba(imodels.machine
Truck
p182
(dp183
g67
I303
sg68
(lp184
sg70
I342
sg71
I43
sg72
I90
sg73
I01
sg14
(imodels.point
Point
p185
(dp186
g17
F40.50917764580214
sg18
I9
sg19
F-112.14644667718045
sg20
I206
sbsg76
I162
sg77
S'TRK19'
p187
sg79
I10025
sg23
I19
sbasS'locations'
p188
(lp189
(imodels.locations
Location
p190
(dp191
g14
(imodels.point
Point
p192
(dp193
g17
F40.521332156169606
sg18
I12
sg19
F-112.1563962555399
sg20
I116
sbsg21
g61
sg23
I0
sg24
S'Site0'
p194
sba(imodels.locations
Location
p195
(dp196
g14
g173
sg21
g61
sg23
I1
sg24
S'Site1'
p197
sbag57
a(imodels.locations
Location
p198
(dp199
g14
(imodels.point
Point
p200
(dp201
g17
F40.524900429038105
sg18
I8
sg19
F-112.15478156110925
sg20
I103
sbsg21
g61
sg23
I3
sg24
S'Site3'
p202
sba(imodels.locations
Location
p203
(dp204
g14
g157
sg21
g61
sg23
I4
sg24
S'Site4'
p205
sbag12
ag26
ag31
ag36
ag41
a(imodels.locations
Location
p206
(dp207
g14
g192
sg21
S'fuel'
p208
sg23
I10
sg24
S'Fuel10'
p209
sba(imodels.locations
Location
p210
(dp211
g14
(imodels.point
Point
p212
(dp213
g17
F40.525908608790786
sg18
I4
sg19
F-112.14826781586851
sg20
I92
sbsg21
g208
sg23
I11
sg24
S'Fuel11'
p214
sbas.