(dp0
S'missions'
p1
(lp2
(imodels.mission
Mission
p3
(dp4
S'startDate'
p5
cdatetime
datetime
p6
(S'\x07\xe1\x05\x01\x00\x00\x00\x00\x00\x00'
p7
tp8
Rp9
sS'endDate'
p10
g6
(S'\x07\xe1\x05\n\x00\x00\x00\x00\x00\x00'
p11
tp12
Rp13
sS'target'
p14
I10000
sS'title'
p15
S'New mission'
p16
sS'location'
p17
(imodels.point
Point
p18
(dp19
S'lat'
p20
F40.519089564731466
sS'index'
p21
I3
sS'lng'
p22
F-112.15094331622777
sS'nid'
p23
I146
sbsS'schedules'
p24
(lp25
(imodels.schedule
Schedule
p26
(dp27
S'date'
p28
g6
(S'\x07\xe1\x05\x01\x00\x00\x00\x00\x00\x00'
p29
tp30
Rp31
sS'endTime'
p32
g6
(S'\x07\xe1\x05\x01\x15\x00\x00\x00\x00\x00'
p33
tp34
Rp35
sg17
g18
sS'startTime'
p36
g6
(S'\x07\xe1\x05\x01\t\x00\x00\x00\x00\x00'
p37
tp38
Rp39
sS'tasks'
p40
(lp41
(imodels.task
DigTask
p42
(dp43
S'power'
p44
I100
sS'comments'
p45
S'Dig all day'
p46
sS'amount'
p47
I1111
sg17
g18
sg36
g39
sg32
g35
sba(imodels.task
LoadTask
p48
(dp49
S'material'
p50
I100
sg45
S'Loader'
p51
sg47
I1111
sg17
g18
sg36
g39
sg32
g35
sba(imodels.task
HaulageTask
p52
(dp53
g50
I100
sg45
S'Haul all day'
p54
sg47
I185
sS'dumpLocation'
p55
(imodels.point
Point
p56
(dp57
g20
F40.5229309078227
sg21
I3
sg22
F-112.15563986248776
sg23
I143
sbsg17
g18
sg36
g6
(S'\x07\xe1\x05\x01\t\x00\x00\x00\x00\x00'
p58
tp59
Rp60
sg32
g6
(S'\x07\xe1\x05\x01\x0b\x00\x00\x00\x00\x00'
p61
tp62
Rp63
sba(imodels.task
HaulageTask
p64
(dp65
g50
I100
sg45
g54
sg47
I185
sg55
g56
sg17
g18
sg36
g6
(S'\x07\xe1\x05\x01\x0b\x00\x00\x00\x00\x00'
p66
tp67
Rp68
sg32
g6
(S'\x07\xe1\x05\x01\r\x00\x00\x00\x00\x00'
p69
tp70
Rp71
sba(imodels.task
HaulageTask
p72
(dp73
g50
I100
sg45
g54
sg47
I185
sg55
g56
sg17
g18
sg36
g6
(S'\x07\xe1\x05\x01\r\x00\x00\x00\x00\x00'
p74
tp75
Rp76
sg32
g6
(S'\x07\xe1\x05\x01\x0f\x00\x00\x00\x00\x00'
p77
tp78
Rp79
sba(imodels.task
HaulageTask
p80
(dp81
g50
I100
sg45
g54
sg47
I185
sg55
g56
sg17
g18
sg36
g6
(S'\x07\xe1\x05\x01\x0f\x00\x00\x00\x00\x00'
p82
tp83
Rp84
sg32
g6
(S'\x07\xe1\x05\x01\x11\x00\x00\x00\x00\x00'
p85
tp86
Rp87
sba(imodels.task
HaulageTask
p88
(dp89
g50
I100
sg45
g54
sg47
I185
sg55
g56
sg17
g18
sg36
g6
(S'\x07\xe1\x05\x01\x11\x00\x00\x00\x00\x00'
p90
tp91
Rp92
sg32
g6
(S'\x07\xe1\x05\x01\x13\x00\x00\x00\x00\x00'
p93
tp94
Rp95
sba(imodels.task
HaulageTask
p96
(dp97
g50
I100
sg45
g54
sg47
I185
sg55
g56
sg17
g18
sg36
g6
(S'\x07\xe1\x05\x01\x13\x00\x00\x00\x00\x00'
p98
tp99
Rp100
sg32
g6
(S'\x07\xe1\x05\x01\x15\x00\x00\x00\x00\x00'
p101
tp102
Rp103
sbasba(imodels.schedule
Schedule
p104
(dp105
g28
g6
(S'\x07\xe1\x05\x02\x00\x00\x00\x00\x00\x00'
p106
tp107
Rp108
sg32
g6
(S'\x07\xe1\x05\x02\x15\x00\x00\x00\x00\x00'
p109
tp110
Rp111
sg17
g18
sg36
g6
(S'\x07\xe1\x05\x02\t\x00\x00\x00\x00\x00'
p112
tp113
Rp114
sg40
(lp115
(imodels.task
DigTask
p116
(dp117
g44
I100
sg45
g46
sg47
I1111
sg17
g18
sg36
g114
sg32
g111
sba(imodels.task
LoadTask
p118
(dp119
g50
I100
sg45
g51
sg47
I1111
sg17
g18
sg36
g114
sg32
g111
sba(imodels.task
HaulageTask
p120
(dp121
g50
I100
sg45
g54
sg47
I185
sg55
g56
sg17
g18
sg36
g6
(S'\x07\xe1\x05\x02\t\x00\x00\x00\x00\x00'
p122
tp123
Rp124
sg32
g6
(S'\x07\xe1\x05\x02\x0b\x00\x00\x00\x00\x00'
p125
tp126
Rp127
sba(imodels.task
HaulageTask
p128
(dp129
g50
I100
sg45
g54
sg47
I185
sg55
g56
sg17
g18
sg36
g6
(S'\x07\xe1\x05\x02\x0b\x00\x00\x00\x00\x00'
p130
tp131
Rp132
sg32
g6
(S'\x07\xe1\x05\x02\r\x00\x00\x00\x00\x00'
p133
tp134
Rp135
sba(imodels.task
HaulageTask
p136
(dp137
g50
I100
sg45
g54
sg47
I185
sg55
g56
sg17
g18
sg36
g6
(S'\x07\xe1\x05\x02\r\x00\x00\x00\x00\x00'
p138
tp139
Rp140
sg32
g6
(S'\x07\xe1\x05\x02\x0f\x00\x00\x00\x00\x00'
p141
tp142
Rp143
sba(imodels.task
HaulageTask
p144
(dp145
g50
I100
sg45
g54
sg47
I185
sg55
g56
sg17
g18
sg36
g6
(S'\x07\xe1\x05\x02\x0f\x00\x00\x00\x00\x00'
p146
tp147
Rp148
sg32
g6
(S'\x07\xe1\x05\x02\x11\x00\x00\x00\x00\x00'
p149
tp150
Rp151
sba(imodels.task
HaulageTask
p152
(dp153
g50
I100
sg45
g54
sg47
I185
sg55
g56
sg17
g18
sg36
g6
(S'\x07\xe1\x05\x02\x11\x00\x00\x00\x00\x00'
p154
tp155
Rp156
sg32
g6
(S'\x07\xe1\x05\x02\x13\x00\x00\x00\x00\x00'
p157
tp158
Rp159
sba(imodels.task
HaulageTask
p160
(dp161
g50
I100
sg45
g54
sg47
I185
sg55
g56
sg17
g18
sg36
g6
(S'\x07\xe1\x05\x02\x13\x00\x00\x00\x00\x00'
p162
tp163
Rp164
sg32
g6
(S'\x07\xe1\x05\x02\x15\x00\x00\x00\x00\x00'
p165
tp166
Rp167
sbasba(imodels.schedule
Schedule
p168
(dp169
g28
g6
(S'\x07\xe1\x05\x03\x00\x00\x00\x00\x00\x00'
p170
tp171
Rp172
sg32
g6
(S'\x07\xe1\x05\x03\x15\x00\x00\x00\x00\x00'
p173
tp174
Rp175
sg17
g18
sg36
g6
(S'\x07\xe1\x05\x03\t\x00\x00\x00\x00\x00'
p176
tp177
Rp178
sg40
(lp179
(imodels.task
DigTask
p180
(dp181
g44
I100
sg45
g46
sg47
I1111
sg17
g18
sg36
g178
sg32
g175
sba(imodels.task
LoadTask
p182
(dp183
g50
I100
sg45
g51
sg47
I1111
sg17
g18
sg36
g178
sg32
g175
sba(imodels.task
HaulageTask
p184
(dp185
g50
I100
sg45
g54
sg47
I185
sg55
g56
sg17
g18
sg36
g6
(S'\x07\xe1\x05\x03\t\x00\x00\x00\x00\x00'
p186
tp187
Rp188
sg32
g6
(S'\x07\xe1\x05\x03\x0b\x00\x00\x00\x00\x00'
p189
tp190
Rp191
sba(imodels.task
HaulageTask
p192
(dp193
g50
I100
sg45
g54
sg47
I185
sg55
g56
sg17
g18
sg36
g6
(S'\x07\xe1\x05\x03\x0b\x00\x00\x00\x00\x00'
p194
tp195
Rp196
sg32
g6
(S'\x07\xe1\x05\x03\r\x00\x00\x00\x00\x00'
p197
tp198
Rp199
sba(imodels.task
HaulageTask
p200
(dp201
g50
I100
sg45
g54
sg47
I185
sg55
g56
sg17
g18
sg36
g6
(S'\x07\xe1\x05\x03\r\x00\x00\x00\x00\x00'
p202
tp203
Rp204
sg32
g6
(S'\x07\xe1\x05\x03\x0f\x00\x00\x00\x00\x00'
p205
tp206
Rp207
sba(imodels.task
HaulageTask
p208
(dp209
g50
I100
sg45
g54
sg47
I185
sg55
g56
sg17
g18
sg36
g6
(S'\x07\xe1\x05\x03\x0f\x00\x00\x00\x00\x00'
p210
tp211
Rp212
sg32
g6
(S'\x07\xe1\x05\x03\x11\x00\x00\x00\x00\x00'
p213
tp214
Rp215
sba(imodels.task
HaulageTask
p216
(dp217
g50
I100
sg45
g54
sg47
I185
sg55
g56
sg17
g18
sg36
g6
(S'\x07\xe1\x05\x03\x11\x00\x00\x00\x00\x00'
p218
tp219
Rp220
sg32
g6
(S'\x07\xe1\x05\x03\x13\x00\x00\x00\x00\x00'
p221
tp222
Rp223
sba(imodels.task
HaulageTask
p224
(dp225
g50
I100
sg45
g54
sg47
I185
sg55
g56
sg17
g18
sg36
g6
(S'\x07\xe1\x05\x03\x13\x00\x00\x00\x00\x00'
p226
tp227
Rp228
sg32
g6
(S'\x07\xe1\x05\x03\x15\x00\x00\x00\x00\x00'
p229
tp230
Rp231
sbasba(imodels.schedule
Schedule
p232
(dp233
g28
g6
(S'\x07\xe1\x05\x04\x00\x00\x00\x00\x00\x00'
p234
tp235
Rp236
sg32
g6
(S'\x07\xe1\x05\x04\x15\x00\x00\x00\x00\x00'
p237
tp238
Rp239
sg17
g18
sg36
g6
(S'\x07\xe1\x05\x04\t\x00\x00\x00\x00\x00'
p240
tp241
Rp242
sg40
(lp243
(imodels.task
DigTask
p244
(dp245
g44
I100
sg45
g46
sg47
I1111
sg17
g18
sg36
g242
sg32
g239
sba(imodels.task
LoadTask
p246
(dp247
g50
I100
sg45
g51
sg47
I1111
sg17
g18
sg36
g242
sg32
g239
sba(imodels.task
HaulageTask
p248
(dp249
g50
I100
sg45
g54
sg47
I185
sg55
g56
sg17
g18
sg36
g6
(S'\x07\xe1\x05\x04\t\x00\x00\x00\x00\x00'
p250
tp251
Rp252
sg32
g6
(S'\x07\xe1\x05\x04\x0b\x00\x00\x00\x00\x00'
p253
tp254
Rp255
sba(imodels.task
HaulageTask
p256
(dp257
g50
I100
sg45
g54
sg47
I185
sg55
g56
sg17
g18
sg36
g6
(S'\x07\xe1\x05\x04\x0b\x00\x00\x00\x00\x00'
p258
tp259
Rp260
sg32
g6
(S'\x07\xe1\x05\x04\r\x00\x00\x00\x00\x00'
p261
tp262
Rp263
sba(imodels.task
HaulageTask
p264
(dp265
g50
I100
sg45
g54
sg47
I185
sg55
g56
sg17
g18
sg36
g6
(S'\x07\xe1\x05\x04\r\x00\x00\x00\x00\x00'
p266
tp267
Rp268
sg32
g6
(S'\x07\xe1\x05\x04\x0f\x00\x00\x00\x00\x00'
p269
tp270
Rp271
sba(imodels.task
HaulageTask
p272
(dp273
g50
I100
sg45
g54
sg47
I185
sg55
g56
sg17
g18
sg36
g6
(S'\x07\xe1\x05\x04\x0f\x00\x00\x00\x00\x00'
p274
tp275
Rp276
sg32
g6
(S'\x07\xe1\x05\x04\x11\x00\x00\x00\x00\x00'
p277
tp278
Rp279
sba(imodels.task
HaulageTask
p280
(dp281
g50
I100
sg45
g54
sg47
I185
sg55
g56
sg17
g18
sg36
g6
(S'\x07\xe1\x05\x04\x11\x00\x00\x00\x00\x00'
p282
tp283
Rp284
sg32
g6
(S'\x07\xe1\x05\x04\x13\x00\x00\x00\x00\x00'
p285
tp286
Rp287
sba(imodels.task
HaulageTask
p288
(dp289
g50
I100
sg45
g54
sg47
I185
sg55
g56
sg17
g18
sg36
g6
(S'\x07\xe1\x05\x04\x13\x00\x00\x00\x00\x00'
p290
tp291
Rp292
sg32
g6
(S'\x07\xe1\x05\x04\x15\x00\x00\x00\x00\x00'
p293
tp294
Rp295
sbasba(imodels.schedule
Schedule
p296
(dp297
g28
g6
(S'\x07\xe1\x05\x05\x00\x00\x00\x00\x00\x00'
p298
tp299
Rp300
sg32
g6
(S'\x07\xe1\x05\x05\x15\x00\x00\x00\x00\x00'
p301
tp302
Rp303
sg17
g18
sg36
g6
(S'\x07\xe1\x05\x05\t\x00\x00\x00\x00\x00'
p304
tp305
Rp306
sg40
(lp307
(imodels.task
DigTask
p308
(dp309
g44
I100
sg45
g46
sg47
I1111
sg17
g18
sg36
g306
sg32
g303
sba(imodels.task
LoadTask
p310
(dp311
g50
I100
sg45
g51
sg47
I1111
sg17
g18
sg36
g306
sg32
g303
sba(imodels.task
HaulageTask
p312
(dp313
g50
I100
sg45
g54
sg47
I185
sg55
g56
sg17
g18
sg36
g6
(S'\x07\xe1\x05\x05\t\x00\x00\x00\x00\x00'
p314
tp315
Rp316
sg32
g6
(S'\x07\xe1\x05\x05\x0b\x00\x00\x00\x00\x00'
p317
tp318
Rp319
sba(imodels.task
HaulageTask
p320
(dp321
g50
I100
sg45
g54
sg47
I185
sg55
g56
sg17
g18
sg36
g6
(S'\x07\xe1\x05\x05\x0b\x00\x00\x00\x00\x00'
p322
tp323
Rp324
sg32
g6
(S'\x07\xe1\x05\x05\r\x00\x00\x00\x00\x00'
p325
tp326
Rp327
sba(imodels.task
HaulageTask
p328
(dp329
g50
I100
sg45
g54
sg47
I185
sg55
g56
sg17
g18
sg36
g6
(S'\x07\xe1\x05\x05\r\x00\x00\x00\x00\x00'
p330
tp331
Rp332
sg32
g6
(S'\x07\xe1\x05\x05\x0f\x00\x00\x00\x00\x00'
p333
tp334
Rp335
sba(imodels.task
HaulageTask
p336
(dp337
g50
I100
sg45
g54
sg47
I185
sg55
g56
sg17
g18
sg36
g6
(S'\x07\xe1\x05\x05\x0f\x00\x00\x00\x00\x00'
p338
tp339
Rp340
sg32
g6
(S'\x07\xe1\x05\x05\x11\x00\x00\x00\x00\x00'
p341
tp342
Rp343
sba(imodels.task
HaulageTask
p344
(dp345
g50
I100
sg45
g54
sg47
I185
sg55
g56
sg17
g18
sg36
g6
(S'\x07\xe1\x05\x05\x11\x00\x00\x00\x00\x00'
p346
tp347
Rp348
sg32
g6
(S'\x07\xe1\x05\x05\x13\x00\x00\x00\x00\x00'
p349
tp350
Rp351
sba(imodels.task
HaulageTask
p352
(dp353
g50
I100
sg45
g54
sg47
I185
sg55
g56
sg17
g18
sg36
g6
(S'\x07\xe1\x05\x05\x13\x00\x00\x00\x00\x00'
p354
tp355
Rp356
sg32
g6
(S'\x07\xe1\x05\x05\x15\x00\x00\x00\x00\x00'
p357
tp358
Rp359
sbasba(imodels.schedule
Schedule
p360
(dp361
g28
g6
(S'\x07\xe1\x05\x06\x00\x00\x00\x00\x00\x00'
p362
tp363
Rp364
sg32
g6
(S'\x07\xe1\x05\x06\x15\x00\x00\x00\x00\x00'
p365
tp366
Rp367
sg17
g18
sg36
g6
(S'\x07\xe1\x05\x06\t\x00\x00\x00\x00\x00'
p368
tp369
Rp370
sg40
(lp371
(imodels.task
DigTask
p372
(dp373
g44
I100
sg45
g46
sg47
I1111
sg17
g18
sg36
g370
sg32
g367
sba(imodels.task
LoadTask
p374
(dp375
g50
I100
sg45
g51
sg47
I1111
sg17
g18
sg36
g370
sg32
g367
sba(imodels.task
HaulageTask
p376
(dp377
g50
I100
sg45
g54
sg47
I185
sg55
g56
sg17
g18
sg36
g6
(S'\x07\xe1\x05\x06\t\x00\x00\x00\x00\x00'
p378
tp379
Rp380
sg32
g6
(S'\x07\xe1\x05\x06\x0b\x00\x00\x00\x00\x00'
p381
tp382
Rp383
sba(imodels.task
HaulageTask
p384
(dp385
g50
I100
sg45
g54
sg47
I185
sg55
g56
sg17
g18
sg36
g6
(S'\x07\xe1\x05\x06\x0b\x00\x00\x00\x00\x00'
p386
tp387
Rp388
sg32
g6
(S'\x07\xe1\x05\x06\r\x00\x00\x00\x00\x00'
p389
tp390
Rp391
sba(imodels.task
HaulageTask
p392
(dp393
g50
I100
sg45
g54
sg47
I185
sg55
g56
sg17
g18
sg36
g6
(S'\x07\xe1\x05\x06\r\x00\x00\x00\x00\x00'
p394
tp395
Rp396
sg32
g6
(S'\x07\xe1\x05\x06\x0f\x00\x00\x00\x00\x00'
p397
tp398
Rp399
sba(imodels.task
HaulageTask
p400
(dp401
g50
I100
sg45
g54
sg47
I185
sg55
g56
sg17
g18
sg36
g6
(S'\x07\xe1\x05\x06\x0f\x00\x00\x00\x00\x00'
p402
tp403
Rp404
sg32
g6
(S'\x07\xe1\x05\x06\x11\x00\x00\x00\x00\x00'
p405
tp406
Rp407
sba(imodels.task
HaulageTask
p408
(dp409
g50
I100
sg45
g54
sg47
I185
sg55
g56
sg17
g18
sg36
g6
(S'\x07\xe1\x05\x06\x11\x00\x00\x00\x00\x00'
p410
tp411
Rp412
sg32
g6
(S'\x07\xe1\x05\x06\x13\x00\x00\x00\x00\x00'
p413
tp414
Rp415
sba(imodels.task
HaulageTask
p416
(dp417
g50
I100
sg45
g54
sg47
I185
sg55
g56
sg17
g18
sg36
g6
(S'\x07\xe1\x05\x06\x13\x00\x00\x00\x00\x00'
p418
tp419
Rp420
sg32
g6
(S'\x07\xe1\x05\x06\x15\x00\x00\x00\x00\x00'
p421
tp422
Rp423
sbasba(imodels.schedule
Schedule
p424
(dp425
g28
g6
(S'\x07\xe1\x05\x07\x00\x00\x00\x00\x00\x00'
p426
tp427
Rp428
sg32
g6
(S'\x07\xe1\x05\x07\x15\x00\x00\x00\x00\x00'
p429
tp430
Rp431
sg17
g18
sg36
g6
(S'\x07\xe1\x05\x07\t\x00\x00\x00\x00\x00'
p432
tp433
Rp434
sg40
(lp435
(imodels.task
DigTask
p436
(dp437
g44
I100
sg45
g46
sg47
I1111
sg17
g18
sg36
g434
sg32
g431
sba(imodels.task
LoadTask
p438
(dp439
g50
I100
sg45
g51
sg47
I1111
sg17
g18
sg36
g434
sg32
g431
sba(imodels.task
HaulageTask
p440
(dp441
g50
I100
sg45
g54
sg47
I185
sg55
g56
sg17
g18
sg36
g6
(S'\x07\xe1\x05\x07\t\x00\x00\x00\x00\x00'
p442
tp443
Rp444
sg32
g6
(S'\x07\xe1\x05\x07\x0b\x00\x00\x00\x00\x00'
p445
tp446
Rp447
sba(imodels.task
HaulageTask
p448
(dp449
g50
I100
sg45
g54
sg47
I185
sg55
g56
sg17
g18
sg36
g6
(S'\x07\xe1\x05\x07\x0b\x00\x00\x00\x00\x00'
p450
tp451
Rp452
sg32
g6
(S'\x07\xe1\x05\x07\r\x00\x00\x00\x00\x00'
p453
tp454
Rp455
sba(imodels.task
HaulageTask
p456
(dp457
g50
I100
sg45
g54
sg47
I185
sg55
g56
sg17
g18
sg36
g6
(S'\x07\xe1\x05\x07\r\x00\x00\x00\x00\x00'
p458
tp459
Rp460
sg32
g6
(S'\x07\xe1\x05\x07\x0f\x00\x00\x00\x00\x00'
p461
tp462
Rp463
sba(imodels.task
HaulageTask
p464
(dp465
g50
I100
sg45
g54
sg47
I185
sg55
g56
sg17
g18
sg36
g6
(S'\x07\xe1\x05\x07\x0f\x00\x00\x00\x00\x00'
p466
tp467
Rp468
sg32
g6
(S'\x07\xe1\x05\x07\x11\x00\x00\x00\x00\x00'
p469
tp470
Rp471
sba(imodels.task
HaulageTask
p472
(dp473
g50
I100
sg45
g54
sg47
I185
sg55
g56
sg17
g18
sg36
g6
(S'\x07\xe1\x05\x07\x11\x00\x00\x00\x00\x00'
p474
tp475
Rp476
sg32
g6
(S'\x07\xe1\x05\x07\x13\x00\x00\x00\x00\x00'
p477
tp478
Rp479
sba(imodels.task
HaulageTask
p480
(dp481
g50
I100
sg45
g54
sg47
I185
sg55
g56
sg17
g18
sg36
g6
(S'\x07\xe1\x05\x07\x13\x00\x00\x00\x00\x00'
p482
tp483
Rp484
sg32
g6
(S'\x07\xe1\x05\x07\x15\x00\x00\x00\x00\x00'
p485
tp486
Rp487
sbasba(imodels.schedule
Schedule
p488
(dp489
g28
g6
(S'\x07\xe1\x05\x08\x00\x00\x00\x00\x00\x00'
p490
tp491
Rp492
sg32
g6
(S'\x07\xe1\x05\x08\x15\x00\x00\x00\x00\x00'
p493
tp494
Rp495
sg17
g18
sg36
g6
(S'\x07\xe1\x05\x08\t\x00\x00\x00\x00\x00'
p496
tp497
Rp498
sg40
(lp499
(imodels.task
DigTask
p500
(dp501
g44
I100
sg45
g46
sg47
I1111
sg17
g18
sg36
g498
sg32
g495
sba(imodels.task
LoadTask
p502
(dp503
g50
I100
sg45
g51
sg47
I1111
sg17
g18
sg36
g498
sg32
g495
sba(imodels.task
HaulageTask
p504
(dp505
g50
I100
sg45
g54
sg47
I185
sg55
g56
sg17
g18
sg36
g6
(S'\x07\xe1\x05\x08\t\x00\x00\x00\x00\x00'
p506
tp507
Rp508
sg32
g6
(S'\x07\xe1\x05\x08\x0b\x00\x00\x00\x00\x00'
p509
tp510
Rp511
sba(imodels.task
HaulageTask
p512
(dp513
g50
I100
sg45
g54
sg47
I185
sg55
g56
sg17
g18
sg36
g6
(S'\x07\xe1\x05\x08\x0b\x00\x00\x00\x00\x00'
p514
tp515
Rp516
sg32
g6
(S'\x07\xe1\x05\x08\r\x00\x00\x00\x00\x00'
p517
tp518
Rp519
sba(imodels.task
HaulageTask
p520
(dp521
g50
I100
sg45
g54
sg47
I185
sg55
g56
sg17
g18
sg36
g6
(S'\x07\xe1\x05\x08\r\x00\x00\x00\x00\x00'
p522
tp523
Rp524
sg32
g6
(S'\x07\xe1\x05\x08\x0f\x00\x00\x00\x00\x00'
p525
tp526
Rp527
sba(imodels.task
HaulageTask
p528
(dp529
g50
I100
sg45
g54
sg47
I185
sg55
g56
sg17
g18
sg36
g6
(S'\x07\xe1\x05\x08\x0f\x00\x00\x00\x00\x00'
p530
tp531
Rp532
sg32
g6
(S'\x07\xe1\x05\x08\x11\x00\x00\x00\x00\x00'
p533
tp534
Rp535
sba(imodels.task
HaulageTask
p536
(dp537
g50
I100
sg45
g54
sg47
I185
sg55
g56
sg17
g18
sg36
g6
(S'\x07\xe1\x05\x08\x11\x00\x00\x00\x00\x00'
p538
tp539
Rp540
sg32
g6
(S'\x07\xe1\x05\x08\x13\x00\x00\x00\x00\x00'
p541
tp542
Rp543
sba(imodels.task
HaulageTask
p544
(dp545
g50
I100
sg45
g54
sg47
I185
sg55
g56
sg17
g18
sg36
g6
(S'\x07\xe1\x05\x08\x13\x00\x00\x00\x00\x00'
p546
tp547
Rp548
sg32
g6
(S'\x07\xe1\x05\x08\x15\x00\x00\x00\x00\x00'
p549
tp550
Rp551
sbasba(imodels.schedule
Schedule
p552
(dp553
g28
g6
(S'\x07\xe1\x05\t\x00\x00\x00\x00\x00\x00'
p554
tp555
Rp556
sg32
g6
(S'\x07\xe1\x05\t\x15\x00\x00\x00\x00\x00'
p557
tp558
Rp559
sg17
g18
sg36
g6
(S'\x07\xe1\x05\t\t\x00\x00\x00\x00\x00'
p560
tp561
Rp562
sg40
(lp563
(imodels.task
DigTask
p564
(dp565
g44
I100
sg45
g46
sg47
I1111
sg17
g18
sg36
g562
sg32
g559
sba(imodels.task
LoadTask
p566
(dp567
g50
I100
sg45
g51
sg47
I1111
sg17
g18
sg36
g562
sg32
g559
sba(imodels.task
HaulageTask
p568
(dp569
g50
I100
sg45
g54
sg47
I185
sg55
g56
sg17
g18
sg36
g6
(S'\x07\xe1\x05\t\t\x00\x00\x00\x00\x00'
p570
tp571
Rp572
sg32
g6
(S'\x07\xe1\x05\t\x0b\x00\x00\x00\x00\x00'
p573
tp574
Rp575
sba(imodels.task
HaulageTask
p576
(dp577
g50
I100
sg45
g54
sg47
I185
sg55
g56
sg17
g18
sg36
g6
(S'\x07\xe1\x05\t\x0b\x00\x00\x00\x00\x00'
p578
tp579
Rp580
sg32
g6
(S'\x07\xe1\x05\t\r\x00\x00\x00\x00\x00'
p581
tp582
Rp583
sba(imodels.task
HaulageTask
p584
(dp585
g50
I100
sg45
g54
sg47
I185
sg55
g56
sg17
g18
sg36
g6
(S'\x07\xe1\x05\t\r\x00\x00\x00\x00\x00'
p586
tp587
Rp588
sg32
g6
(S'\x07\xe1\x05\t\x0f\x00\x00\x00\x00\x00'
p589
tp590
Rp591
sba(imodels.task
HaulageTask
p592
(dp593
g50
I100
sg45
g54
sg47
I185
sg55
g56
sg17
g18
sg36
g6
(S'\x07\xe1\x05\t\x0f\x00\x00\x00\x00\x00'
p594
tp595
Rp596
sg32
g6
(S'\x07\xe1\x05\t\x11\x00\x00\x00\x00\x00'
p597
tp598
Rp599
sba(imodels.task
HaulageTask
p600
(dp601
g50
I100
sg45
g54
sg47
I185
sg55
g56
sg17
g18
sg36
g6
(S'\x07\xe1\x05\t\x11\x00\x00\x00\x00\x00'
p602
tp603
Rp604
sg32
g6
(S'\x07\xe1\x05\t\x13\x00\x00\x00\x00\x00'
p605
tp606
Rp607
sba(imodels.task
HaulageTask
p608
(dp609
g50
I100
sg45
g54
sg47
I185
sg55
g56
sg17
g18
sg36
g6
(S'\x07\xe1\x05\t\x13\x00\x00\x00\x00\x00'
p610
tp611
Rp612
sg32
g6
(S'\x07\xe1\x05\t\x15\x00\x00\x00\x00\x00'
p613
tp614
Rp615
sbasbasbasS'machines'
p616
(lp617
(imodels.machine
Loader
p618
(dp619
S'model'
p620
S'TRX'
p621
sS'weightCapacity'
p622
I29
sg40
(lp623
sS'staticFeulConsupmtion'
p624
I5
sS'weight'
p625
I10000
sS'speed'
p626
I26
sS'loadCapacity'
p627
I10
sg17
(imodels.point
Point
p628
(dp629
g20
F40.52196651518252
sg21
I15
sg22
F-112.15500686116025
sg23
I118
sbsS'fuelConsumption'
p630
I11
sS'isAvailable'
p631
I01
sS'fuelCapacity'
p632
I609
sS'id'
p633
I0
sba(imodels.machine
Loader
p634
(dp635
g620
g621
sg622
I24
sg40
(lp636
sg624
I6
sg625
I10000
sg626
I27
sg627
I10
sg17
(imodels.point
Point
p637
(dp638
g20
F40.53075038373261
sg21
I20
sg22
F-112.13160035411443
sg23
I168
sbsg630
I12
sg631
I01
sg632
I644
sg633
I1
sba(imodels.machine
Loader
p639
(dp640
g620
g621
sg622
I40
sg40
(lp641
sg624
I4
sg625
I10000
sg626
I30
sg627
I10
sg17
(imodels.point
Point
p642
(dp643
g20
F40.52115132628771
sg21
I11
sg22
F-112.11647471004926
sg23
I218
sbsg630
I11
sg631
I01
sg632
I721
sg633
I2
sba(imodels.machine
Loader
p644
(dp645
g620
g621
sg622
I38
sg40
(lp646
sg624
I5
sg625
I10000
sg626
I27
sg627
I10
sg17
(imodels.point
Point
p647
(dp648
g20
F40.51994047554273
sg21
I4
sg22
F-112.1555516364524
sg23
I107
sbsg630
I9
sg631
I01
sg632
I843
sg633
I3
sba(imodels.machine
Loader
p649
(dp650
g620
g621
sg622
I36
sg40
(lp651
sg624
I4
sg625
I10000
sg626
I28
sg627
I10
sg17
(imodels.point
Point
p652
(dp653
g20
F40.52294721878397
sg21
I6
sg22
F-112.15614411778256
sg23
I79
sbsg630
I10
sg631
I01
sg632
I831
sg633
I4
sba(imodels.machine
Shovel
p654
(dp655
g620
S'ZXF'
p656
sg40
(lp657
sg624
I10
sg44
I50
sg625
I10000
sg626
I22
sg17
(imodels.point
Point
p658
(dp659
g20
F40.53073142988414
sg21
I3
sg22
F-112.13919317066586
sg23
I241
sbsg630
I16
sS'digRate'
p660
I75
sg631
I01
sg632
I1080
sg633
I5
sba(imodels.machine
Shovel
p661
(dp662
g620
g656
sg40
(lp663
sg624
I8
sg44
I50
sg625
I10000
sg626
I15
sg17
(imodels.point
Point
p664
(dp665
g20
F40.528626439476795
sg21
I7
sg22
F-112.1374677219352
sg23
I245
sbsg630
I20
sg660
I64
sg631
I01
sg632
I1079
sg633
I6
sba(imodels.machine
Shovel
p666
(dp667
g620
g656
sg40
(lp668
sg624
I8
sg44
I50
sg625
I10000
sg626
I18
sg17
(imodels.point
Point
p669
(dp670
g20
F40.52499248936342
sg21
I26
sg22
F-112.12524423432808
sg23
I174
sbsg630
I20
sg660
I64
sg631
I01
sg632
I1468
sg633
I7
sba(imodels.machine
Shovel
p671
(dp672
g620
g656
sg40
(lp673
sg624
I8
sg44
I50
sg625
I10000
sg626
I15
sg17
(imodels.point
Point
p674
(dp675
g20
F40.52503778607846
sg21
I2
sg22
F-112.14760965944618
sg23
I89
sbsg630
I16
sg660
I54
sg631
I01
sg632
I888
sg633
I8
sba(imodels.machine
Shovel
p676
(dp677
g620
g656
sg40
(lp678
sg624
I9
sg44
I50
sg625
I10000
sg626
I16
sg17
(imodels.point
Point
p679
(dp680
g20
F40.5226281282086
sg21
I2
sg22
F-112.15311724145829
sg23
I68
sbsg630
I18
sg660
I75
sg631
I01
sg632
I1241
sg633
I9
sba(imodels.machine
Truck
p681
(dp682
g620
S'TRK1'
p683
sg622
I512
sg40
(lp684
sg624
I1
sg625
I10000
sg626
I45
sg627
I500
sg17
(imodels.point
Point
p685
(dp686
g20
F40.51967883063745
sg21
I1
sg22
F-112.14999783582493
sg23
I137
sbsg630
I10
sg631
I01
sg632
I700
sg633
I10
sba(imodels.machine
Truck
p687
(dp688
g620
g683
sg622
I575
sg40
(lp689
sg624
I1
sg625
I10000
sg626
I46
sg627
I500
sg17
(imodels.point
Point
p690
(dp691
g20
F40.522791142637054
sg21
I5
sg22
F-112.14019300788948
sg23
I134
sbsg630
I9
sg631
I01
sg632
I758
sg633
I11
sba(imodels.machine
Truck
p692
(dp693
g620
g683
sg622
I406
sg40
(lp694
sg624
I1
sg625
I10000
sg626
I53
sg627
I500
sg17
(imodels.point
Point
p695
(dp696
g20
F40.51674876769078
sg21
I4
sg22
F-112.13403198666379
sg23
I234
sbsg630
I8
sg631
I01
sg632
I515
sg633
I12
sba(imodels.machine
Truck
p697
(dp698
g620
g683
sg622
I481
sg40
(lp699
sg624
I1
sg625
I10000
sg626
I55
sg627
I500
sg17
(imodels.point
Point
p700
(dp701
g20
F40.519897
sg21
I2
sg22
F-112.14847299999997
sg23
I230
sbsg630
I10
sg631
I01
sg632
I608
sg633
I13
sba(imodels.machine
Truck
p702
(dp703
g620
g683
sg622
I463
sg40
(lp704
sg624
I1
sg625
I10000
sg626
I51
sg627
I500
sg17
(imodels.point
Point
p705
(dp706
g20
F40.51999085755343
sg21
I28
sg22
F-112.15231396749118
sg23
I61
sbsg630
I9
sg631
I01
sg632
I584
sg633
I14
sba(imodels.machine
Truck
p707
(dp708
g620
g683
sg622
I499
sg40
(lp709
sg624
I1
sg625
I10000
sg626
I53
sg627
I500
sg17
(imodels.point
Point
p710
(dp711
g20
F40.51616673729683
sg21
I16
sg22
F-112.12066083791603
sg23
I223
sbsg630
I9
sg631
I01
sg632
I870
sg633
I15
sba(imodels.machine
Truck
p712
(dp713
g620
g683
sg622
I571
sg40
(lp714
sg624
I1
sg625
I10000
sg626
I45
sg627
I500
sg17
(imodels.point
Point
p715
(dp716
g20
F40.525151201835214
sg21
I7
sg22
F-112.15401847356003
sg23
I101
sbsg630
I8
sg631
I01
sg632
I705
sg633
I16
sba(imodels.machine
Truck
p717
(dp718
g620
g683
sg622
I527
sg40
(lp719
sg624
I1
sg625
I10000
sg626
I40
sg627
I500
sg17
(imodels.point
Point
p720
(dp721
g20
F40.515406038498405
sg21
I7
sg22
F-112.1153125812076
sg23
I214
sbsg630
I9
sg631
I01
sg632
I834
sg633
I17
sba(imodels.machine
Truck
p722
(dp723
g620
g683
sg622
I713
sg40
(lp724
sg624
I1
sg625
I10000
sg626
I43
sg627
I500
sg17
(imodels.point
Point
p725
(dp726
g20
F40.52945165509868
sg21
I5
sg22
F-112.13736795724333
sg23
I243
sbsg630
I8
sg631
I01
sg632
I605
sg633
I18
sba(imodels.machine
Truck
p727
(dp728
g620
g683
sg622
I778
sg40
(lp729
sg624
I1
sg625
I10000
sg626
I57
sg627
I500
sg17
(imodels.point
Point
p730
(dp731
g20
F40.52720015727784
sg21
I3
sg22
F-112.13470788709247
sg23
I237
sbsg630
I6
sg631
I01
sg632
I589
sg633
I19
sbas.