(dp0
S'missions'
p1
(lp2
(imodels.mission
Mission
p3
(dp4
S'startDate'
p5
cdatetime
datetime
p6
(S'\x07\xe1\x05\x01\x00\x00\x00\x00\x00\x00'
p7
tp8
Rp9
sS'endDate'
p10
g6
(S'\x07\xe1\x05\x02\x00\x00\x00\x00\x00\x00'
p11
tp12
Rp13
sS'target'
p14
I10000
sS'title'
p15
S'New mission'
p16
sS'location'
p17
(imodels.point
Point
p18
(dp19
S'lat'
p20
F40.528383625142695
sS'index'
p21
I2
sS'lng'
p22
F-112.15034251342354
sS'nid'
p23
I82
sbsS'schedules'
p24
(lp25
(imodels.schedule
Schedule
p26
(dp27
S'date'
p28
g6
(S'\x07\xe1\x05\x01\x00\x00\x00\x00\x00\x00'
p29
tp30
Rp31
sS'endTime'
p32
g6
(S'\x07\xe1\x05\x01\x15\x00\x00\x00\x00\x00'
p33
tp34
Rp35
sg17
g18
sS'startTime'
p36
g6
(S'\x07\xe1\x05\x01\t\x00\x00\x00\x00\x00'
p37
tp38
Rp39
sS'tasks'
p40
(lp41
(imodels.task
DigTask
p42
(dp43
S'power'
p44
I100
sS'comments'
p45
S'Dig all day'
p46
sS'amount'
p47
I10000
sg17
g18
sg36
g39
sg32
g35
sba(imodels.task
LoadTask
p48
(dp49
S'material'
p50
I100
sg45
S'Loader'
p51
sg47
I10000
sg17
g18
sg36
g39
sg32
g35
sba(imodels.task
HaulageTask
p52
(dp53
g50
I100
sg45
S'Haul all day'
p54
sg47
I1666
sS'dumpLocation'
p55
(imodels.point
Point
p56
(dp57
g20
F40.519030435813804
sg21
I3
sg22
F-112.15059865197139
sg23
I140
sbsg17
g18
sg36
g6
(S'\x07\xe1\x05\x01\t\x00\x00\x00\x00\x00'
p58
tp59
Rp60
sg32
g6
(S'\x07\xe1\x05\x01\x0b\x00\x00\x00\x00\x00'
p61
tp62
Rp63
sba(imodels.task
HaulageTask
p64
(dp65
g50
I100
sg45
g54
sg47
I1666
sg55
g56
sg17
g18
sg36
g6
(S'\x07\xe1\x05\x01\x0b\x00\x00\x00\x00\x00'
p66
tp67
Rp68
sg32
g6
(S'\x07\xe1\x05\x01\r\x00\x00\x00\x00\x00'
p69
tp70
Rp71
sba(imodels.task
HaulageTask
p72
(dp73
g50
I100
sg45
g54
sg47
I1666
sg55
g56
sg17
g18
sg36
g6
(S'\x07\xe1\x05\x01\r\x00\x00\x00\x00\x00'
p74
tp75
Rp76
sg32
g6
(S'\x07\xe1\x05\x01\x0f\x00\x00\x00\x00\x00'
p77
tp78
Rp79
sba(imodels.task
HaulageTask
p80
(dp81
g50
I100
sg45
g54
sg47
I1666
sg55
g56
sg17
g18
sg36
g6
(S'\x07\xe1\x05\x01\x0f\x00\x00\x00\x00\x00'
p82
tp83
Rp84
sg32
g6
(S'\x07\xe1\x05\x01\x11\x00\x00\x00\x00\x00'
p85
tp86
Rp87
sba(imodels.task
HaulageTask
p88
(dp89
g50
I100
sg45
g54
sg47
I1666
sg55
g56
sg17
g18
sg36
g6
(S'\x07\xe1\x05\x01\x11\x00\x00\x00\x00\x00'
p90
tp91
Rp92
sg32
g6
(S'\x07\xe1\x05\x01\x13\x00\x00\x00\x00\x00'
p93
tp94
Rp95
sba(imodels.task
HaulageTask
p96
(dp97
g50
I100
sg45
g54
sg47
I1666
sg55
g56
sg17
g18
sg36
g6
(S'\x07\xe1\x05\x01\x13\x00\x00\x00\x00\x00'
p98
tp99
Rp100
sg32
g6
(S'\x07\xe1\x05\x01\x15\x00\x00\x00\x00\x00'
p101
tp102
Rp103
sbasbasbasS'machines'
p104
(lp105
(imodels.machine
Loader
p106
(dp107
S'model'
p108
S'TRX'
p109
sS'weightCapacity'
p110
I26
sg40
(lp111
sS'staticFeulConsupmtion'
p112
I5
sS'weight'
p113
I10000
sS'speed'
p114
I25
sS'loadCapacity'
p115
I10
sg17
(imodels.point
Point
p116
(dp117
g20
F40.51919151519808
sg21
I7
sg22
F-112.14201155848309
sg23
I137
sbsS'fuelConsumption'
p118
I9
sS'isAvailable'
p119
I01
sS'fuelCapacity'
p120
I823
sS'id'
p121
I0
sba(imodels.machine
Loader
p122
(dp123
g108
g109
sg110
I24
sg40
(lp124
sg112
I4
sg113
I10000
sg114
I30
sg115
I10
sg17
(imodels.point
Point
p125
(dp126
g20
F40.51310284647761
sg21
I2
sg22
F-112.1382324030725
sg23
I231
sbsg118
I11
sg119
I01
sg120
I760
sg121
I1
sba(imodels.machine
Loader
p127
(dp128
g108
g109
sg110
I21
sg40
(lp129
sg112
I6
sg113
I10000
sg114
I25
sg115
I10
sg17
(imodels.point
Point
p130
(dp131
g20
F40.51513382802257
sg21
I3
sg22
F-112.13631731772568
sg23
I232
sbsg118
I12
sg119
I01
sg120
I892
sg121
I2
sba(imodels.machine
Loader
p132
(dp133
g108
g109
sg110
I33
sg40
(lp134
sg112
I5
sg113
I10000
sg114
I28
sg115
I10
sg17
(imodels.point
Point
p135
(dp136
g20
F40.523840237856376
sg21
I4
sg22
F-112.15156826920315
sg23
I84
sbsg118
I11
sg119
I01
sg120
I1091
sg121
I3
sba(imodels.machine
Loader
p137
(dp138
g108
g109
sg110
I25
sg40
(lp139
sg112
I5
sg113
I10000
sg114
I27
sg115
I10
sg17
(imodels.point
Point
p140
(dp141
g20
F40.5290251923612
sg21
I6
sg22
F-112.13749168686275
sg23
I243
sbsg118
I10
sg119
I01
sg120
I740
sg121
I4
sba(imodels.machine
Shovel
p142
(dp143
g108
S'ZXF'
p144
sg40
(lp145
sg112
I12
sg44
I50
sg113
I10000
sg114
I15
sg17
(imodels.point
Point
p146
(dp147
g20
F40.51283825158735
sg21
I5
sg22
F-112.1338931895906
sg23
I202
sbsg118
I18
sS'digRate'
p148
I51
sg119
I01
sg120
I1352
sg121
I5
sba(imodels.machine
Shovel
p149
(dp150
g108
g144
sg40
(lp151
sg112
I10
sg44
I50
sg113
I10000
sg114
I15
sg17
(imodels.point
Point
p152
(dp153
g20
F40.51919151519808
sg21
I9
sg22
F-112.14201155848309
sg23
I197
sbsg118
I16
sg148
I53
sg119
I01
sg120
I884
sg121
I6
sba(imodels.machine
Shovel
p154
(dp155
g108
g144
sg40
(lp156
sg112
I8
sg44
I50
sg113
I10000
sg114
I19
sg17
(imodels.point
Point
p157
(dp158
g20
F40.522791142637054
sg21
I5
sg22
F-112.14019300788948
sg23
I135
sbsg118
I18
sg148
I53
sg119
I01
sg120
I1225
sg121
I7
sba(imodels.machine
Shovel
p159
(dp160
g108
g144
sg40
(lp161
sg112
I11
sg44
I50
sg113
I10000
sg114
I22
sg17
(imodels.point
Point
p162
(dp163
g20
F40.5223991989187
sg21
I20
sg22
F-112.15192519721535
sg23
I53
sbsg118
I18
sg148
I79
sg119
I01
sg120
I1377
sg121
I8
sba(imodels.machine
Shovel
p164
(dp165
g108
g144
sg40
(lp166
sg112
I8
sg44
I50
sg113
I10000
sg114
I17
sg17
(imodels.point
Point
p167
(dp168
g20
F40.525175647691775
sg21
I2
sg22
F-112.13218660632606
sg23
I235
sbsg118
I16
sg148
I58
sg119
I01
sg120
I831
sg121
I9
sba(imodels.machine
Truck
p169
(dp170
g108
S'TRK1'
p171
sg110
I646
sg40
(lp172
sg112
I1
sg113
I10000
sg114
I43
sg115
I500
sg17
(imodels.point
Point
p173
(dp174
g20
F40.51938419908192
sg21
I2
sg22
F-112.15045850678587
sg23
I139
sbsg118
I8
sg119
I01
sg120
I801
sg121
I10
sba(imodels.machine
Truck
p175
(dp176
g108
g171
sg110
I419
sg40
(lp177
sg112
I1
sg113
I10000
sg114
I47
sg115
I500
sg17
(imodels.point
Point
p178
(dp179
g20
F40.521600289092895
sg21
I3
sg22
F-112.15016361369356
sg23
I87
sbsg118
I10
sg119
I01
sg120
I627
sg121
I11
sba(imodels.machine
Truck
p180
(dp181
g108
g171
sg110
I759
sg40
(lp182
sg112
I1
sg113
I10000
sg114
I41
sg115
I500
sg17
(imodels.point
Point
p183
(dp184
g20
F40.518287894584915
sg21
I4
sg22
F-112.10799523381002
sg23
I212
sbsg118
I10
sg119
I01
sg120
I757
sg121
I12
sba(imodels.machine
Truck
p185
(dp186
g108
g171
sg110
I435
sg40
(lp187
sg112
I1
sg113
I10000
sg114
I50
sg115
I500
sg17
(imodels.point
Point
p188
(dp189
g20
F40.52144455481663
sg21
I4
sg22
F-112.14980874008938
sg23
I88
sbsg118
I8
sg119
I01
sg120
I823
sg121
I13
sba(imodels.machine
Truck
p190
(dp191
g108
g171
sg110
I696
sg40
(lp192
sg112
I1
sg113
I10000
sg114
I53
sg115
I500
sg17
(imodels.point
Point
p193
(dp194
g20
F40.53127343080907
sg21
I3
sg22
F-112.15153489693762
sg23
I76
sbsg118
I7
sg119
I01
sg120
I705
sg121
I14
sba(imodels.machine
Truck
p195
(dp196
g108
g171
sg110
I749
sg40
(lp197
sg112
I1
sg113
I10000
sg114
I44
sg115
I500
sg17
(imodels.point
Point
p198
(dp199
g20
F40.518991694454094
sg21
I5
sg22
F-112.15212080426022
sg23
I149
sbsg118
I9
sg119
I01
sg120
I626
sg121
I15
sba(imodels.machine
Truck
p200
(dp201
g108
g171
sg110
I695
sg40
(lp202
sg112
I1
sg113
I10000
sg114
I57
sg115
I500
sg17
g178
sg118
I8
sg119
I01
sg120
I685
sg121
I16
sba(imodels.machine
Truck
p203
(dp204
g108
g171
sg110
I545
sg40
(lp205
sg112
I1
sg113
I10000
sg114
I55
sg115
I500
sg17
(imodels.point
Point
p206
(dp207
g20
F40.51865378394097
sg21
I4
sg22
F-112.14797353538222
sg23
I126
sbsg118
I10
sg119
I01
sg120
I532
sg121
I17
sba(imodels.machine
Truck
p208
(dp209
g108
g171
sg110
I736
sg40
(lp210
sg112
I1
sg113
I10000
sg114
I57
sg115
I500
sg17
(imodels.point
Point
p211
(dp212
g20
F40.527179779080214
sg21
I1
sg22
F-112.14562985844418
sg23
I1
sbsg118
I7
sg119
I01
sg120
I572
sg121
I18
sba(imodels.machine
Truck
p213
(dp214
g108
g171
sg110
I513
sg40
(lp215
sg112
I1
sg113
I10000
sg114
I50
sg115
I500
sg17
(imodels.point
Point
p216
(dp217
g20
F40.52201296357837
sg21
I19
sg22
F-112.15144288987375
sg23
I52
sbsg118
I7
sg119
I01
sg120
I628
sg121
I19
sbas.