(dp0
S'missions'
p1
NsS'machines'
p2
(lp3
(imodels.machine
Loader
p4
(dp5
S'weightCapacity'
p6
I24
sS'tasks'
p7
(lp8
sS'staticFeulConsupmtion'
p9
I5
sS'weight'
p10
I10000
sS'speed'
p11
I27
sS'isAvailable'
p12
I01
sS'loadCapacity'
p13
I10
sS'location'
p14
(imodels.point
Point
p15
(dp16
S'lat'
p17
F40.519697181358865
sS'index'
p18
I3
sS'lng'
p19
F-112.15714458174511
sS'nid'
p20
I122
sbsS'fuelConsumption'
p21
I9
sS'model'
p22
S'TRX'
p23
sS'fuelCapacity'
p24
I936
sS'id'
p25
I0
sba(imodels.machine
Loader
p26
(dp27
g6
I25
sg7
(lp28
sg9
I4
sg10
I10000
sg11
I30
sg12
I01
sg13
I10
sg14
(imodels.point
Point
p29
(dp30
g17
F40.5229309078227
sg18
I3
sg19
F-112.15563986248776
sg20
I144
sbsg21
I10
sg22
g23
sg24
I895
sg25
I1
sba(imodels.machine
Loader
p31
(dp32
g6
I39
sg7
(lp33
sg9
I4
sg10
I10000
sg11
I25
sg12
I01
sg13
I10
sg14
(imodels.point
Point
p34
(dp35
g17
F40.52199302087392
sg18
I1
sg19
F-112.1485695595245
sg20
I64
sbsg21
I9
sg22
g23
sg24
I1066
sg25
I2
sba(imodels.machine
Loader
p36
(dp37
g6
I32
sg7
(lp38
sg9
I6
sg10
I10000
sg11
I29
sg12
I01
sg13
I10
sg14
(imodels.point
Point
p39
(dp40
g17
F40.51310284647761
sg18
I2
sg19
F-112.1382324030725
sg20
I231
sbsg21
I9
sg22
g23
sg24
I823
sg25
I3
sba(imodels.machine
Loader
p41
(dp42
g6
I30
sg7
(lp43
sg9
I4
sg10
I10000
sg11
I30
sg12
I01
sg13
I10
sg14
(imodels.point
Point
p44
(dp45
g17
F40.515587904925745
sg18
I15
sg19
F-112.12052744340207
sg20
I223
sbsg21
I9
sg22
g23
sg24
I846
sg25
I4
sba(imodels.machine
Shovel
p46
(dp47
g7
(lp48
sg9
I10
sS'power'
p49
I50
sg10
I10000
sg11
I18
sg12
I01
sg14
(imodels.point
Point
p50
(dp51
g17
F40.5192792223195
sg18
I2
sg19
F-112.14700053644839
sg20
I124
sbsg21
I19
sS'digRate'
p52
I54
sg22
S'ZXF'
p53
sg24
I1350
sg25
I5
sba(imodels.machine
Shovel
p54
(dp55
g7
(lp56
sg9
I10
sg49
I50
sg10
I10000
sg11
I20
sg12
I01
sg14
(imodels.point
Point
p57
(dp58
g17
F40.52266284555888
sg18
I1
sg19
F-112.15109951390832
sg20
I85
sbsg21
I16
sg52
I50
sg22
g53
sg24
I1357
sg25
I6
sba(imodels.machine
Shovel
p59
(dp60
g7
(lp61
sg9
I8
sg49
I50
sg10
I10000
sg11
I17
sg12
I01
sg14
(imodels.point
Point
p62
(dp63
g17
F40.51674876769078
sg18
I33
sg19
F-112.13403198666379
sg20
I182
sbsg21
I20
sg52
I54
sg22
g53
sg24
I1130
sg25
I7
sba(imodels.machine
Shovel
p64
(dp65
g7
(lp66
sg9
I12
sg49
I50
sg10
I10000
sg11
I20
sg12
I01
sg14
(imodels.point
Point
p67
(dp68
g17
F40.519889282781556
sg18
I7
sg19
F-112.1570778643424
sg20
I111
sbsg21
I17
sg52
I43
sg22
g53
sg24
I1111
sg25
I8
sba(imodels.machine
Shovel
p69
(dp70
g7
(lp71
sg9
I8
sg49
I50
sg10
I10000
sg11
I20
sg12
I01
sg14
(imodels.point
Point
p72
(dp73
g17
F40.53073142988414
sg18
I3
sg19
F-112.13919317066586
sg20
I240
sbsg21
I17
sg52
I46
sg22
g53
sg24
I1086
sg25
I9
sba(imodels.machine
Truck
p74
(dp75
g6
I732
sg7
(lp76
sg9
I1
sg10
I10000
sg11
I44
sg12
I01
sg13
I500
sg14
g57
sg21
I9
sg22
S'TRK1'
p77
sg24
I783
sg25
I10
sba(imodels.machine
Truck
p78
(dp79
g6
I797
sg7
(lp80
sg9
I1
sg10
I10000
sg11
I47
sg12
I01
sg13
I500
sg14
(imodels.point
Point
p81
(dp82
g17
F40.520300713396445
sg18
I7
sg19
F-112.1516675109367
sg20
I73
sbsg21
I9
sg22
g77
sg24
I790
sg25
I11
sba(imodels.machine
Truck
p83
(dp84
g6
I689
sg7
(lp85
sg9
I1
sg10
I10000
sg11
I44
sg12
I01
sg13
I500
sg14
(imodels.point
Point
p86
(dp87
g17
F40.51674876769078
sg18
I4
sg19
F-112.13403198666379
sg20
I233
sbsg21
I7
sg22
g77
sg24
I696
sg25
I12
sba(imodels.machine
Truck
p88
(dp89
g6
I434
sg7
(lp90
sg9
I1
sg10
I10000
sg11
I58
sg12
I01
sg13
I500
sg14
(imodels.point
Point
p91
(dp92
g17
F40.523901227580545
sg18
I5
sg19
F-112.13921402058872
sg20
I193
sbsg21
I7
sg22
g77
sg24
I639
sg25
I13
sba(imodels.machine
Truck
p93
(dp94
g6
I534
sg7
(lp95
sg9
I1
sg10
I10000
sg11
I40
sg12
I01
sg13
I500
sg14
(imodels.point
Point
p96
(dp97
g17
F40.51972136320689
sg18
I9
sg19
F-112.15729881121706
sg20
I113
sbsg21
I6
sg22
g77
sg24
I608
sg25
I14
sba(imodels.machine
Truck
p98
(dp99
g6
I411
sg7
(lp100
sg9
I1
sg10
I10000
sg11
I56
sg12
I01
sg13
I500
sg14
(imodels.point
Point
p101
(dp102
g17
F40.527766933963264
sg18
I4
sg19
F-112.13397834248349
sg20
I237
sbsg21
I7
sg22
g77
sg24
I714
sg25
I15
sba(imodels.machine
Truck
p103
(dp104
g6
I510
sg7
(lp105
sg9
I1
sg10
I10000
sg11
I47
sg12
I01
sg13
I500
sg14
(imodels.point
Point
p106
(dp107
g17
F40.519030435813804
sg18
I3
sg19
F-112.15059865197139
sg20
I140
sbsg21
I10
sg22
g77
sg24
I629
sg25
I16
sba(imodels.machine
Truck
p108
(dp109
g6
I511
sg7
(lp110
sg9
I1
sg10
I10000
sg11
I51
sg12
I01
sg13
I500
sg14
(imodels.point
Point
p111
(dp112
g17
F40.52308178440836
sg18
I2
sg19
F-112.15494785501107
sg20
I143
sbsg21
I10
sg22
g77
sg24
I716
sg25
I17
sba(imodels.machine
Truck
p113
(dp114
g6
I547
sg7
(lp115
sg9
I1
sg10
I10000
sg11
I41
sg12
I01
sg13
I500
sg14
(imodels.point
Point
p116
(dp117
g17
F40.522791142637054
sg18
I5
sg19
F-112.14019300788948
sg20
I135
sbsg21
I7
sg22
g77
sg24
I717
sg25
I18
sba(imodels.machine
Truck
p118
(dp119
g6
I439
sg7
(lp120
sg9
I1
sg10
I10000
sg11
I44
sg12
I01
sg13
I500
sg14
(imodels.point
Point
p121
(dp122
g17
F40.53062720171753
sg18
I1
sg19
F-112.14591685480877
sg20
I74
sbsg21
I8
sg22
g77
sg24
I796
sg25
I19
sba(imodels.machine
Truck
p123
(dp124
g6
I692
sg7
(lp125
sg9
I1
sg10
I10000
sg11
I51
sg12
I01
sg13
I500
sg14
(imodels.point
Point
p126
(dp127
g17
F40.52102457081804
sg18
I29
sg19
F-112.15367113109602
sg20
I62
sbsg21
I6
sg22
g77
sg24
I630
sg25
I20
sba(imodels.machine
Truck
p128
(dp129
g6
I458
sg7
(lp130
sg9
I1
sg10
I10000
sg11
I41
sg12
I01
sg13
I500
sg14
(imodels.point
Point
p131
(dp132
g17
F40.526362112063275
sg18
I2
sg19
F-112.14034315782186
sg20
I190
sbsg21
I6
sg22
g77
sg24
I753
sg25
I21
sba(imodels.machine
Truck
p133
(dp134
g6
I734
sg7
(lp135
sg9
I1
sg10
I10000
sg11
I40
sg12
I01
sg13
I500
sg14
(imodels.point
Point
p136
(dp137
g17
F40.524452280723104
sg18
I4
sg19
F-112.14027479428802
sg20
I134
sbsg21
I8
sg22
g77
sg24
I785
sg25
I22
sba(imodels.machine
Truck
p138
(dp139
g6
I518
sg7
(lp140
sg9
I1
sg10
I10000
sg11
I60
sg12
I01
sg13
I500
sg14
(imodels.point
Point
p141
(dp142
g17
F40.51999085755343
sg18
I28
sg19
F-112.15231396749118
sg20
I61
sbsg21
I10
sg22
g77
sg24
I609
sg25
I23
sba(imodels.machine
Truck
p143
(dp144
g6
I647
sg7
(lp145
sg9
I1
sg10
I10000
sg11
I47
sg12
I01
sg13
I500
sg14
(imodels.point
Point
p146
(dp147
g17
F40.51477419983338
sg18
I6
sg19
F-112.11488943557771
sg20
I214
sbsg21
I9
sg22
g77
sg24
I658
sg25
I24
sba(imodels.machine
Truck
p148
(dp149
g6
I572
sg7
(lp150
sg9
I1
sg10
I10000
sg11
I45
sg12
I01
sg13
I500
sg14
g146
sg21
I9
sg22
g77
sg24
I639
sg25
I25
sba(imodels.machine
Truck
p151
(dp152
g6
I503
sg7
(lp153
sg9
I1
sg10
I10000
sg11
I42
sg12
I01
sg13
I500
sg14
(imodels.point
Point
p154
(dp155
g17
F40.53019297078088
sg18
I1
sg19
F-112.14367184586331
sg20
I131
sbsg21
I10
sg22
g77
sg24
I763
sg25
I26
sba(imodels.machine
Truck
p156
(dp157
g6
I540
sg7
(lp158
sg9
I1
sg10
I10000
sg11
I60
sg12
I01
sg13
I500
sg14
(imodels.point
Point
p159
(dp160
g17
F40.521332156169606
sg18
I12
sg19
F-112.1563962555399
sg20
I116
sbsg21
I6
sg22
g77
sg24
I637
sg25
I27
sba(imodels.machine
Truck
p161
(dp162
g6
I644
sg7
(lp163
sg9
I1
sg10
I10000
sg11
I57
sg12
I01
sg13
I500
sg14
(imodels.point
Point
p164
(dp165
g17
F40.5174143845541
sg18
I17
sg19
F-112.1200861232387
sg20
I225
sbsg21
I7
sg22
g77
sg24
I645
sg25
I28
sba(imodels.machine
Truck
p166
(dp167
g6
I780
sg7
(lp168
sg9
I1
sg10
I10000
sg11
I48
sg12
I01
sg13
I500
sg14
g67
sg21
I6
sg22
g77
sg24
I623
sg25
I29
sba(imodels.machine
Truck
p169
(dp170
g6
I451
sg7
(lp171
sg9
I1
sg10
I10000
sg11
I52
sg12
I01
sg13
I500
sg14
g34
sg21
I9
sg22
g77
sg24
I709
sg25
I30
sba(imodels.machine
Truck
p172
(dp173
g6
I667
sg7
(lp174
sg9
I1
sg10
I10000
sg11
I55
sg12
I01
sg13
I500
sg14
(imodels.point
Point
p175
(dp176
g17
F40.51711290753156
sg18
I6
sg19
F-112.15228565021403
sg20
I128
sbsg21
I7
sg22
g77
sg24
I647
sg25
I31
sba(imodels.machine
Truck
p177
(dp178
g6
I656
sg7
(lp179
sg9
I1
sg10
I10000
sg11
I41
sg12
I01
sg13
I500
sg14
(imodels.point
Point
p180
(dp181
g17
F40.52138128720112
sg18
I30
sg19
F-112.12869095919694
sg20
I179
sbsg21
I10
sg22
g77
sg24
I780
sg25
I32
sba(imodels.machine
Truck
p182
(dp183
g6
I793
sg7
(lp184
sg9
I1
sg10
I10000
sg11
I52
sg12
I01
sg13
I500
sg14
(imodels.point
Point
p185
(dp186
g17
F40.521979767580525
sg18
I14
sg19
F-112.15566132940194
sg20
I118
sbsg21
I8
sg22
g77
sg24
I708
sg25
I33
sba(imodels.machine
Truck
p187
(dp188
g6
I424
sg7
(lp189
sg9
I1
sg10
I10000
sg11
I41
sg12
I01
sg13
I500
sg14
g126
sg21
I8
sg22
g77
sg24
I645
sg25
I34
sba(imodels.machine
Truck
p190
(dp191
g6
I758
sg7
(lp192
sg9
I1
sg10
I10000
sg11
I42
sg12
I01
sg13
I500
sg14
(imodels.point
Point
p193
(dp194
g17
F40.52345285661486
sg18
I3
sg19
F-112.14888069577023
sg20
I66
sbsg21
I10
sg22
g77
sg24
I614
sg25
I35
sba(imodels.machine
Truck
p195
(dp196
g6
I533
sg7
(lp197
sg9
I1
sg10
I10000
sg11
I55
sg12
I01
sg13
I500
sg14
(imodels.point
Point
p198
(dp199
g17
F40.52560778799078
sg18
I3
sg19
F-112.14102178593572
sg20
I133
sbsg21
I7
sg22
g77
sg24
I697
sg25
I36
sba(imodels.machine
Truck
p200
(dp201
g6
I482
sg7
(lp202
sg9
I1
sg10
I10000
sg11
I41
sg12
I01
sg13
I500
sg14
(imodels.point
Point
p203
(dp204
g17
F40.527597683697266
sg18
I3
sg19
F-112.15038007082154
sg20
I83
sbsg21
I8
sg22
g77
sg24
I642
sg25
I37
sba(imodels.machine
Truck
p205
(dp206
g6
I559
sg7
(lp207
sg9
I1
sg10
I10000
sg11
I42
sg12
I01
sg13
I500
sg14
g101
sg21
I10
sg22
g77
sg24
I667
sg25
I38
sba(imodels.machine
Truck
p208
(dp209
g6
I507
sg7
(lp210
sg9
I1
sg10
I10000
sg11
I47
sg12
I01
sg13
I500
sg14
g175
sg21
I6
sg22
g77
sg24
I646
sg25
I39
sba(imodels.machine
Truck
p211
(dp212
g6
I412
sg7
(lp213
sg9
I1
sg10
I10000
sg11
I51
sg12
I01
sg13
I500
sg14
(imodels.point
Point
p214
(dp215
g17
F40.52960991448731
sg18
I1
sg19
F-112.14773539252087
sg20
I96
sbsg21
I9
sg22
g77
sg24
I651
sg25
I40
sba(imodels.machine
Truck
p216
(dp217
g6
I551
sg7
(lp218
sg9
I1
sg10
I10000
sg11
I41
sg12
I01
sg13
I500
sg14
(imodels.point
Point
p219
(dp220
g17
F40.52196333372621
sg18
I7
sg19
F-112.13930995935533
sg20
I195
sbsg21
I9
sg22
g77
sg24
I614
sg25
I41
sba(imodels.machine
Truck
p221
(dp222
g6
I600
sg7
(lp223
sg9
I1
sg10
I10000
sg11
I52
sg12
I01
sg13
I500
sg14
(imodels.point
Point
p224
(dp225
g17
F40.51756673417712
sg18
I5
sg19
F-112.14983263492104
sg20
I127
sbsg21
I7
sg22
g77
sg24
I754
sg25
I42
sba(imodels.machine
Truck
p226
(dp227
g6
I525
sg7
(lp228
sg9
I1
sg10
I10000
sg11
I49
sg12
I01
sg13
I500
sg14
g193
sg21
I10
sg22
g77
sg24
I700
sg25
I43
sba(imodels.machine
Truck
p229
(dp230
g6
I523
sg7
(lp231
sg9
I1
sg10
I10000
sg11
I43
sg12
I01
sg13
I500
sg14
(imodels.point
Point
p232
(dp233
g17
F40.51513382802257
sg18
I3
sg19
F-112.13631731772568
sg20
I232
sbsg21
I8
sg22
g77
sg24
I729
sg25
I44
sba(imodels.machine
Truck
p234
(dp235
g6
I535
sg7
(lp236
sg9
I1
sg10
I10000
sg11
I60
sg12
I01
sg13
I500
sg14
(imodels.point
Point
p237
(dp238
g17
F40.519509323799085
sg18
I3
sg19
F-112.10610984562408
sg20
I211
sbsg21
I8
sg22
g77
sg24
I772
sg25
I45
sba(imodels.machine
Truck
p239
(dp240
g6
I416
sg7
(lp241
sg9
I1
sg10
I10000
sg11
I42
sg12
I01
sg13
I500
sg14
(imodels.point
Point
p242
(dp243
g17
F40.51129108105971
sg18
I36
sg19
F-112.14017219832942
sg20
I185
sbsg21
I8
sg22
g77
sg24
I612
sg25
I46
sba(imodels.machine
Truck
p244
(dp245
g6
I417
sg7
(lp246
sg9
I1
sg10
I10000
sg11
I48
sg12
I01
sg13
I500
sg14
(imodels.point
Point
p247
(dp248
g17
F40.528875990263
sg18
I4
sg19
F-112.13703606076047
sg20
I153
sbsg21
I8
sg22
g77
sg24
I602
sg25
I47
sba(imodels.machine
Truck
p249
(dp250
g6
I605
sg7
(lp251
sg9
I1
sg10
I10000
sg11
I41
sg12
I01
sg13
I500
sg14
(imodels.point
Point
p252
(dp253
g17
F40.52387895130079
sg18
I4
sg19
F-112.15300591635344
sg20
I70
sbsg21
I10
sg22
g77
sg24
I736
sg25
I48
sba(imodels.machine
Truck
p254
(dp255
g6
I462
sg7
(lp256
sg9
I1
sg10
I10000
sg11
I56
sg12
I01
sg13
I500
sg14
(imodels.point
Point
p257
(dp258
g17
F40.52937238411766
sg18
I3
sg19
F-112.15080726847532
sg20
I98
sbsg21
I8
sg22
g77
sg24
I643
sg25
I49
sbas.