(dp0
S'missions'
p1
(lp2
(imodels.mission
Mission
p3
(dp4
S'startDate'
p5
cdatetime
datetime
p6
(S'\x07\xe1\x05\x01\x00\x00\x00\x00\x00\x00'
p7
tp8
Rp9
sS'endDate'
p10
g6
(S'\x07\xe1\x05\n\x00\x00\x00\x00\x00\x00'
p11
tp12
Rp13
sS'target'
p14
I10000
sS'title'
p15
S'New mission'
p16
sS'location'
p17
(imodels.point
Point
p18
(dp19
S'lat'
p20
F40.525908608790786
sS'index'
p21
I4
sS'lng'
p22
F-112.14826781586851
sS'nid'
p23
I91
sbsS'schedules'
p24
(lp25
(imodels.schedule
Schedule
p26
(dp27
S'date'
p28
g6
(S'\x07\xe1\x05\x01\x00\x00\x00\x00\x00\x00'
p29
tp30
Rp31
sS'endTime'
p32
g6
(S'\x07\xe1\x05\x01\x15\x00\x00\x00\x00\x00'
p33
tp34
Rp35
sg17
g18
sS'startTime'
p36
g6
(S'\x07\xe1\x05\x01\t\x00\x00\x00\x00\x00'
p37
tp38
Rp39
sS'tasks'
p40
(lp41
(imodels.task
DigTask
p42
(dp43
S'power'
p44
I100
sS'comments'
p45
S'Dig all day'
p46
sS'amount'
p47
I1111
sg17
g18
sg36
g39
sg32
g35
sba(imodels.task
LoadTask
p48
(dp49
S'material'
p50
I100
sg45
S'Loader'
p51
sg47
I1111
sg17
g18
sg36
g39
sg32
g35
sba(imodels.task
HaulageTask
p52
(dp53
g50
I100
sg45
S'Haul all day'
p54
sg47
I185
sS'dumpLocation'
p55
(imodels.point
Point
p56
(dp57
g20
F40.51964416685738
sg21
I2
sg22
F-112.15076226431802
sg23
I145
sbsg17
g18
sg36
g6
(S'\x07\xe1\x05\x01\t\x00\x00\x00\x00\x00'
p58
tp59
Rp60
sg32
g6
(S'\x07\xe1\x05\x01\x0b\x00\x00\x00\x00\x00'
p61
tp62
Rp63
sba(imodels.task
HaulageTask
p64
(dp65
g50
I100
sg45
g54
sg47
I185
sg55
g56
sg17
g18
sg36
g6
(S'\x07\xe1\x05\x01\x0b\x00\x00\x00\x00\x00'
p66
tp67
Rp68
sg32
g6
(S'\x07\xe1\x05\x01\r\x00\x00\x00\x00\x00'
p69
tp70
Rp71
sba(imodels.task
HaulageTask
p72
(dp73
g50
I100
sg45
g54
sg47
I185
sg55
g56
sg17
g18
sg36
g6
(S'\x07\xe1\x05\x01\r\x00\x00\x00\x00\x00'
p74
tp75
Rp76
sg32
g6
(S'\x07\xe1\x05\x01\x0f\x00\x00\x00\x00\x00'
p77
tp78
Rp79
sba(imodels.task
HaulageTask
p80
(dp81
g50
I100
sg45
g54
sg47
I185
sg55
g56
sg17
g18
sg36
g6
(S'\x07\xe1\x05\x01\x0f\x00\x00\x00\x00\x00'
p82
tp83
Rp84
sg32
g6
(S'\x07\xe1\x05\x01\x11\x00\x00\x00\x00\x00'
p85
tp86
Rp87
sba(imodels.task
HaulageTask
p88
(dp89
g50
I100
sg45
g54
sg47
I185
sg55
g56
sg17
g18
sg36
g6
(S'\x07\xe1\x05\x01\x11\x00\x00\x00\x00\x00'
p90
tp91
Rp92
sg32
g6
(S'\x07\xe1\x05\x01\x13\x00\x00\x00\x00\x00'
p93
tp94
Rp95
sba(imodels.task
HaulageTask
p96
(dp97
g50
I100
sg45
g54
sg47
I185
sg55
g56
sg17
g18
sg36
g6
(S'\x07\xe1\x05\x01\x13\x00\x00\x00\x00\x00'
p98
tp99
Rp100
sg32
g6
(S'\x07\xe1\x05\x01\x15\x00\x00\x00\x00\x00'
p101
tp102
Rp103
sbasba(imodels.schedule
Schedule
p104
(dp105
g28
g6
(S'\x07\xe1\x05\x02\x00\x00\x00\x00\x00\x00'
p106
tp107
Rp108
sg32
g6
(S'\x07\xe1\x05\x02\x15\x00\x00\x00\x00\x00'
p109
tp110
Rp111
sg17
g18
sg36
g6
(S'\x07\xe1\x05\x02\t\x00\x00\x00\x00\x00'
p112
tp113
Rp114
sg40
(lp115
(imodels.task
DigTask
p116
(dp117
g44
I100
sg45
g46
sg47
I1111
sg17
g18
sg36
g114
sg32
g111
sba(imodels.task
LoadTask
p118
(dp119
g50
I100
sg45
g51
sg47
I1111
sg17
g18
sg36
g114
sg32
g111
sba(imodels.task
HaulageTask
p120
(dp121
g50
I100
sg45
g54
sg47
I185
sg55
g56
sg17
g18
sg36
g6
(S'\x07\xe1\x05\x02\t\x00\x00\x00\x00\x00'
p122
tp123
Rp124
sg32
g6
(S'\x07\xe1\x05\x02\x0b\x00\x00\x00\x00\x00'
p125
tp126
Rp127
sba(imodels.task
HaulageTask
p128
(dp129
g50
I100
sg45
g54
sg47
I185
sg55
g56
sg17
g18
sg36
g6
(S'\x07\xe1\x05\x02\x0b\x00\x00\x00\x00\x00'
p130
tp131
Rp132
sg32
g6
(S'\x07\xe1\x05\x02\r\x00\x00\x00\x00\x00'
p133
tp134
Rp135
sba(imodels.task
HaulageTask
p136
(dp137
g50
I100
sg45
g54
sg47
I185
sg55
g56
sg17
g18
sg36
g6
(S'\x07\xe1\x05\x02\r\x00\x00\x00\x00\x00'
p138
tp139
Rp140
sg32
g6
(S'\x07\xe1\x05\x02\x0f\x00\x00\x00\x00\x00'
p141
tp142
Rp143
sba(imodels.task
HaulageTask
p144
(dp145
g50
I100
sg45
g54
sg47
I185
sg55
g56
sg17
g18
sg36
g6
(S'\x07\xe1\x05\x02\x0f\x00\x00\x00\x00\x00'
p146
tp147
Rp148
sg32
g6
(S'\x07\xe1\x05\x02\x11\x00\x00\x00\x00\x00'
p149
tp150
Rp151
sba(imodels.task
HaulageTask
p152
(dp153
g50
I100
sg45
g54
sg47
I185
sg55
g56
sg17
g18
sg36
g6
(S'\x07\xe1\x05\x02\x11\x00\x00\x00\x00\x00'
p154
tp155
Rp156
sg32
g6
(S'\x07\xe1\x05\x02\x13\x00\x00\x00\x00\x00'
p157
tp158
Rp159
sba(imodels.task
HaulageTask
p160
(dp161
g50
I100
sg45
g54
sg47
I185
sg55
g56
sg17
g18
sg36
g6
(S'\x07\xe1\x05\x02\x13\x00\x00\x00\x00\x00'
p162
tp163
Rp164
sg32
g6
(S'\x07\xe1\x05\x02\x15\x00\x00\x00\x00\x00'
p165
tp166
Rp167
sbasba(imodels.schedule
Schedule
p168
(dp169
g28
g6
(S'\x07\xe1\x05\x03\x00\x00\x00\x00\x00\x00'
p170
tp171
Rp172
sg32
g6
(S'\x07\xe1\x05\x03\x15\x00\x00\x00\x00\x00'
p173
tp174
Rp175
sg17
g18
sg36
g6
(S'\x07\xe1\x05\x03\t\x00\x00\x00\x00\x00'
p176
tp177
Rp178
sg40
(lp179
(imodels.task
DigTask
p180
(dp181
g44
I100
sg45
g46
sg47
I1111
sg17
g18
sg36
g178
sg32
g175
sba(imodels.task
LoadTask
p182
(dp183
g50
I100
sg45
g51
sg47
I1111
sg17
g18
sg36
g178
sg32
g175
sba(imodels.task
HaulageTask
p184
(dp185
g50
I100
sg45
g54
sg47
I185
sg55
g56
sg17
g18
sg36
g6
(S'\x07\xe1\x05\x03\t\x00\x00\x00\x00\x00'
p186
tp187
Rp188
sg32
g6
(S'\x07\xe1\x05\x03\x0b\x00\x00\x00\x00\x00'
p189
tp190
Rp191
sba(imodels.task
HaulageTask
p192
(dp193
g50
I100
sg45
g54
sg47
I185
sg55
g56
sg17
g18
sg36
g6
(S'\x07\xe1\x05\x03\x0b\x00\x00\x00\x00\x00'
p194
tp195
Rp196
sg32
g6
(S'\x07\xe1\x05\x03\r\x00\x00\x00\x00\x00'
p197
tp198
Rp199
sba(imodels.task
HaulageTask
p200
(dp201
g50
I100
sg45
g54
sg47
I185
sg55
g56
sg17
g18
sg36
g6
(S'\x07\xe1\x05\x03\r\x00\x00\x00\x00\x00'
p202
tp203
Rp204
sg32
g6
(S'\x07\xe1\x05\x03\x0f\x00\x00\x00\x00\x00'
p205
tp206
Rp207
sba(imodels.task
HaulageTask
p208
(dp209
g50
I100
sg45
g54
sg47
I185
sg55
g56
sg17
g18
sg36
g6
(S'\x07\xe1\x05\x03\x0f\x00\x00\x00\x00\x00'
p210
tp211
Rp212
sg32
g6
(S'\x07\xe1\x05\x03\x11\x00\x00\x00\x00\x00'
p213
tp214
Rp215
sba(imodels.task
HaulageTask
p216
(dp217
g50
I100
sg45
g54
sg47
I185
sg55
g56
sg17
g18
sg36
g6
(S'\x07\xe1\x05\x03\x11\x00\x00\x00\x00\x00'
p218
tp219
Rp220
sg32
g6
(S'\x07\xe1\x05\x03\x13\x00\x00\x00\x00\x00'
p221
tp222
Rp223
sba(imodels.task
HaulageTask
p224
(dp225
g50
I100
sg45
g54
sg47
I185
sg55
g56
sg17
g18
sg36
g6
(S'\x07\xe1\x05\x03\x13\x00\x00\x00\x00\x00'
p226
tp227
Rp228
sg32
g6
(S'\x07\xe1\x05\x03\x15\x00\x00\x00\x00\x00'
p229
tp230
Rp231
sbasba(imodels.schedule
Schedule
p232
(dp233
g28
g6
(S'\x07\xe1\x05\x04\x00\x00\x00\x00\x00\x00'
p234
tp235
Rp236
sg32
g6
(S'\x07\xe1\x05\x04\x15\x00\x00\x00\x00\x00'
p237
tp238
Rp239
sg17
g18
sg36
g6
(S'\x07\xe1\x05\x04\t\x00\x00\x00\x00\x00'
p240
tp241
Rp242
sg40
(lp243
(imodels.task
DigTask
p244
(dp245
g44
I100
sg45
g46
sg47
I1111
sg17
g18
sg36
g242
sg32
g239
sba(imodels.task
LoadTask
p246
(dp247
g50
I100
sg45
g51
sg47
I1111
sg17
g18
sg36
g242
sg32
g239
sba(imodels.task
HaulageTask
p248
(dp249
g50
I100
sg45
g54
sg47
I185
sg55
g56
sg17
g18
sg36
g6
(S'\x07\xe1\x05\x04\t\x00\x00\x00\x00\x00'
p250
tp251
Rp252
sg32
g6
(S'\x07\xe1\x05\x04\x0b\x00\x00\x00\x00\x00'
p253
tp254
Rp255
sba(imodels.task
HaulageTask
p256
(dp257
g50
I100
sg45
g54
sg47
I185
sg55
g56
sg17
g18
sg36
g6
(S'\x07\xe1\x05\x04\x0b\x00\x00\x00\x00\x00'
p258
tp259
Rp260
sg32
g6
(S'\x07\xe1\x05\x04\r\x00\x00\x00\x00\x00'
p261
tp262
Rp263
sba(imodels.task
HaulageTask
p264
(dp265
g50
I100
sg45
g54
sg47
I185
sg55
g56
sg17
g18
sg36
g6
(S'\x07\xe1\x05\x04\r\x00\x00\x00\x00\x00'
p266
tp267
Rp268
sg32
g6
(S'\x07\xe1\x05\x04\x0f\x00\x00\x00\x00\x00'
p269
tp270
Rp271
sba(imodels.task
HaulageTask
p272
(dp273
g50
I100
sg45
g54
sg47
I185
sg55
g56
sg17
g18
sg36
g6
(S'\x07\xe1\x05\x04\x0f\x00\x00\x00\x00\x00'
p274
tp275
Rp276
sg32
g6
(S'\x07\xe1\x05\x04\x11\x00\x00\x00\x00\x00'
p277
tp278
Rp279
sba(imodels.task
HaulageTask
p280
(dp281
g50
I100
sg45
g54
sg47
I185
sg55
g56
sg17
g18
sg36
g6
(S'\x07\xe1\x05\x04\x11\x00\x00\x00\x00\x00'
p282
tp283
Rp284
sg32
g6
(S'\x07\xe1\x05\x04\x13\x00\x00\x00\x00\x00'
p285
tp286
Rp287
sba(imodels.task
HaulageTask
p288
(dp289
g50
I100
sg45
g54
sg47
I185
sg55
g56
sg17
g18
sg36
g6
(S'\x07\xe1\x05\x04\x13\x00\x00\x00\x00\x00'
p290
tp291
Rp292
sg32
g6
(S'\x07\xe1\x05\x04\x15\x00\x00\x00\x00\x00'
p293
tp294
Rp295
sbasba(imodels.schedule
Schedule
p296
(dp297
g28
g6
(S'\x07\xe1\x05\x05\x00\x00\x00\x00\x00\x00'
p298
tp299
Rp300
sg32
g6
(S'\x07\xe1\x05\x05\x15\x00\x00\x00\x00\x00'
p301
tp302
Rp303
sg17
g18
sg36
g6
(S'\x07\xe1\x05\x05\t\x00\x00\x00\x00\x00'
p304
tp305
Rp306
sg40
(lp307
(imodels.task
DigTask
p308
(dp309
g44
I100
sg45
g46
sg47
I1111
sg17
g18
sg36
g306
sg32
g303
sba(imodels.task
LoadTask
p310
(dp311
g50
I100
sg45
g51
sg47
I1111
sg17
g18
sg36
g306
sg32
g303
sba(imodels.task
HaulageTask
p312
(dp313
g50
I100
sg45
g54
sg47
I185
sg55
g56
sg17
g18
sg36
g6
(S'\x07\xe1\x05\x05\t\x00\x00\x00\x00\x00'
p314
tp315
Rp316
sg32
g6
(S'\x07\xe1\x05\x05\x0b\x00\x00\x00\x00\x00'
p317
tp318
Rp319
sba(imodels.task
HaulageTask
p320
(dp321
g50
I100
sg45
g54
sg47
I185
sg55
g56
sg17
g18
sg36
g6
(S'\x07\xe1\x05\x05\x0b\x00\x00\x00\x00\x00'
p322
tp323
Rp324
sg32
g6
(S'\x07\xe1\x05\x05\r\x00\x00\x00\x00\x00'
p325
tp326
Rp327
sba(imodels.task
HaulageTask
p328
(dp329
g50
I100
sg45
g54
sg47
I185
sg55
g56
sg17
g18
sg36
g6
(S'\x07\xe1\x05\x05\r\x00\x00\x00\x00\x00'
p330
tp331
Rp332
sg32
g6
(S'\x07\xe1\x05\x05\x0f\x00\x00\x00\x00\x00'
p333
tp334
Rp335
sba(imodels.task
HaulageTask
p336
(dp337
g50
I100
sg45
g54
sg47
I185
sg55
g56
sg17
g18
sg36
g6
(S'\x07\xe1\x05\x05\x0f\x00\x00\x00\x00\x00'
p338
tp339
Rp340
sg32
g6
(S'\x07\xe1\x05\x05\x11\x00\x00\x00\x00\x00'
p341
tp342
Rp343
sba(imodels.task
HaulageTask
p344
(dp345
g50
I100
sg45
g54
sg47
I185
sg55
g56
sg17
g18
sg36
g6
(S'\x07\xe1\x05\x05\x11\x00\x00\x00\x00\x00'
p346
tp347
Rp348
sg32
g6
(S'\x07\xe1\x05\x05\x13\x00\x00\x00\x00\x00'
p349
tp350
Rp351
sba(imodels.task
HaulageTask
p352
(dp353
g50
I100
sg45
g54
sg47
I185
sg55
g56
sg17
g18
sg36
g6
(S'\x07\xe1\x05\x05\x13\x00\x00\x00\x00\x00'
p354
tp355
Rp356
sg32
g6
(S'\x07\xe1\x05\x05\x15\x00\x00\x00\x00\x00'
p357
tp358
Rp359
sbasba(imodels.schedule
Schedule
p360
(dp361
g28
g6
(S'\x07\xe1\x05\x06\x00\x00\x00\x00\x00\x00'
p362
tp363
Rp364
sg32
g6
(S'\x07\xe1\x05\x06\x15\x00\x00\x00\x00\x00'
p365
tp366
Rp367
sg17
g18
sg36
g6
(S'\x07\xe1\x05\x06\t\x00\x00\x00\x00\x00'
p368
tp369
Rp370
sg40
(lp371
(imodels.task
DigTask
p372
(dp373
g44
I100
sg45
g46
sg47
I1111
sg17
g18
sg36
g370
sg32
g367
sba(imodels.task
LoadTask
p374
(dp375
g50
I100
sg45
g51
sg47
I1111
sg17
g18
sg36
g370
sg32
g367
sba(imodels.task
HaulageTask
p376
(dp377
g50
I100
sg45
g54
sg47
I185
sg55
g56
sg17
g18
sg36
g6
(S'\x07\xe1\x05\x06\t\x00\x00\x00\x00\x00'
p378
tp379
Rp380
sg32
g6
(S'\x07\xe1\x05\x06\x0b\x00\x00\x00\x00\x00'
p381
tp382
Rp383
sba(imodels.task
HaulageTask
p384
(dp385
g50
I100
sg45
g54
sg47
I185
sg55
g56
sg17
g18
sg36
g6
(S'\x07\xe1\x05\x06\x0b\x00\x00\x00\x00\x00'
p386
tp387
Rp388
sg32
g6
(S'\x07\xe1\x05\x06\r\x00\x00\x00\x00\x00'
p389
tp390
Rp391
sba(imodels.task
HaulageTask
p392
(dp393
g50
I100
sg45
g54
sg47
I185
sg55
g56
sg17
g18
sg36
g6
(S'\x07\xe1\x05\x06\r\x00\x00\x00\x00\x00'
p394
tp395
Rp396
sg32
g6
(S'\x07\xe1\x05\x06\x0f\x00\x00\x00\x00\x00'
p397
tp398
Rp399
sba(imodels.task
HaulageTask
p400
(dp401
g50
I100
sg45
g54
sg47
I185
sg55
g56
sg17
g18
sg36
g6
(S'\x07\xe1\x05\x06\x0f\x00\x00\x00\x00\x00'
p402
tp403
Rp404
sg32
g6
(S'\x07\xe1\x05\x06\x11\x00\x00\x00\x00\x00'
p405
tp406
Rp407
sba(imodels.task
HaulageTask
p408
(dp409
g50
I100
sg45
g54
sg47
I185
sg55
g56
sg17
g18
sg36
g6
(S'\x07\xe1\x05\x06\x11\x00\x00\x00\x00\x00'
p410
tp411
Rp412
sg32
g6
(S'\x07\xe1\x05\x06\x13\x00\x00\x00\x00\x00'
p413
tp414
Rp415
sba(imodels.task
HaulageTask
p416
(dp417
g50
I100
sg45
g54
sg47
I185
sg55
g56
sg17
g18
sg36
g6
(S'\x07\xe1\x05\x06\x13\x00\x00\x00\x00\x00'
p418
tp419
Rp420
sg32
g6
(S'\x07\xe1\x05\x06\x15\x00\x00\x00\x00\x00'
p421
tp422
Rp423
sbasba(imodels.schedule
Schedule
p424
(dp425
g28
g6
(S'\x07\xe1\x05\x07\x00\x00\x00\x00\x00\x00'
p426
tp427
Rp428
sg32
g6
(S'\x07\xe1\x05\x07\x15\x00\x00\x00\x00\x00'
p429
tp430
Rp431
sg17
g18
sg36
g6
(S'\x07\xe1\x05\x07\t\x00\x00\x00\x00\x00'
p432
tp433
Rp434
sg40
(lp435
(imodels.task
DigTask
p436
(dp437
g44
I100
sg45
g46
sg47
I1111
sg17
g18
sg36
g434
sg32
g431
sba(imodels.task
LoadTask
p438
(dp439
g50
I100
sg45
g51
sg47
I1111
sg17
g18
sg36
g434
sg32
g431
sba(imodels.task
HaulageTask
p440
(dp441
g50
I100
sg45
g54
sg47
I185
sg55
g56
sg17
g18
sg36
g6
(S'\x07\xe1\x05\x07\t\x00\x00\x00\x00\x00'
p442
tp443
Rp444
sg32
g6
(S'\x07\xe1\x05\x07\x0b\x00\x00\x00\x00\x00'
p445
tp446
Rp447
sba(imodels.task
HaulageTask
p448
(dp449
g50
I100
sg45
g54
sg47
I185
sg55
g56
sg17
g18
sg36
g6
(S'\x07\xe1\x05\x07\x0b\x00\x00\x00\x00\x00'
p450
tp451
Rp452
sg32
g6
(S'\x07\xe1\x05\x07\r\x00\x00\x00\x00\x00'
p453
tp454
Rp455
sba(imodels.task
HaulageTask
p456
(dp457
g50
I100
sg45
g54
sg47
I185
sg55
g56
sg17
g18
sg36
g6
(S'\x07\xe1\x05\x07\r\x00\x00\x00\x00\x00'
p458
tp459
Rp460
sg32
g6
(S'\x07\xe1\x05\x07\x0f\x00\x00\x00\x00\x00'
p461
tp462
Rp463
sba(imodels.task
HaulageTask
p464
(dp465
g50
I100
sg45
g54
sg47
I185
sg55
g56
sg17
g18
sg36
g6
(S'\x07\xe1\x05\x07\x0f\x00\x00\x00\x00\x00'
p466
tp467
Rp468
sg32
g6
(S'\x07\xe1\x05\x07\x11\x00\x00\x00\x00\x00'
p469
tp470
Rp471
sba(imodels.task
HaulageTask
p472
(dp473
g50
I100
sg45
g54
sg47
I185
sg55
g56
sg17
g18
sg36
g6
(S'\x07\xe1\x05\x07\x11\x00\x00\x00\x00\x00'
p474
tp475
Rp476
sg32
g6
(S'\x07\xe1\x05\x07\x13\x00\x00\x00\x00\x00'
p477
tp478
Rp479
sba(imodels.task
HaulageTask
p480
(dp481
g50
I100
sg45
g54
sg47
I185
sg55
g56
sg17
g18
sg36
g6
(S'\x07\xe1\x05\x07\x13\x00\x00\x00\x00\x00'
p482
tp483
Rp484
sg32
g6
(S'\x07\xe1\x05\x07\x15\x00\x00\x00\x00\x00'
p485
tp486
Rp487
sbasba(imodels.schedule
Schedule
p488
(dp489
g28
g6
(S'\x07\xe1\x05\x08\x00\x00\x00\x00\x00\x00'
p490
tp491
Rp492
sg32
g6
(S'\x07\xe1\x05\x08\x15\x00\x00\x00\x00\x00'
p493
tp494
Rp495
sg17
g18
sg36
g6
(S'\x07\xe1\x05\x08\t\x00\x00\x00\x00\x00'
p496
tp497
Rp498
sg40
(lp499
(imodels.task
DigTask
p500
(dp501
g44
I100
sg45
g46
sg47
I1111
sg17
g18
sg36
g498
sg32
g495
sba(imodels.task
LoadTask
p502
(dp503
g50
I100
sg45
g51
sg47
I1111
sg17
g18
sg36
g498
sg32
g495
sba(imodels.task
HaulageTask
p504
(dp505
g50
I100
sg45
g54
sg47
I185
sg55
g56
sg17
g18
sg36
g6
(S'\x07\xe1\x05\x08\t\x00\x00\x00\x00\x00'
p506
tp507
Rp508
sg32
g6
(S'\x07\xe1\x05\x08\x0b\x00\x00\x00\x00\x00'
p509
tp510
Rp511
sba(imodels.task
HaulageTask
p512
(dp513
g50
I100
sg45
g54
sg47
I185
sg55
g56
sg17
g18
sg36
g6
(S'\x07\xe1\x05\x08\x0b\x00\x00\x00\x00\x00'
p514
tp515
Rp516
sg32
g6
(S'\x07\xe1\x05\x08\r\x00\x00\x00\x00\x00'
p517
tp518
Rp519
sba(imodels.task
HaulageTask
p520
(dp521
g50
I100
sg45
g54
sg47
I185
sg55
g56
sg17
g18
sg36
g6
(S'\x07\xe1\x05\x08\r\x00\x00\x00\x00\x00'
p522
tp523
Rp524
sg32
g6
(S'\x07\xe1\x05\x08\x0f\x00\x00\x00\x00\x00'
p525
tp526
Rp527
sba(imodels.task
HaulageTask
p528
(dp529
g50
I100
sg45
g54
sg47
I185
sg55
g56
sg17
g18
sg36
g6
(S'\x07\xe1\x05\x08\x0f\x00\x00\x00\x00\x00'
p530
tp531
Rp532
sg32
g6
(S'\x07\xe1\x05\x08\x11\x00\x00\x00\x00\x00'
p533
tp534
Rp535
sba(imodels.task
HaulageTask
p536
(dp537
g50
I100
sg45
g54
sg47
I185
sg55
g56
sg17
g18
sg36
g6
(S'\x07\xe1\x05\x08\x11\x00\x00\x00\x00\x00'
p538
tp539
Rp540
sg32
g6
(S'\x07\xe1\x05\x08\x13\x00\x00\x00\x00\x00'
p541
tp542
Rp543
sba(imodels.task
HaulageTask
p544
(dp545
g50
I100
sg45
g54
sg47
I185
sg55
g56
sg17
g18
sg36
g6
(S'\x07\xe1\x05\x08\x13\x00\x00\x00\x00\x00'
p546
tp547
Rp548
sg32
g6
(S'\x07\xe1\x05\x08\x15\x00\x00\x00\x00\x00'
p549
tp550
Rp551
sbasba(imodels.schedule
Schedule
p552
(dp553
g28
g6
(S'\x07\xe1\x05\t\x00\x00\x00\x00\x00\x00'
p554
tp555
Rp556
sg32
g6
(S'\x07\xe1\x05\t\x15\x00\x00\x00\x00\x00'
p557
tp558
Rp559
sg17
g18
sg36
g6
(S'\x07\xe1\x05\t\t\x00\x00\x00\x00\x00'
p560
tp561
Rp562
sg40
(lp563
(imodels.task
DigTask
p564
(dp565
g44
I100
sg45
g46
sg47
I1111
sg17
g18
sg36
g562
sg32
g559
sba(imodels.task
LoadTask
p566
(dp567
g50
I100
sg45
g51
sg47
I1111
sg17
g18
sg36
g562
sg32
g559
sba(imodels.task
HaulageTask
p568
(dp569
g50
I100
sg45
g54
sg47
I185
sg55
g56
sg17
g18
sg36
g6
(S'\x07\xe1\x05\t\t\x00\x00\x00\x00\x00'
p570
tp571
Rp572
sg32
g6
(S'\x07\xe1\x05\t\x0b\x00\x00\x00\x00\x00'
p573
tp574
Rp575
sba(imodels.task
HaulageTask
p576
(dp577
g50
I100
sg45
g54
sg47
I185
sg55
g56
sg17
g18
sg36
g6
(S'\x07\xe1\x05\t\x0b\x00\x00\x00\x00\x00'
p578
tp579
Rp580
sg32
g6
(S'\x07\xe1\x05\t\r\x00\x00\x00\x00\x00'
p581
tp582
Rp583
sba(imodels.task
HaulageTask
p584
(dp585
g50
I100
sg45
g54
sg47
I185
sg55
g56
sg17
g18
sg36
g6
(S'\x07\xe1\x05\t\r\x00\x00\x00\x00\x00'
p586
tp587
Rp588
sg32
g6
(S'\x07\xe1\x05\t\x0f\x00\x00\x00\x00\x00'
p589
tp590
Rp591
sba(imodels.task
HaulageTask
p592
(dp593
g50
I100
sg45
g54
sg47
I185
sg55
g56
sg17
g18
sg36
g6
(S'\x07\xe1\x05\t\x0f\x00\x00\x00\x00\x00'
p594
tp595
Rp596
sg32
g6
(S'\x07\xe1\x05\t\x11\x00\x00\x00\x00\x00'
p597
tp598
Rp599
sba(imodels.task
HaulageTask
p600
(dp601
g50
I100
sg45
g54
sg47
I185
sg55
g56
sg17
g18
sg36
g6
(S'\x07\xe1\x05\t\x11\x00\x00\x00\x00\x00'
p602
tp603
Rp604
sg32
g6
(S'\x07\xe1\x05\t\x13\x00\x00\x00\x00\x00'
p605
tp606
Rp607
sba(imodels.task
HaulageTask
p608
(dp609
g50
I100
sg45
g54
sg47
I185
sg55
g56
sg17
g18
sg36
g6
(S'\x07\xe1\x05\t\x13\x00\x00\x00\x00\x00'
p610
tp611
Rp612
sg32
g6
(S'\x07\xe1\x05\t\x15\x00\x00\x00\x00\x00'
p613
tp614
Rp615
sbasbasbasS'machines'
p616
(lp617
(imodels.machine
Loader
p618
(dp619
S'weightCapacity'
p620
I28
sg40
(lp621
(imodels.task
SubTask
p622
(dp623
S'machine'
p624
g618
sg47
F400.0
sS'cost'
p625
F1979.1976046303791
sg17
g18
sg36
g6
(S'\x07\xe1\x05\x01\t\x00\x00\x00\x00\x00'
p626
tp627
Rp628
sg32
g6
(S'\x07\xe1\x05\x01\x11\x0f/\nC\xfa'
p629
tp630
Rp631
sbasS'staticFeulConsupmtion'
p632
I5
sS'weight'
p633
I10000
sS'speed'
p634
I26
sS'isAvailable'
p635
I01
sS'loadCapacity'
p636
I10
sg17
(imodels.point
Point
p637
(dp638
g20
F40.51513382802257
sg21
I3
sg22
F-112.13631731772568
sg23
I233
sbsS'fuelConsumption'
p639
I10
sS'model'
p640
S'TRX'
p641
sS'fuelCapacity'
p642
I817
sS'id'
p643
I0
sba(imodels.machine
Loader
p644
(dp645
g620
I24
sg40
(lp646
(imodels.task
SubTask
p647
(dp648
g624
g644
sg47
F400.0
sg625
F1595.086707020365
sg17
g18
sg36
g6
(S'\x07\xe1\x05\x01\t\x00\x00\x00\x00\x00'
p649
tp650
Rp651
sg32
g6
(S"\x07\xe1\x05\x01\x11\x06\x1f\x02+'"
p652
tp653
Rp654
sbasg632
I6
sg633
I10000
sg634
I28
sg635
I01
sg636
I10
sg17
(imodels.point
Point
p655
(dp656
g20
F40.522791142637054
sg21
I5
sg22
F-112.14019300788948
sg23
I134
sbsg639
I9
sg640
g641
sg642
I980
sg643
I1
sba(imodels.machine
Loader
p657
(dp658
g620
I40
sg40
(lp659
(imodels.task
SubTask
p660
(dp661
g624
g657
sg47
F400.0
sg625
F1677.339010343503
sg17
g18
sg36
g6
(S'\x07\xe1\x05\x01\t\x00\x00\x00\x00\x00'
p662
tp663
Rp664
sg32
g6
(S'\x07\xe1\x05\x01\x11\x081\x0b\xfb\xc3'
p665
tp666
Rp667
sbasg632
I6
sg633
I10000
sg634
I26
sg635
I01
sg636
I10
sg17
(imodels.point
Point
p668
(dp669
g20
F40.527766933963264
sg21
I4
sg22
F-112.13397834248349
sg23
I238
sbsg639
I9
sg640
g641
sg642
I1128
sg643
I2
sba(imodels.machine
Loader
p670
(dp671
g620
I27
sg40
(lp672
(imodels.task
SubTask
p673
(dp674
g624
g670
sg47
F400.0
sg625
I1060
sg17
g18
sg36
g6
(S'\x07\xe1\x05\x01\t\x00\x00\x00\x00\x00'
p675
tp676
Rp677
sg32
g6
(S'\x07\xe1\x05\x01\x10\x00\x00\x00\x00\x00'
p678
tp679
Rp680
sbasg632
I6
sg633
I10000
sg634
I27
sg635
I01
sg636
I10
sg17
(imodels.point
Point
p681
(dp682
g20
F40.519897
sg21
I2
sg22
F-112.14847299999997
sg23
I230
sbsg639
I11
sg640
g641
sg642
I1048
sg643
I3
sba(imodels.machine
Loader
p683
(dp684
g620
I24
sg40
(lp685
(imodels.task
SubTask
p686
(dp687
g624
g683
sg47
F400.0
sg625
F1454.8386006539097
sg17
g18
sg36
g6
(S'\x07\xe1\x05\x01\t\x00\x00\x00\x00\x00'
p688
tp689
Rp690
sg32
g6
(S'\x07\xe1\x05\x01\x11\x08\x0e\x00^e'
p691
tp692
Rp693
sbasg632
I4
sg633
I10000
sg634
I26
sg635
I01
sg636
I10
sg17
(imodels.point
Point
p694
(dp695
g20
F40.528875990263
sg21
I8
sg22
F-112.13703606076047
sg23
I246
sbsg639
I8
sg640
g641
sg642
I845
sg643
I4
sba(imodels.machine
Shovel
p696
(dp697
g40
(lp698
(imodels.task
SubTask
p699
(dp700
g624
g696
sg47
I352
sg625
F1551.9576475130564
sg17
g18
sg36
g6
(S'\x07\xe1\x05\x01\t\x00\x00\x00\x00\x00'
p701
tp702
Rp703
sg32
g6
(S'\x07\xe1\x05\x01\x11\x00&\tAZ'
p704
tp705
Rp706
sbasg632
I9
sg44
I50
sg633
I10000
sg634
I16
sg635
I01
sg17
(imodels.point
Point
p707
(dp708
g20
F40.52305620857581
sg21
I14
sg22
F-112.15029911276793
sg23
I47
sbsg639
I17
sS'digRate'
p709
I44
sg640
S'ZXF'
p710
sg642
I1443
sg643
I5
sba(imodels.machine
Shovel
p711
(dp712
g40
(lp713
(imodels.task
SubTask
p714
(dp715
g624
g711
sg47
I544
sg625
F1625.903842759285
sg17
g18
sg36
g6
(S'\x07\xe1\x05\x01\t\x00\x00\x00\x00\x00'
p716
tp717
Rp718
sg32
g6
(S'\x07\xe1\x05\x01\x11\x01\x18\x08*\xb2'
p719
tp720
Rp721
sbasg632
I9
sg44
I50
sg633
I10000
sg634
I21
sg635
I01
sg17
(imodels.point
Point
p722
(dp723
g20
F40.523840237856376
sg21
I4
sg22
F-112.15156826920315
sg23
I83
sbsg639
I20
sg709
I68
sg640
g710
sg642
I1067
sg643
I6
sba(imodels.machine
Shovel
p724
(dp725
g40
(lp726
(imodels.task
SubTask
p727
(dp728
g624
g724
sg47
I368
sg625
F1745.6073050383457
sg17
g18
sg36
g6
(S'\x07\xe1\x05\x01\t\x00\x00\x00\x00\x00'
p729
tp730
Rp731
sg32
g6
(S'\x07\xe1\x05\x01\x11\x05\x11\x0e\xd8w'
p732
tp733
Rp734
sbasg632
I8
sg44
I50
sg633
I10000
sg634
I16
sg635
I01
sg17
(imodels.point
Point
p735
(dp736
g20
F40.51865378394097
sg21
I4
sg22
F-112.14797353538222
sg23
I125
sbsg639
I20
sg709
I46
sg640
g710
sg642
I1108
sg643
I7
sba(imodels.machine
Shovel
p737
(dp738
g40
(lp739
(imodels.task
SubTask
p740
(dp741
g624
g737
sg47
I520
sg625
F1672.8253673220797
sg17
g18
sg36
g6
(S'\x07\xe1\x05\x01\t\x00\x00\x00\x00\x00'
p742
tp743
Rp744
sg32
g6
(S'\x07\xe1\x05\x01\x11\x02\x15\x01\x0f\xc2'
p745
tp746
Rp747
sbasg632
I9
sg44
I50
sg633
I10000
sg634
I20
sg635
I01
sg17
(imodels.point
Point
p748
(dp749
g20
F40.51964416685738
sg21
I2
sg22
F-112.15076226431802
sg23
I145
sbsg639
I18
sg709
I65
sg640
g710
sg642
I1443
sg643
I8
sba(imodels.machine
Shovel
p750
(dp751
g40
(lp752
(imodels.task
SubTask
p753
(dp754
g624
g750
sg47
I552
sg625
F1858.9434892690806
sg17
g18
sg36
g6
(S'\x07\xe1\x05\x01\t\x00\x00\x00\x00\x00'
p755
tp756
Rp757
sg32
g6
(S'\x07\xe1\x05\x01\x11\x03%\x0c@w'
p758
tp759
Rp760
sbasg632
I10
sg44
I50
sg633
I10000
sg634
I22
sg635
I01
sg17
(imodels.point
Point
p761
(dp762
g20
F40.5192792223195
sg21
I2
sg22
F-112.14700053644839
sg23
I123
sbsg639
I18
sg709
I69
sg640
g710
sg642
I1354
sg643
I9
sba(imodels.machine
Truck
p763
(dp764
g620
I710
sg40
(lp765
(imodels.task
SubTask
p766
(dp767
g624
g763
sg47
I185
sg625
F173.02108816088878
sg17
g18
sg36
g6
(S'\x07\xe1\x05\x01\t\x00\x00\x00\x00\x00'
p768
tp769
Rp770
sg32
g6
(S'\x07\xe1\x05\x01\n\x008\x06\x85\xd4'
p771
tp772
Rp773
sbasg632
I1
sg633
I10000
sg634
I50
sg635
I01
sg636
I500
sg17
(imodels.point
Point
p774
(dp775
g20
F40.52266284555888
sg21
I1
sg22
F-112.15109951390832
sg23
I84
sbsg639
I8
sg640
S'TRK1'
p776
sg642
I682
sg643
I10
sba(imodels.machine
Truck
p777
(dp778
g620
I716
sg40
(lp779
(imodels.task
SubTask
p780
(dp781
g624
g777
sg47
I185
sg625
F156.86398761588256
sg17
g18
sg36
g6
(S'\x07\xe1\x05\x01\t\x00\x00\x00\x00\x00'
p782
tp783
Rp784
sg32
g6
(S'\x07\xe1\x05\x01\n\x001\x07\x99\xaf'
p785
tp786
Rp787
sbasg632
I1
sg633
I10000
sg634
I57
sg635
I01
sg636
I500
sg17
(imodels.point
Point
p788
(dp789
g20
F40.53073142988414
sg21
I3
sg22
F-112.13919317066586
sg23
I241
sbsg639
I6
sg640
g776
sg642
I748
sg643
I11
sba(imodels.machine
Truck
p790
(dp791
g620
I503
sg40
(lp792
(imodels.task
SubTask
p793
(dp794
g624
g790
sg47
I185
sg625
F164.8827137942189
sg17
g18
sg36
g6
(S'\x07\xe1\x05\x01\t\x00\x00\x00\x00\x00'
p795
tp796
Rp797
sg32
g6
(S'\x07\xe1\x05\x01\n\x00/\x0c\x82\xb7'
p798
tp799
Rp800
sbasg632
I1
sg633
I10000
sg634
I59
sg635
I01
sg636
I500
sg17
g748
sg639
I7
sg640
g776
sg642
I640
sg643
I12
sba(imodels.machine
Truck
p801
(dp802
g620
I644
sg40
(lp803
(imodels.task
SubTask
p804
(dp805
g624
g801
sg47
I185
sg625
F156.84208618189047
sg17
g18
sg36
g6
(S'\x07\xe1\x05\x01\t\x00\x00\x00\x00\x00'
p806
tp807
Rp808
sg32
g6
(S'\x07\xe1\x05\x01\n\x001\x07\x99\xaf'
p809
tp810
Rp811
sbasg632
I1
sg633
I10000
sg634
I57
sg635
I01
sg636
I500
sg17
(imodels.point
Point
p812
(dp813
g20
F40.51616673729683
sg21
I16
sg22
F-112.12066083791603
sg23
I223
sbsg639
I6
sg640
g776
sg642
I775
sg643
I13
sba(imodels.machine
Truck
p814
(dp815
g620
I566
sg40
(lp816
(imodels.task
SubTask
p817
(dp818
g624
g814
sg47
I185
sg625
F173.35055385756186
sg17
g18
sg36
g6
(S'\x07\xe1\x05\x01\t\x00\x00\x00\x00\x00'
p819
tp820
Rp821
sg32
g6
(S'\x07\xe1\x05\x01\n\x01\x05\t[\xe0'
p822
tp823
Rp824
sbasg632
I1
sg633
I10000
sg634
I43
sg635
I01
sg636
I500
sg17
(imodels.point
Point
p825
(dp826
g20
F40.51674876769078
sg21
I4
sg22
F-112.13403198666379
sg23
I234
sbsg639
I8
sg640
g776
sg642
I631
sg643
I14
sba(imodels.machine
Truck
p827
(dp828
g620
I540
sg40
(lp829
(imodels.task
SubTask
p830
(dp831
g624
g827
sg47
I185
sg625
F180.72673485604636
sg17
g18
sg36
g6
(S'\x07\xe1\x05\x01\t\x00\x00\x00\x00\x00'
p832
tp833
Rp834
sg32
g6
(S'\x07\xe1\x05\x01\n\x002\x05\xd2\xeb'
p835
tp836
Rp837
sbasg632
I1
sg633
I10000
sg634
I56
sg635
I01
sg636
I500
sg17
(imodels.point
Point
p838
(dp839
g20
F40.51310284647761
sg21
I2
sg22
F-112.1382324030725
sg23
I232
sbsg639
I9
sg640
g776
sg642
I738
sg643
I15
sba(imodels.machine
Truck
p840
(dp841
g620
I526
sg40
(lp842
(imodels.task
SubTask
p843
(dp844
g624
g840
sg47
I185
sg625
F165.36802656570197
sg17
g18
sg36
g6
(S'\x07\xe1\x05\x01\t\x00\x00\x00\x00\x00'
p845
tp846
Rp847
sg32
g6
(S"\x07\xe1\x05\x01\n\x01\n\x08'I"
p848
tp849
Rp850
sbasg632
I1
sg633
I10000
sg634
I40
sg635
I01
sg636
I500
sg17
(imodels.point
Point
p851
(dp852
g20
F40.52222904690337
sg21
I2
sg22
F-112.15097983410101
sg23
I85
sbsg639
I7
sg640
g776
sg642
I771
sg643
I16
sba(imodels.machine
Truck
p853
(dp854
g620
I622
sg40
(lp855
(imodels.task
SubTask
p856
(dp857
g624
g853
sg47
I185
sg625
F156.9022812754792
sg17
g18
sg36
g6
(S'\x07\xe1\x05\x01\t\x00\x00\x00\x00\x00'
p858
tp859
Rp860
sg32
g6
(S'\x07\xe1\x05\x01\n\x002\x05\xd4%'
p861
tp862
Rp863
sbasg632
I1
sg633
I10000
sg634
I56
sg635
I01
sg636
I500
sg17
(imodels.point
Point
p864
(dp865
g20
F40.51882860152375
sg21
I2
sg22
F-112.15250166522429
sg23
I120
sbsg639
I6
sg640
g776
sg642
I732
sg643
I17
sba(imodels.machine
Truck
p866
(dp867
g620
I413
sg40
(lp868
(imodels.task
SubTask
p869
(dp870
g624
g866
sg47
I185
sg625
F180.63520197072572
sg17
g18
sg36
g6
(S'\x07\xe1\x05\x01\t\x00\x00\x00\x00\x00'
p871
tp872
Rp873
sg32
g6
(S'\x07\xe1\x05\x01\n\x000\t\xd5\x18'
p874
tp875
Rp876
sbasg632
I1
sg633
I10000
sg634
I58
sg635
I01
sg636
I500
sg17
(imodels.point
Point
p877
(dp878
g20
F40.528383625142695
sg21
I2
sg22
F-112.15034251342354
sg23
I81
sbsg639
I9
sg640
g776
sg642
I773
sg643
I18
sba(imodels.machine
Truck
p879
(dp880
g620
I617
sg40
(lp881
(imodels.task
SubTask
p882
(dp883
g624
g879
sg47
I185
sg625
F157.3215367077329
sg17
g18
sg36
g6
(S'\x07\xe1\x05\x01\t\x00\x00\x00\x00\x00'
p884
tp885
Rp886
sg32
g6
(S'\x07\xe1\x05\x01\n\x01\x05\t[\xe0'
p887
tp888
Rp889
sbasg632
I1
sg633
I10000
sg634
I43
sg635
I01
sg636
I500
sg17
(imodels.point
Point
p890
(dp891
g20
F40.51802910641094
sg21
I16
sg22
F-112.1605648358053
sg23
I16
sbsg639
I6
sg640
g776
sg642
I736
sg643
I19
sba(imodels.machine
Truck
p892
(dp893
g620
I700
sg40
(lp894
(imodels.task
SubTask
p895
(dp896
g624
g892
sg47
I185
sg625
F157.17925087436993
sg17
g18
sg36
g6
(S'\x07\xe1\x05\x01\t\x00\x00\x00\x00\x00'
p897
tp898
Rp899
sg32
g6
(S'\x07\xe1\x05\x01\n\x00:\x0b\xe1|'
p900
tp901
Rp902
sbasg632
I1
sg633
I10000
sg634
I48
sg635
I01
sg636
I500
sg17
g774
sg639
I6
sg640
g776
sg642
I685
sg643
I20
sba(imodels.machine
Truck
p903
(dp904
g620
I796
sg40
(lp905
(imodels.task
SubTask
p906
(dp907
g624
g903
sg47
I185
sg625
F181.02423968191562
sg17
g18
sg36
g6
(S'\x07\xe1\x05\x01\t\x00\x00\x00\x00\x00'
p908
tp909
Rp910
sg32
g6
(S'\x07\xe1\x05\x01\n\x007\x04\xe6\x1f'
p911
tp912
Rp913
sbasg632
I1
sg633
I10000
sg634
I51
sg635
I01
sg636
I500
sg17
(imodels.point
Point
p914
(dp915
g20
F40.520930657625264
sg21
I8
sg22
F-112.14018905667513
sg23
I195
sbsg639
I9
sg640
g776
sg642
I632
sg643
I21
sba(imodels.machine
Truck
p916
(dp917
g620
I796
sg40
(lp918
(imodels.task
SubTask
p919
(dp920
g624
g916
sg47
I185
sg625
F181.06071189615886
sg17
g18
sg36
g6
(S'\x07\xe1\x05\x01\t\x00\x00\x00\x00\x00'
p921
tp922
Rp923
sg32
g6
(S'\x07\xe1\x05\x01\n\x007\x04\xe6\x1f'
p924
tp925
Rp926
sbasg632
I1
sg633
I10000
sg634
I51
sg635
I01
sg636
I500
sg17
(imodels.point
Point
p927
(dp928
g20
F40.52740945859946
sg21
I11
sg22
F-112.13075611618962
sg23
I159
sbsg639
I9
sg640
g776
sg642
I612
sg643
I22
sba(imodels.machine
Truck
p929
(dp930
g620
I410
sg40
(lp931
(imodels.task
SubTask
p932
(dp933
g624
g929
sg47
I185
sg625
F188.98735982925876
sg17
g18
sg36
g6
(S'\x07\xe1\x05\x01\t\x00\x00\x00\x00\x00'
p934
tp935
Rp936
sg32
g6
(S'\x07\xe1\x05\x01\n\x007\x04\xe6\x1f'
p937
tp938
Rp939
sbasg632
I1
sg633
I10000
sg634
I51
sg635
I01
sg636
I500
sg17
(imodels.point
Point
p940
(dp941
g20
F40.518991694454094
sg21
I5
sg22
F-112.15212080426022
sg23
I148
sbsg639
I10
sg640
g776
sg642
I631
sg643
I23
sba(imodels.machine
Truck
p942
(dp943
g620
I575
sg40
(lp944
(imodels.task
SubTask
p945
(dp946
g624
g942
sg47
I185
sg625
F173.24752261099232
sg17
g18
sg36
g6
(S'\x07\xe1\x05\x01\t\x00\x00\x00\x00\x00'
p947
tp948
Rp949
sg32
g6
(S'\x07\xe1\x05\x01\n\x01\x05\t[\xe0'
p950
tp951
Rp952
sbasg632
I1
sg633
I10000
sg634
I43
sg635
I01
sg636
I500
sg17
g774
sg639
I8
sg640
g776
sg642
I704
sg643
I24
sba(imodels.machine
Truck
p953
(dp954
g620
I500
sg40
(lp955
(imodels.task
SubTask
p956
(dp957
g624
g953
sg47
I185
sg625
F181.15315144037476
sg17
g18
sg36
g6
(S'\x07\xe1\x05\x01\t\x00\x00\x00\x00\x00'
p958
tp959
Rp960
sg32
g6
(S'\x07\xe1\x05\x01\n\x01\x04\x01\xdd\x13'
p961
tp962
Rp963
sbasg632
I1
sg633
I10000
sg634
I44
sg635
I01
sg636
I500
sg17
(imodels.point
Point
p964
(dp965
g20
F40.530417151348395
sg21
I4
sg22
F-112.15297189238458
sg23
I77
sbsg639
I9
sg640
g776
sg642
I705
sg643
I25
sba(imodels.machine
Truck
p966
(dp967
g620
I404
sg40
(lp968
(imodels.task
SubTask
p969
(dp970
g624
g966
sg47
I185
sg625
F173.25685158066665
sg17
g18
sg36
g6
(S'\x07\xe1\x05\x01\t\x00\x00\x00\x00\x00'
p971
tp972
Rp973
sg32
g6
(S'\x07\xe1\x05\x01\n\x01\x07\x02\xad\xce'
p974
tp975
Rp976
sbasg632
I1
sg633
I10000
sg634
I42
sg635
I01
sg636
I500
sg17
g761
sg639
I8
sg640
g776
sg642
I732
sg643
I26
sba(imodels.machine
Truck
p977
(dp978
g620
I533
sg40
(lp979
(imodels.task
SubTask
p980
(dp981
g624
g977
sg47
I185
sg625
F165.2838555456116
sg17
g18
sg36
g6
(S'\x07\xe1\x05\x01\t\x00\x00\x00\x00\x00'
p982
tp983
Rp984
sg32
g6
(S'\x07\xe1\x05\x01\n\x01\x05\t[\xe0'
p985
tp986
Rp987
sbasg632
I1
sg633
I10000
sg634
I43
sg635
I01
sg636
I500
sg17
g668
sg639
I7
sg640
g776
sg642
I718
sg643
I27
sba(imodels.machine
Truck
p988
(dp989
g620
I762
sg40
(lp990
(imodels.task
SubTask
p991
(dp992
g624
g988
sg47
I185
sg625
F189.21471715345015
sg17
g18
sg36
g6
(S'\x07\xe1\x05\x01\t\x00\x00\x00\x00\x00'
p993
tp994
Rp995
sg32
g6
(S'\x07\xe1\x05\x01\n\x01\x08\x0ck\xab'
p996
tp997
Rp998
sbasg632
I1
sg633
I10000
sg634
I41
sg635
I01
sg636
I500
sg17
(imodels.point
Point
p999
(dp1000
g20
F40.52220498100684
sg21
I3
sg22
F-112.14396165032576
sg23
I3
sbsg639
I10
sg640
g776
sg642
I716
sg643
I28
sba(imodels.machine
Truck
p1001
(dp1002
g620
I787
sg40
(lp1003
(imodels.task
SubTask
p1004
(dp1005
g624
g1001
sg47
I185
sg625
F165.51233347005865
sg17
g18
sg36
g6
(S'\x07\xe1\x05\x01\t\x00\x00\x00\x00\x00'
p1006
tp1007
Rp1008
sg32
g6
(S"\x07\xe1\x05\x01\n\x01\n\x08'I"
p1009
tp1010
Rp1011
sbasg632
I1
sg633
I10000
sg634
I40
sg635
I01
sg636
I500
sg17
(imodels.point
Point
p1012
(dp1013
g20
F40.520300713396445
sg21
I7
sg22
F-112.1516675109367
sg23
I73
sbsg639
I7
sg640
g776
sg642
I641
sg643
I29
sba(imodels.machine
Truck
p1014
(dp1015
g620
I623
sg40
(lp1016
(imodels.task
SubTask
p1017
(dp1018
g624
g1014
sg47
I185
sg625
F156.84027265986882
sg17
g18
sg36
g6
(S'\x07\xe1\x05\x01\t\x00\x00\x00\x00\x00'
p1019
tp1020
Rp1021
sg32
g6
(S'\x07\xe1\x05\x01\n\x00/\x00Z\x96'
p1022
tp1023
Rp1024
sbasg632
I1
sg633
I10000
sg634
I60
sg635
I01
sg636
I500
sg17
g681
sg639
I6
sg640
g776
sg642
I698
sg643
I30
sba(imodels.machine
Truck
p1025
(dp1026
g620
I476
sg40
(lp1027
(imodels.task
SubTask
p1028
(dp1029
g624
g1025
sg47
I185
sg625
F181.12824304642425
sg17
g18
sg36
g6
(S'\x07\xe1\x05\x01\t\x00\x00\x00\x00\x00'
p1030
tp1031
Rp1032
sg32
g6
(S'\x07\xe1\x05\x01\n\x01\x04\x01\xdd\x13'
p1033
tp1034
Rp1035
sbasg632
I1
sg633
I10000
sg634
I44
sg635
I01
sg636
I500
sg17
(imodels.point
Point
p1036
(dp1037
g20
F40.52294721878397
sg21
I6
sg22
F-112.15614411778256
sg23
I79
sbsg639
I9
sg640
g776
sg642
I723
sg643
I31
sba(imodels.machine
Truck
p1038
(dp1039
g620
I734
sg40
(lp1040
(imodels.task
SubTask
p1041
(dp1042
g624
g1038
sg47
I185
sg625
F164.89480812776287
sg17
g18
sg36
g6
(S'\x07\xe1\x05\x01\t\x00\x00\x00\x00\x00'
p1043
tp1044
Rp1045
sg32
g6
(S'\x07\xe1\x05\x01\n\x003\x04\x8a\xe9'
p1046
tp1047
Rp1048
sbasg632
I1
sg633
I10000
sg634
I55
sg635
I01
sg636
I500
sg17
(imodels.point
Point
p1049
(dp1050
g20
F40.52308178440836
sg21
I2
sg22
F-112.15494785501107
sg23
I142
sbsg639
I7
sg640
g776
sg642
I710
sg643
I32
sba(imodels.machine
Truck
p1051
(dp1052
g620
I548
sg40
(lp1053
(imodels.task
SubTask
p1054
(dp1055
g624
g1051
sg47
I185
sg625
F157.3661109901958
sg17
g18
sg36
g6
(S'\x07\xe1\x05\x01\t\x00\x00\x00\x00\x00'
p1056
tp1057
Rp1058
sg32
g6
(S'\x07\xe1\x05\x01\n\x01\x05\t[\xe0'
p1059
tp1060
Rp1061
sbasg632
I1
sg633
I10000
sg634
I43
sg635
I01
sg636
I500
sg17
(imodels.point
Point
p1062
(dp1063
g20
F40.51477419983338
sg21
I6
sg22
F-112.11488943557771
sg23
I213
sbsg639
I6
sg640
g776
sg642
I688
sg643
I33
sba(imodels.machine
Truck
p1064
(dp1065
g620
I461
sg40
(lp1066
(imodels.task
SubTask
p1067
(dp1068
g624
g1064
sg47
I185
sg625
F189.01636773720486
sg17
g18
sg36
g6
(S'\x07\xe1\x05\x01\t\x00\x00\x00\x00\x00'
p1069
tp1070
Rp1071
sg32
g6
(S'\x07\xe1\x05\x01\n\x00:\x0b\xe1|'
p1072
tp1073
Rp1074
sbasg632
I1
sg633
I10000
sg634
I48
sg635
I01
sg636
I500
sg17
(imodels.point
Point
p1075
(dp1076
g20
F40.51283825158735
sg21
I5
sg22
F-112.1338931895906
sg23
I201
sbsg639
I10
sg640
g776
sg642
I667
sg643
I34
sba(imodels.machine
Truck
p1077
(dp1078
g620
I536
sg40
(lp1079
(imodels.task
SubTask
p1080
(dp1081
g624
g1077
sg47
I185
sg625
F165.0096419035937
sg17
g18
sg36
g6
(S'\x07\xe1\x05\x01\t\x00\x00\x00\x00\x00'
p1082
tp1083
Rp1084
sg32
g6
(S'\x07\xe1\x05\x01\n\x005\x03\x8f\xfc'
p1085
tp1086
Rp1087
sbasg632
I1
sg633
I10000
sg634
I53
sg635
I01
sg636
I500
sg17
g722
sg639
I7
sg640
g776
sg642
I658
sg643
I35
sba(imodels.machine
Truck
p1088
(dp1089
g620
I658
sg40
(lp1090
(imodels.task
SubTask
p1091
(dp1092
g624
g1088
sg47
I185
sg625
F156.92231807527327
sg17
g18
sg36
g6
(S'\x07\xe1\x05\x01\t\x00\x00\x00\x00\x00'
p1093
tp1094
Rp1095
sg32
g6
(S'\x07\xe1\x05\x01\n\x00/\x0c\x83\xe1'
p1096
tp1097
Rp1098
sbasg632
I1
sg633
I10000
sg634
I59
sg635
I01
sg636
I500
sg17
(imodels.point
Point
p1099
(dp1100
g20
F40.519089564731466
sg21
I3
sg22
F-112.15094331622777
sg23
I146
sbsg639
I6
sg640
g776
sg642
I641
sg643
I36
sba(imodels.machine
Truck
p1101
(dp1102
g620
I492
sg40
(lp1103
(imodels.task
SubTask
p1104
(dp1105
g624
g1101
sg47
I185
sg625
F180.9358143246496
sg17
g18
sg36
g6
(S'\x07\xe1\x05\x01\t\x00\x00\x00\x00\x00'
p1106
tp1107
Rp1108
sg32
g6
(S'\x07\xe1\x05\x01\n\x009\x08\xd5\xf1'
p1109
tp1110
Rp1111
sbasg632
I1
sg633
I10000
sg634
I49
sg635
I01
sg636
I500
sg17
(imodels.point
Point
p1112
(dp1113
g20
F40.53168320699514
sg21
I31
sg22
F-112.14108619637295
sg23
I31
sbsg639
I9
sg640
g776
sg642
I731
sg643
I37
sba(imodels.machine
Truck
p1114
(dp1115
g620
I541
sg40
(lp1116
(imodels.task
SubTask
p1117
(dp1118
g624
g1114
sg47
I185
sg625
F181.19489782151058
sg17
g18
sg36
g6
(S'\x07\xe1\x05\x01\t\x00\x00\x00\x00\x00'
p1119
tp1120
Rp1121
sg32
g6
(S'\x07\xe1\x05\x01\n\x01\x02\n\xa3k'
p1122
tp1123
Rp1124
sbasg632
I1
sg633
I10000
sg634
I45
sg635
I01
sg636
I500
sg17
g964
sg639
I9
sg640
g776
sg642
I652
sg643
I38
sba(imodels.machine
Truck
p1125
(dp1126
g620
I738
sg40
(lp1127
(imodels.task
SubTask
p1128
(dp1129
g624
g1125
sg47
I185
sg625
F164.86732446762142
sg17
g18
sg36
g6
(S'\x07\xe1\x05\x01\t\x00\x00\x00\x00\x00'
p1130
tp1131
Rp1132
sg32
g6
(S'\x07\xe1\x05\x01\n\x00/\x00Yp'
p1133
tp1134
Rp1135
sbasg632
I1
sg633
I10000
sg634
I60
sg635
I01
sg636
I500
sg17
(imodels.point
Point
p1136
(dp1137
g20
F40.515406038498405
sg21
I7
sg22
F-112.1153125812076
sg23
I214
sbsg639
I7
sg640
g776
sg642
I635
sg643
I39
sba(imodels.machine
Truck
p1138
(dp1139
g620
I561
sg40
(lp1140
(imodels.task
SubTask
p1141
(dp1142
g624
g1138
sg47
I185
sg625
F181.2793481593175
sg17
g18
sg36
g6
(S'\x07\xe1\x05\x01\t\x00\x00\x00\x00\x00'
p1143
tp1144
Rp1145
sg32
g6
(S'\x07\xe1\x05\x01\n\x01\x07\x02\xad\xce'
p1146
tp1147
Rp1148
sbasg632
I1
sg633
I10000
sg634
I42
sg635
I01
sg636
I500
sg17
(imodels.point
Point
p1149
(dp1150
g20
F40.53062720171753
sg21
I1
sg22
F-112.14591685480877
sg23
I74
sbsg639
I9
sg640
g776
sg642
I677
sg643
I40
sba(imodels.machine
Truck
p1151
(dp1152
g620
I625
sg40
(lp1153
(imodels.task
SubTask
p1154
(dp1155
g624
g1151
sg47
I185
sg625
F173.33860759469076
sg17
g18
sg36
g6
(S'\x07\xe1\x05\x01\t\x00\x00\x00\x00\x00'
p1156
tp1157
Rp1158
sg32
g6
(S"\x07\xe1\x05\x01\n\x01\n\x08'I"
p1159
tp1160
Rp1161
sbasg632
I1
sg633
I10000
sg634
I40
sg635
I01
sg636
I500
sg17
(imodels.point
Point
p1162
(dp1163
g20
F40.51938419908192
sg21
I2
sg22
F-112.15045850678587
sg23
I138
sbsg639
I8
sg640
g776
sg642
I742
sg643
I41
sba(imodels.machine
Truck
p1164
(dp1165
g620
I611
sg40
(lp1166
(imodels.task
SubTask
p1167
(dp1168
g624
g1164
sg47
I185
sg625
F157.36228553326234
sg17
g18
sg36
g6
(S'\x07\xe1\x05\x01\t\x00\x00\x00\x00\x00'
p1169
tp1170
Rp1171
sg32
g6
(S'\x07\xe1\x05\x01\n\x01\x08\x0ck\xab'
p1172
tp1173
Rp1174
sbasg632
I1
sg633
I10000
sg634
I41
sg635
I01
sg636
I500
sg17
(imodels.point
Point
p1175
(dp1176
g20
F40.52345285661486
sg21
I3
sg22
F-112.14888069577023
sg23
I66
sbsg639
I6
sg640
g776
sg642
I796
sg643
I42
sba(imodels.machine
Truck
p1177
(dp1178
g620
I535
sg40
(lp1179
(imodels.task
SubTask
p1180
(dp1181
g624
g1177
sg47
I185
sg625
F156.91683085034015
sg17
g18
sg36
g6
(S'\x07\xe1\x05\x01\t\x00\x00\x00\x00\x00'
p1182
tp1183
Rp1184
sg32
g6
(S'\x07\xe1\x05\x01\n\x001\x07\x99\xaf'
p1185
tp1186
Rp1187
sbasg632
I1
sg633
I10000
sg634
I57
sg635
I01
sg636
I500
sg17
(imodels.point
Point
p1188
(dp1189
g20
F40.53105432014323
sg21
I2
sg22
F-112.14738744003029
sg23
I75
sbsg639
I6
sg640
g776
sg642
I690
sg643
I43
sba(imodels.machine
Truck
p1190
(dp1191
g620
I644
sg40
(lp1192
(imodels.task
SubTask
p1193
(dp1194
g624
g1190
sg47
I185
sg625
F188.7912087740238
sg17
g18
sg36
g6
(S'\x07\xe1\x05\x01\t\x00\x00\x00\x00\x00'
p1195
tp1196
Rp1197
sg32
g6
(S'\x07\xe1\x05\x01\n\x003\x04\x8a\xe9'
p1198
tp1199
Rp1200
sbasg632
I1
sg633
I10000
sg634
I55
sg635
I01
sg636
I500
sg17
(imodels.point
Point
p1201
(dp1202
g20
F40.50971492414702
sg21
I10
sg22
F-112.14944999585163
sg23
I206
sbsg639
I10
sg640
g776
sg642
I677
sg643
I44
sba(imodels.machine
Truck
p1203
(dp1204
g620
I421
sg40
(lp1205
(imodels.task
SubTask
p1206
(dp1207
g624
g1203
sg47
I185
sg625
F156.97854127164368
sg17
g18
sg36
g6
(S'\x07\xe1\x05\x01\t\x00\x00\x00\x00\x00'
p1208
tp1209
Rp1210
sg32
g6
(S'\x07\xe1\x05\x01\n\x002\x05\xd2\xeb'
p1211
tp1212
Rp1213
sbasg632
I1
sg633
I10000
sg634
I56
sg635
I01
sg636
I500
sg17
(imodels.point
Point
p1214
(dp1215
g20
F40.524900429038105
sg21
I8
sg22
F-112.15478156110925
sg23
I102
sbsg639
I6
sg640
g776
sg642
I654
sg643
I45
sba(imodels.machine
Truck
p1216
(dp1217
g620
I461
sg40
(lp1218
(imodels.task
SubTask
p1219
(dp1220
g624
g1216
sg47
I185
sg625
F165.054638009201
sg17
g18
sg36
g6
(S'\x07\xe1\x05\x01\t\x00\x00\x00\x00\x00'
p1221
tp1222
Rp1223
sg32
g6
(S'\x07\xe1\x05\x01\n\x00:\x0b\xe1|'
p1224
tp1225
Rp1226
sbasg632
I1
sg633
I10000
sg634
I48
sg635
I01
sg636
I500
sg17
(imodels.point
Point
p1227
(dp1228
g20
F40.525908608790786
sg21
I4
sg22
F-112.14826781586851
sg23
I91
sbsg639
I7
sg640
g776
sg642
I757
sg643
I46
sba(imodels.machine
Truck
p1229
(dp1230
g620
I548
sg40
(lp1231
(imodels.task
SubTask
p1232
(dp1233
g624
g1229
sg47
I185
sg625
F180.8038241114492
sg17
g18
sg36
g6
(S'\x07\xe1\x05\x01\t\x00\x00\x00\x00\x00'
p1234
tp1235
Rp1236
sg32
g6
(S'\x07\xe1\x05\x01\n\x004\x03\xc7o'
p1237
tp1238
Rp1239
sbasg632
I1
sg633
I10000
sg634
I54
sg635
I01
sg636
I500
sg17
(imodels.point
Point
p1240
(dp1241
g20
F40.51024793425604
sg21
I11
sg22
F-112.15380523152157
sg23
I207
sbsg639
I9
sg640
g776
sg642
I719
sg643
I47
sba(imodels.machine
Truck
p1242
(dp1243
g620
I714
sg40
(lp1244
(imodels.task
SubTask
p1245
(dp1246
g624
g1242
sg47
I185
sg625
F172.83725333091527
sg17
g18
sg36
g6
(S'\x07\xe1\x05\x01\t\x00\x00\x00\x00\x00'
p1247
tp1248
Rp1249
sg32
g6
(S'\x07\xe1\x05\x01\n\x002\x05\xd2\xeb'
p1250
tp1251
Rp1252
sbasg632
I1
sg633
I10000
sg634
I56
sg635
I01
sg636
I500
sg17
(imodels.point
Point
p1253
(dp1254
g20
F40.519089564731466
sg21
I4
sg22
F-112.15094331622777
sg23
I140
sbsg639
I8
sg640
g776
sg642
I694
sg643
I48
sba(imodels.machine
Truck
p1255
(dp1256
g620
I621
sg40
(lp1257
(imodels.task
SubTask
p1258
(dp1259
g624
g1255
sg47
I185
sg625
F164.86868714542703
sg17
g18
sg36
g6
(S'\x07\xe1\x05\x01\t\x00\x00\x00\x00\x00'
p1260
tp1261
Rp1262
sg32
g6
(S'\x07\xe1\x05\x01\n\x00/\x00Yp'
p1263
tp1264
Rp1265
sbasg632
I1
sg633
I10000
sg634
I60
sg635
I01
sg636
I500
sg17
(imodels.point
Point
p1266
(dp1267
g20
F40.517122510265644
sg21
I7
sg22
F-112.15331366397902
sg23
I128
sbsg639
I7
sg640
g776
sg642
I634
sg643
I49
sbas.