(dp0
S'map'
p1
(imodels.map
Map
p2
(dp3
S'roads'
p4
(lp5
(imodels.road
Road
p6
(dp7
S'points'
p8
(lp9
(imodels.point
Point
p10
(dp11
S'lat'
p12
F40.527179779080214
sS'lng'
p13
F-112.14562985844418
sS'nid'
p14
I0
sba(imodels.point
Point
p15
(dp16
g12
F40.52481063848461
sg13
F-112.14410371875732
sg14
I1
sba(imodels.point
Point
p17
(dp18
g12
F40.52220498100684
sg13
F-112.14396165032576
sg14
I2
sba(imodels.point
Point
p19
(dp20
g12
F40.51865378394097
sg13
F-112.14797353538222
sg14
I3
sba(imodels.point
Point
p21
(dp22
g12
F40.518991694454094
sg13
F-112.15212080426022
sg14
I4
sba(imodels.point
Point
p23
(dp24
g12
F40.518991694454094
sg13
F-112.15212080426022
sg14
I5
sba(imodels.point
Point
p25
(dp26
g12
F40.518991694454094
sg13
F-112.15212080426022
sg14
I6
sba(imodels.point
Point
p27
(dp28
g12
F40.52108109681687
sg13
F-112.15296835079641
sg14
I7
sba(imodels.point
Point
p29
(dp30
g12
F40.5229309078227
sg13
F-112.15563986248776
sg14
I8
sba(imodels.point
Point
p31
(dp32
g12
F40.5229309078227
sg13
F-112.15563986248776
sg14
I9
sba(imodels.point
Point
p33
(dp34
g12
F40.5229309078227
sg13
F-112.15563986248776
sg14
I10
sba(imodels.point
Point
p35
(dp36
g12
F40.5229309078227
sg13
F-112.15563986248776
sg14
I11
sba(imodels.point
Point
p37
(dp38
g12
F40.5229309078227
sg13
F-112.15563986248776
sg14
I12
sba(imodels.point
Point
p39
(dp40
g12
F40.52062271585255
sg13
F-112.15972248580744
sg14
I13
sba(imodels.point
Point
p41
(dp42
g12
F40.51935853556928
sg13
F-112.16057282239603
sg14
I14
sba(imodels.point
Point
p43
(dp44
g12
F40.51802910641094
sg13
F-112.1605648358053
sg14
I15
sba(imodels.point
Point
p45
(dp46
g12
F40.517117808895
sg13
F-112.15653490256864
sg14
I16
sba(imodels.point
Point
p47
(dp48
g12
F40.5167446895738
sg13
F-112.15372476525113
sg14
I17
sba(imodels.point
Point
p49
(dp50
g12
F40.5167446895738
sg13
F-112.15372476525113
sg14
I18
sba(imodels.point
Point
p51
(dp52
g12
F40.516240924447345
sg13
F-112.14992364912848
sg14
I19
sba(imodels.point
Point
p53
(dp54
g12
F40.51644169101281
sg13
F-112.14704507776895
sg14
I20
sba(imodels.point
Point
p55
(dp56
g12
F40.51704207491591
sg13
F-112.14552904055648
sg14
I21
sba(imodels.point
Point
p57
(dp58
g12
F40.51802580379146
sg13
F-112.14339068607933
sg14
I22
sba(imodels.point
Point
p59
(dp60
g12
F40.520930657625264
sg13
F-112.14018905667513
sg14
I23
sba(imodels.point
Point
p61
(dp62
g12
F40.520930657625264
sg13
F-112.14018905667513
sg14
I24
sba(imodels.point
Point
p63
(dp64
g12
F40.520930657625264
sg13
F-112.14018905667513
sg14
I25
sba(imodels.point
Point
p65
(dp66
g12
F40.52284920562756
sg13
F-112.13894582837514
sg14
I26
sba(imodels.point
Point
p67
(dp68
g12
F40.523901227580545
sg13
F-112.13921402058872
sg14
I27
sba(imodels.point
Point
p69
(dp70
g12
F40.5272837547989
sg13
F-112.13899407334134
sg14
I28
sba(imodels.point
Point
p71
(dp72
g12
F40.53152929205798
sg13
F-112.14053094217684
sg14
I29
sba(imodels.point
Point
p73
(dp74
g12
F40.53152929205798
sg13
F-112.14053094217684
sg14
I30
sba(imodels.point
Point
p75
(dp76
g12
F40.53335972612005
sg13
F-112.14454955138109
sg14
I31
sba(imodels.point
Point
p77
(dp78
g12
F40.5342905309938
sg13
F-112.14583370632931
sg14
I32
sbasS'type'
p79
S'dirt'
p80
sS'id'
p81
I0
sS'name'
p82
S'R'
p83
sba(imodels.road
Road
p84
(dp85
g8
(lp86
(imodels.point
Point
p87
(dp88
g12
F40.52369853813562
sg13
F-112.14936751670643
sg14
I33
sba(imodels.point
Point
p89
(dp90
g12
F40.52369853813562
sg13
F-112.14936751670643
sg14
I34
sba(imodels.point
Point
p91
(dp92
g12
F40.52369853813562
sg13
F-112.14936751670643
sg14
I35
sba(imodels.point
Point
p93
(dp94
g12
F40.52369853813562
sg13
F-112.14936751670643
sg14
I36
sba(imodels.point
Point
p95
(dp96
g12
F40.52369853813562
sg13
F-112.14936751670643
sg14
I37
sba(imodels.point
Point
p97
(dp98
g12
F40.52369853813562
sg13
F-112.14936751670643
sg14
I38
sba(imodels.point
Point
p99
(dp100
g12
F40.52369853813562
sg13
F-112.14936751670643
sg14
I39
sba(imodels.point
Point
p101
(dp102
g12
F40.52369853813562
sg13
F-112.14936751670643
sg14
I40
sba(imodels.point
Point
p103
(dp104
g12
F40.52369853813562
sg13
F-112.14936751670643
sg14
I41
sba(imodels.point
Point
p105
(dp106
g12
F40.52369853813562
sg13
F-112.14936751670643
sg14
I42
sba(imodels.point
Point
p107
(dp108
g12
F40.5224649901301
sg13
F-112.15391785781912
sg14
I43
sba(imodels.point
Point
p109
(dp110
g12
F40.5224649901301
sg13
F-112.15391785781912
sg14
I44
sba(imodels.point
Point
p111
(dp112
g12
F40.52369853813562
sg13
F-112.14936751670643
sg14
I45
sba(imodels.point
Point
p113
(dp114
g12
F40.5224649901301
sg13
F-112.15391785781912
sg14
I46
sba(imodels.point
Point
p115
(dp116
g12
F40.5224649901301
sg13
F-112.15391785781912
sg14
I47
sba(imodels.point
Point
p117
(dp118
g12
F40.52144455481663
sg13
F-112.14980874008938
sg14
I48
sba(imodels.point
Point
p119
(dp120
g12
F40.52144455481663
sg13
F-112.14980874008938
sg14
I49
sba(imodels.point
Point
p121
(dp122
g12
F40.52144455481663
sg13
F-112.14980874008938
sg14
I50
sba(imodels.point
Point
p123
(dp124
g12
F40.5224649901301
sg13
F-112.15391785781912
sg14
I51
sba(imodels.point
Point
p125
(dp126
g12
F40.5224649901301
sg13
F-112.15391785781912
sg14
I52
sba(imodels.point
Point
p127
(dp128
g12
F40.52387895130079
sg13
F-112.15300591635344
sg14
I53
sba(imodels.point
Point
p129
(dp130
g12
F40.52387895130079
sg13
F-112.15300591635344
sg14
I54
sba(imodels.point
Point
p131
(dp132
g12
F40.52387895130079
sg13
F-112.15300591635344
sg14
I55
sba(imodels.point
Point
p133
(dp134
g12
F40.5224649901301
sg13
F-112.15391785781912
sg14
I56
sba(imodels.point
Point
p135
(dp136
g12
F40.5224649901301
sg13
F-112.15391785781912
sg14
I57
sba(imodels.point
Point
p137
(dp138
g12
F40.518991694454094
sg13
F-112.15212080426022
sg14
I58
sba(imodels.point
Point
p139
(dp140
g12
F40.518991694454094
sg13
F-112.15212080426022
sg14
I59
sba(imodels.point
Point
p141
(dp142
g12
F40.518991694454094
sg13
F-112.15212080426022
sg14
I60
sba(imodels.point
Point
p143
(dp144
g12
F40.52108109681687
sg13
F-112.15296835079641
sg14
I61
sba(imodels.point
Point
p145
(dp146
g12
F40.52196651518252
sg13
F-112.15500686116025
sg14
I62
sbasg79
g80
sg81
I1
sg82
g83
sba(imodels.road
Road
p147
(dp148
g8
(lp149
(imodels.point
Point
p150
(dp151
g12
F40.52369853813562
sg13
F-112.14936751670643
sg14
I63
sba(imodels.point
Point
p152
(dp153
g12
F40.52369853813562
sg13
F-112.14936751670643
sg14
I64
sba(imodels.point
Point
p154
(dp155
g12
F40.52369853813562
sg13
F-112.14936751670643
sg14
I65
sbasg79
g80
sg81
I2
sg82
g83
sba(imodels.road
Road
p156
(dp157
g8
(lp158
(imodels.point
Point
p159
(dp160
g12
F40.5224649901301
sg13
F-112.15391785781912
sg14
I66
sba(imodels.point
Point
p161
(dp162
g12
F40.5224649901301
sg13
F-112.15391785781912
sg14
I67
sba(imodels.point
Point
p163
(dp164
g12
F40.52387895130079
sg13
F-112.15300591635344
sg14
I68
sba(imodels.point
Point
p165
(dp166
g12
F40.52387895130079
sg13
F-112.15300591635344
sg14
I69
sba(imodels.point
Point
p167
(dp168
g12
F40.5224649901301
sg13
F-112.15391785781912
sg14
I70
sba(imodels.point
Point
p169
(dp170
g12
F40.52108109681687
sg13
F-112.15296835079641
sg14
I71
sba(imodels.point
Point
p171
(dp172
g12
F40.518991694454094
sg13
F-112.15212080426022
sg14
I72
sbasg79
g80
sg81
I3
sg82
g83
sba(imodels.road
Road
p173
(dp174
g8
(lp175
(imodels.point
Point
p176
(dp177
g12
F40.53062720171753
sg13
F-112.14591685480877
sg14
I73
sba(imodels.point
Point
p178
(dp179
g12
F40.53105432014323
sg13
F-112.14738744003029
sg14
I74
sba(imodels.point
Point
p180
(dp181
g12
F40.53127343080907
sg13
F-112.15153489693762
sg14
I75
sba(imodels.point
Point
p182
(dp183
g12
F40.530417151348395
sg13
F-112.15297189238458
sg14
I76
sba(imodels.point
Point
p184
(dp185
g12
F40.52443965494404
sg13
F-112.15533945507809
sg14
I77
sba(imodels.point
Point
p186
(dp187
g12
F40.5229309078227
sg13
F-112.15563986248776
sg14
I78
sbasg79
g80
sg81
I4
sg82
g83
sba(imodels.road
Road
p188
(dp189
g8
(lp190
(imodels.point
Point
p191
(dp192
g12
F40.527597683697266
sg13
F-112.15038007082154
sg14
I79
sba(imodels.point
Point
p193
(dp194
g12
F40.527597683697266
sg13
F-112.15038007082154
sg14
I80
sba(imodels.point
Point
p195
(dp196
g12
F40.527597683697266
sg13
F-112.15038007082154
sg14
I81
sba(imodels.point
Point
p197
(dp198
g12
F40.523840237856376
sg13
F-112.15156826920315
sg14
I82
sbasg79
g80
sg81
I5
sg82
g83
sba(imodels.road
Road
p199
(dp200
g8
(lp201
(imodels.point
Point
p202
(dp203
g12
F40.52144455481663
sg13
F-112.14980874008938
sg14
I83
sba(imodels.point
Point
p204
(dp205
g12
F40.52144455481663
sg13
F-112.14980874008938
sg14
I84
sba(imodels.point
Point
p206
(dp207
g12
F40.52144455481663
sg13
F-112.14980874008938
sg14
I85
sba(imodels.point
Point
p208
(dp209
g12
F40.52144455481663
sg13
F-112.14980874008938
sg14
I86
sbasg79
g80
sg81
I6
sg82
g83
sba(imodels.road
Road
p210
(dp211
g8
(lp212
(imodels.point
Point
p213
(dp214
g12
F40.52406145192949
sg13
F-112.14723784274861
sg14
I87
sba(imodels.point
Point
p215
(dp216
g12
F40.52505944774498
sg13
F-112.1482852548599
sg14
I88
sba(imodels.point
Point
p217
(dp218
g12
F40.52505944774498
sg13
F-112.1482852548599
sg14
I89
sba(imodels.point
Point
p219
(dp220
g12
F40.52505944774498
sg13
F-112.1482852548599
sg14
I90
sba(imodels.point
Point
p221
(dp222
g12
F40.52505944774498
sg13
F-112.1482852548599
sg14
I91
sba(imodels.point
Point
p223
(dp224
g12
F40.52369853813562
sg13
F-112.14936751670643
sg14
I92
sba(imodels.point
Point
p225
(dp226
g12
F40.52369853813562
sg13
F-112.14936751670643
sg14
I93
sbasg79
g80
sg81
I7
sg82
g83
sba(imodels.road
Road
p227
(dp228
g8
(lp229
(imodels.point
Point
p230
(dp231
g12
F40.52960991448731
sg13
F-112.14773539252087
sg14
I94
sba(imodels.point
Point
p232
(dp233
g12
F40.53002936641421
sg13
F-112.14985069036732
sg14
I95
sba(imodels.point
Point
p234
(dp235
g12
F40.52937238411766
sg13
F-112.15080726847532
sg14
I96
sba(imodels.point
Point
p236
(dp237
g12
F40.52754659020056
sg13
F-112.15193456723233
sg14
I97
sba(imodels.point
Point
p238
(dp239
g12
F40.52754659020056
sg13
F-112.15193456723233
sg14
I98
sba(imodels.point
Point
p240
(dp241
g12
F40.52671822875951
sg13
F-112.15303333533564
sg14
I99
sba(imodels.point
Point
p242
(dp243
g12
F40.52443965494404
sg13
F-112.15533945507809
sg14
I100
sba(imodels.point
Point
p244
(dp245
g12
F40.52443965494404
sg13
F-112.15533945507809
sg14
I101
sba(imodels.point
Point
p246
(dp247
g12
F40.52443965494404
sg13
F-112.15533945507809
sg14
I102
sbasg79
g80
sg81
I8
sg82
g83
sba(imodels.road
Road
p248
(dp249
g8
(lp250
(imodels.point
Point
p251
(dp252
g12
F40.518991694454094
sg13
F-112.15212080426022
sg14
I103
sba(imodels.point
Point
p253
(dp254
g12
F40.518991694454094
sg13
F-112.15212080426022
sg14
I104
sba(imodels.point
Point
p255
(dp256
g12
F40.519697181358865
sg13
F-112.15714458174511
sg14
I105
sba(imodels.point
Point
p257
(dp258
g12
F40.519697181358865
sg13
F-112.15714458174511
sg14
I106
sba(imodels.point
Point
p259
(dp260
g12
F40.519697181358865
sg13
F-112.15714458174511
sg14
I107
sba(imodels.point
Point
p261
(dp262
g12
F40.519697181358865
sg13
F-112.15714458174511
sg14
I108
sba(imodels.point
Point
p263
(dp264
g12
F40.519697181358865
sg13
F-112.15714458174511
sg14
I109
sba(imodels.point
Point
p265
(dp266
g12
F40.519697181358865
sg13
F-112.15714458174511
sg14
I110
sba(imodels.point
Point
p267
(dp268
g12
F40.519697181358865
sg13
F-112.15714458174511
sg14
I111
sba(imodels.point
Point
p269
(dp270
g12
F40.519697181358865
sg13
F-112.15714458174511
sg14
I112
sba(imodels.point
Point
p271
(dp272
g12
F40.519697181358865
sg13
F-112.15714458174511
sg14
I113
sba(imodels.point
Point
p273
(dp274
g12
F40.52196651518252
sg13
F-112.15500686116025
sg14
I114
sba(imodels.point
Point
p275
(dp276
g12
F40.52196651518252
sg13
F-112.15500686116025
sg14
I115
sba(imodels.point
Point
p277
(dp278
g12
F40.52196651518252
sg13
F-112.15500686116025
sg14
I116
sba(imodels.point
Point
p279
(dp280
g12
F40.52196651518252
sg13
F-112.15500686116025
sg14
I117
sbasg79
g80
sg81
I9
sg82
g83
sba(imodels.road
Road
p281
(dp282
g8
(lp283
(imodels.point
Point
p284
(dp285
g12
F40.518991694454094
sg13
F-112.15212080426022
sg14
I118
sba(imodels.point
Point
p286
(dp287
g12
F40.518991694454094
sg13
F-112.15212080426022
sg14
I119
sba(imodels.point
Point
p288
(dp289
g12
F40.519697181358865
sg13
F-112.15714458174511
sg14
I120
sbasg79
g80
sg81
I10
sg82
g83
sba(imodels.road
Road
p290
(dp291
g8
(lp292
(imodels.point
Point
p293
(dp294
g12
F40.51865378394097
sg13
F-112.14797353538222
sg14
I121
sba(imodels.point
Point
p295
(dp296
g12
F40.51865378394097
sg13
F-112.14797353538222
sg14
I122
sba(imodels.point
Point
p297
(dp298
g12
F40.51865378394097
sg13
F-112.14797353538222
sg14
I123
sba(imodels.point
Point
p299
(dp300
g12
F40.51865378394097
sg13
F-112.14797353538222
sg14
I124
sba(imodels.point
Point
p301
(dp302
g12
F40.51756673417712
sg13
F-112.14983263492104
sg14
I125
sba(imodels.point
Point
p303
(dp304
g12
F40.5167446895738
sg13
F-112.15372476525113
sg14
I126
sba(imodels.point
Point
p305
(dp306
g12
F40.5167446895738
sg13
F-112.15372476525113
sg14
I127
sba(imodels.point
Point
p307
(dp308
g12
F40.5167446895738
sg13
F-112.15372476525113
sg14
I128
sbasg79
g80
sg81
I11
sg82
g83
sba(imodels.road
Road
p309
(dp310
g8
(lp311
(imodels.point
Point
p312
(dp313
g12
F40.53019297078088
sg13
F-112.14367184586331
sg14
I129
sba(imodels.point
Point
p314
(dp315
g12
F40.528067561722764
sg13
F-112.14214828710544
sg14
I130
sba(imodels.point
Point
p316
(dp317
g12
F40.52560778799078
sg13
F-112.14102178593572
sg14
I131
sba(imodels.point
Point
p318
(dp319
g12
F40.524452280723104
sg13
F-112.14027479428802
sg14
I132
sba(imodels.point
Point
p320
(dp321
g12
F40.522791142637054
sg13
F-112.14019300788948
sg14
I133
sba(imodels.point
Point
p322
(dp323
g12
F40.520930657625264
sg13
F-112.14018905667513
sg14
I134
sba(imodels.point
Point
p324
(dp325
g12
F40.51919151519808
sg13
F-112.14201155848309
sg14
I135
sbasg79
g80
sg81
I12
sg82
g83
sba(imodels.road
Road
p326
(dp327
g8
(lp328
(imodels.point
Point
p329
(dp330
g12
F40.518991694454094
sg13
F-112.15212080426022
sg14
I136
sba(imodels.point
Point
p331
(dp332
g12
F40.518991694454094
sg13
F-112.15212080426022
sg14
I137
sba(imodels.point
Point
p333
(dp334
g12
F40.518991694454094
sg13
F-112.15212080426022
sg14
I138
sba(imodels.point
Point
p335
(dp336
g12
F40.518991694454094
sg13
F-112.15212080426022
sg14
I139
sbasg79
g80
sg81
I13
sg82
g83
sba(imodels.road
Road
p337
(dp338
g8
(lp339
(imodels.point
Point
p340
(dp341
g12
F40.5229309078227
sg13
F-112.15563986248776
sg14
I140
sba(imodels.point
Point
p342
(dp343
g12
F40.5229309078227
sg13
F-112.15563986248776
sg14
I141
sba(imodels.point
Point
p344
(dp345
g12
F40.5229309078227
sg13
F-112.15563986248776
sg14
I142
sbasg79
g80
sg81
I14
sg82
g83
sba(imodels.road
Road
p346
(dp347
g8
(lp348
(imodels.point
Point
p349
(dp350
g12
F40.518991694454094
sg13
F-112.15212080426022
sg14
I143
sba(imodels.point
Point
p351
(dp352
g12
F40.518991694454094
sg13
F-112.15212080426022
sg14
I144
sba(imodels.point
Point
p353
(dp354
g12
F40.518991694454094
sg13
F-112.15212080426022
sg14
I145
sba(imodels.point
Point
p355
(dp356
g12
F40.518991694454094
sg13
F-112.15212080426022
sg14
I146
sba(imodels.point
Point
p357
(dp358
g12
F40.518991694454094
sg13
F-112.15212080426022
sg14
I147
sbasg79
g80
sg81
I15
sg82
g83
sba(imodels.road
Road
p359
(dp360
g8
(lp361
(imodels.point
Point
p362
(dp363
g12
F40.5272837547989
sg13
F-112.13899407334134
sg14
I148
sba(imodels.point
Point
p364
(dp365
g12
F40.528875990263
sg13
F-112.13703606076047
sg14
I149
sba(imodels.point
Point
p366
(dp367
g12
F40.528875990263
sg13
F-112.13703606076047
sg14
I150
sba(imodels.point
Point
p368
(dp369
g12
F40.528875990263
sg13
F-112.13703606076047
sg14
I151
sba(imodels.point
Point
p370
(dp371
g12
F40.528875990263
sg13
F-112.13703606076047
sg14
I152
sba(imodels.point
Point
p372
(dp373
g12
F40.528875990263
sg13
F-112.13703606076047
sg14
I153
sba(imodels.point
Point
p374
(dp375
g12
F40.527766933963264
sg13
F-112.13397834248349
sg14
I154
sba(imodels.point
Point
p376
(dp377
g12
F40.527766933963264
sg13
F-112.13397834248349
sg14
I155
sba(imodels.point
Point
p378
(dp379
g12
F40.52837694513573
sg13
F-112.1321577141282
sg14
I156
sba(imodels.point
Point
p380
(dp381
g12
F40.52740945859946
sg13
F-112.13075611618962
sg14
I157
sba(imodels.point
Point
p382
(dp383
g12
F40.52740945859946
sg13
F-112.13075611618962
sg14
I158
sba(imodels.point
Point
p384
(dp385
g12
F40.52837694513573
sg13
F-112.1321577141282
sg14
I159
sba(imodels.point
Point
p386
(dp387
g12
F40.529410781839964
sg13
F-112.13327242958962
sg14
I160
sba(imodels.point
Point
p388
(dp389
g12
F40.529410781839964
sg13
F-112.13327242958962
sg14
I161
sba(imodels.point
Point
p390
(dp391
g12
F40.529410781839964
sg13
F-112.13327242958962
sg14
I162
sba(imodels.point
Point
p392
(dp393
g12
F40.529410781839964
sg13
F-112.13327242958962
sg14
I163
sba(imodels.point
Point
p394
(dp395
g12
F40.52933651991315
sg13
F-112.1279538565513
sg14
I164
sba(imodels.point
Point
p396
(dp397
g12
F40.52933651991315
sg13
F-112.1279538565513
sg14
I165
sba(imodels.point
Point
p398
(dp399
g12
F40.52933651991315
sg13
F-112.1279538565513
sg14
I166
sba(imodels.point
Point
p400
(dp401
g12
F40.531379340915265
sg13
F-112.13140329368042
sg14
I167
sba(imodels.point
Point
p402
(dp403
g12
F40.531379340915265
sg13
F-112.13140329368042
sg14
I168
sba(imodels.point
Point
p404
(dp405
g12
F40.53116047444245
sg13
F-112.12850476403491
sg14
I169
sba(imodels.point
Point
p406
(dp407
g12
F40.530778467845444
sg13
F-112.126566486902
sg14
I170
sba(imodels.point
Point
p408
(dp409
g12
F40.529745322754735
sg13
F-112.12517905680045
sg14
I171
sba(imodels.point
Point
p410
(dp411
g12
F40.52746676529191
sg13
F-112.12498634116253
sg14
I172
sba(imodels.point
Point
p412
(dp413
g12
F40.52442654336232
sg13
F-112.12470820352326
sg14
I173
sba(imodels.point
Point
p414
(dp415
g12
F40.52442654336232
sg13
F-112.12470820352326
sg14
I174
sba(imodels.point
Point
p416
(dp417
g12
F40.52178811121781
sg13
F-112.12502244658276
sg14
I175
sba(imodels.point
Point
p418
(dp419
g12
F40.52179587005564
sg13
F-112.12731354130256
sg14
I176
sba(imodels.point
Point
p420
(dp421
g12
F40.520606816772116
sg13
F-112.1302654914814
sg14
I177
sba(imodels.point
Point
p422
(dp423
g12
F40.520606816772116
sg13
F-112.1302654914814
sg14
I178
sba(imodels.point
Point
p424
(dp425
g12
F40.520606816772116
sg13
F-112.1302654914814
sg14
I179
sba(imodels.point
Point
p426
(dp427
g12
F40.51674876769078
sg13
F-112.13403198666379
sg14
I180
sba(imodels.point
Point
p428
(dp429
g12
F40.51243249665109
sg13
F-112.1367471021897
sg14
I181
sba(imodels.point
Point
p430
(dp431
g12
F40.512000467432195
sg13
F-112.13856695319538
sg14
I182
sba(imodels.point
Point
p432
(dp433
g12
F40.51129108105971
sg13
F-112.14017219832942
sg14
I183
sba(imodels.point
Point
p434
(dp435
g12
F40.51067978686863
sg13
F-112.14300713381647
sg14
I184
sba(imodels.point
Point
p436
(dp437
g12
F40.50971492414702
sg13
F-112.14944999585163
sg14
I185
sba(imodels.point
Point
p438
(dp439
g12
F40.51024793425604
sg13
F-112.15380523152157
sg14
I186
sbasg79
g80
sg81
I16
sg82
g83
sba(imodels.road
Road
p440
(dp441
g8
(lp442
(imodels.point
Point
p443
(dp444
g12
F40.529357119273065
sg13
F-112.14197132534787
sg14
I187
sba(imodels.point
Point
p445
(dp446
g12
F40.526362112063275
sg13
F-112.14034315782186
sg14
I188
sba(imodels.point
Point
p447
(dp448
g12
F40.52547622695672
sg13
F-112.13941646928743
sg14
I189
sba(imodels.point
Point
p449
(dp450
g12
F40.523901227580545
sg13
F-112.13921402058872
sg14
I190
sba(imodels.point
Point
p451
(dp452
g12
F40.523901227580545
sg13
F-112.13921402058872
sg14
I191
sba(imodels.point
Point
p453
(dp454
g12
F40.52284920562756
sg13
F-112.13894582837514
sg14
I192
sba(imodels.point
Point
p455
(dp456
g12
F40.52196333372621
sg13
F-112.13930995935533
sg14
I193
sba(imodels.point
Point
p457
(dp458
g12
F40.520930657625264
sg13
F-112.14018905667513
sg14
I194
sba(imodels.point
Point
p459
(dp460
g12
F40.51919151519808
sg13
F-112.14201155848309
sg14
I195
sbasg79
g80
sg81
I17
sg82
g83
sba(imodels.road
Road
p461
(dp462
g8
(lp463
(imodels.point
Point
p464
(dp465
g12
F40.51722613443143
sg13
F-112.13269675223654
sg14
I196
sba(imodels.point
Point
p466
(dp467
g12
F40.51722613443143
sg13
F-112.13269675223654
sg14
I197
sba(imodels.point
Point
p468
(dp469
g12
F40.51722613443143
sg13
F-112.13269675223654
sg14
I198
sba(imodels.point
Point
p470
(dp471
g12
F40.51543389498886
sg13
F-112.13385560637846
sg14
I199
sba(imodels.point
Point
p472
(dp473
g12
F40.51283825158735
sg13
F-112.1338931895906
sg14
I200
sba(imodels.point
Point
p474
(dp475
g12
F40.51002629012335
sg13
F-112.14165802303148
sg14
I201
sba(imodels.point
Point
p476
(dp477
g12
F40.50937149461206
sg13
F-112.1428325575697
sg14
I202
sba(imodels.point
Point
p478
(dp479
g12
F40.50912571625677
sg13
F-112.14476031939245
sg14
I203
sba(imodels.point
Point
p480
(dp481
g12
F40.50917764580214
sg13
F-112.14644667718045
sg14
I204
sba(imodels.point
Point
p482
(dp483
g12
F40.50971492414702
sg13
F-112.14944999585163
sg14
I205
sba(imodels.point
Point
p484
(dp485
g12
F40.51024793425604
sg13
F-112.15380523152157
sg14
I206
sbasg79
g80
sg81
I18
sg82
g83
sba(imodels.road
Road
p486
(dp487
g8
(lp488
(imodels.point
Point
p489
(dp490
g12
F40.52451305258641
sg13
F-112.10572931713864
sg14
I207
sba(imodels.point
Point
p491
(dp492
g12
F40.52164425657388
sg13
F-112.10358071762755
sg14
I208
sba(imodels.point
Point
p493
(dp494
g12
F40.519509323799085
sg13
F-112.10610984562408
sg14
I209
sba(imodels.point
Point
p495
(dp496
g12
F40.518287894584915
sg13
F-112.10799523381002
sg14
I210
sba(imodels.point
Point
p497
(dp498
g12
F40.517621027480764
sg13
F-112.11082469316898
sg14
I211
sba(imodels.point
Point
p499
(dp500
g12
F40.515406038498405
sg13
F-112.1153125812076
sg14
I212
sba(imodels.point
Point
p501
(dp502
g12
F40.515406038498405
sg13
F-112.1153125812076
sg14
I213
sba(imodels.point
Point
p503
(dp504
g12
F40.51815851620562
sg13
F-112.1130320132711
sg14
I214
sba(imodels.point
Point
p505
(dp506
g12
F40.518774095442225
sg13
F-112.1160729723614
sg14
I215
sba(imodels.point
Point
p507
(dp508
g12
F40.52115132628771
sg13
F-112.11647471004926
sg14
I216
sba(imodels.point
Point
p509
(dp510
g12
F40.52115132628771
sg13
F-112.11647471004926
sg14
I217
sba(imodels.point
Point
p511
(dp512
g12
F40.519315730673064
sg13
F-112.1193272777935
sg14
I218
sba(imodels.point
Point
p513
(dp514
g12
F40.51732132085282
sg13
F-112.11881157833085
sg14
I219
sba(imodels.point
Point
p515
(dp516
g12
F40.51616673729683
sg13
F-112.12066083791603
sg14
I220
sba(imodels.point
Point
p517
(dp518
g12
F40.51616673729683
sg13
F-112.12066083791603
sg14
I221
sba(imodels.point
Point
p519
(dp520
g12
F40.51616673729683
sg13
F-112.12066083791603
sg14
I222
sba(imodels.point
Point
p521
(dp522
g12
F40.5174143845541
sg13
F-112.1200861232387
sg14
I223
sba(imodels.point
Point
p523
(dp524
g12
F40.51818055924393
sg13
F-112.12116831018704
sg14
I224
sba(imodels.point
Point
p525
(dp526
g12
F40.51964639323057
sg13
F-112.1235982408096
sg14
I225
sba(imodels.point
Point
p527
(dp528
g12
F40.52152110103793
sg13
F-112.1237189052091
sg14
I226
sba(imodels.point
Point
p529
(dp530
g12
F40.52178811121781
sg13
F-112.12502244658276
sg14
I227
sbasg79
g80
sg81
I19
sg82
g83
sba(imodels.road
Road
p531
(dp532
g8
(lp533
(imodels.point
Point
p534
(dp535
g12
F40.519897
sg13
F-112.14847299999997
sg14
I228
sba(imodels.point
Point
p536
(dp537
g12
F40.519897
sg13
F-112.14847299999997
sg14
I229
sbasg79
g80
sg81
I20
sg82
g83
sba(imodels.road
Road
p538
(dp539
g8
(lp540
(imodels.point
Point
p541
(dp542
g12
F40.51290707153489
sg13
F-112.14024398274228
sg14
I230
sba(imodels.point
Point
p543
(dp544
g12
F40.51310284647761
sg13
F-112.1382324030725
sg14
I231
sba(imodels.point
Point
p545
(dp546
g12
F40.51513382802257
sg13
F-112.13631731772568
sg14
I232
sba(imodels.point
Point
p547
(dp548
g12
F40.51674876769078
sg13
F-112.13403198666379
sg14
I233
sbasg79
g80
sg81
I21
sg82
g83
sba(imodels.road
Road
p549
(dp550
g8
(lp551
(imodels.point
Point
p552
(dp553
g12
F40.52430101473363
sg13
F-112.13355991787716
sg14
I234
sba(imodels.point
Point
p554
(dp555
g12
F40.525175647691775
sg13
F-112.13218660632606
sg14
I235
sba(imodels.point
Point
p556
(dp557
g12
F40.527766933963264
sg13
F-112.13397834248349
sg14
I236
sba(imodels.point
Point
p558
(dp559
g12
F40.527766933963264
sg13
F-112.13397834248349
sg14
I237
sbasg79
g80
sg81
I22
sg82
g83
sba(imodels.road
Road
p560
(dp561
g8
(lp562
(imodels.point
Point
p563
(dp564
g12
F40.53152929205798
sg13
F-112.14053094217684
sg14
I238
sba(imodels.point
Point
p565
(dp566
g12
F40.53152929205798
sg13
F-112.14053094217684
sg14
I239
sba(imodels.point
Point
p567
(dp568
g12
F40.53073142988414
sg13
F-112.13919317066586
sg14
I240
sba(imodels.point
Point
p569
(dp570
g12
F40.528875990263
sg13
F-112.13703606076047
sg14
I241
sba(imodels.point
Point
p571
(dp572
g12
F40.528875990263
sg13
F-112.13703606076047
sg14
I242
sba(imodels.point
Point
p573
(dp574
g12
F40.528875990263
sg13
F-112.13703606076047
sg14
I243
sba(imodels.point
Point
p575
(dp576
g12
F40.528875990263
sg13
F-112.13703606076047
sg14
I244
sba(imodels.point
Point
p577
(dp578
g12
F40.528875990263
sg13
F-112.13703606076047
sg14
I245
sbasg79
g80
sg81
I23
sg82
g83
sbasS'locations'
p579
(lp580
sbsS'missions'
p581
(lp582
(imodels.mission
Mission
p583
(dp584
S'startDate'
p585
cdatetime
datetime
p586
(S'\x07\xe1\x05\x01\x00\x00\x00\x00\x00\x00'
p587
tp588
Rp589
sS'endDate'
p590
g586
(S'\x07\xe1\x05\n\x00\x00\x00\x00\x00\x00'
p591
tp592
Rp593
sS'target'
p594
I1000000
sS'title'
p595
S'New mission'
p596
sS'location'
p597
g217
sS'schedules'
p598
(lp599
(imodels.schedule
Schedule
p600
(dp601
S'date'
p602
g586
(S'\x07\xe1\x05\x01\x00\x00\x00\x00\x00\x00'
p603
tp604
Rp605
sS'endTime'
p606
g586
(S'\x07\xe1\x05\x01\x15\x00\x00\x00\x00\x00'
p607
tp608
Rp609
sg597
g217
sS'startTime'
p610
g586
(S'\x07\xe1\x05\x01\t\x00\x00\x00\x00\x00'
p611
tp612
Rp613
sS'tasks'
p614
(lp615
(imodels.task
DigTask
p616
(dp617
S'power'
p618
I100
sS'comments'
p619
S'Dig all day'
p620
sS'amount'
p621
I111111
sg597
g217
sg610
g613
sg606
g609
sba(imodels.task
LoadTask
p622
(dp623
S'material'
p624
I100
sg619
S'Loader'
p625
sg621
I111111
sg597
g217
sg610
g613
sg606
g609
sba(imodels.task
HaulageTask
p626
(dp627
g624
I100
sg619
S'Haul all day'
p628
sg621
I111111
sS'dumpLocation'
p629
g236
sg597
g217
sg610
g586
(S'\x07\xe1\x05\x01\t\x00\x00\x00\x00\x00'
p630
tp631
Rp632
sg606
g586
(S'\x07\xe1\x05\x01\x0b\x00\x00\x00\x00\x00'
p633
tp634
Rp635
sba(imodels.task
HaulageTask
p636
(dp637
g624
I100
sg619
g628
sg621
I111111
sg629
g236
sg597
g217
sg610
g586
(S'\x07\xe1\x05\x01\x0b\x00\x00\x00\x00\x00'
p638
tp639
Rp640
sg606
g586
(S'\x07\xe1\x05\x01\r\x00\x00\x00\x00\x00'
p641
tp642
Rp643
sba(imodels.task
HaulageTask
p644
(dp645
g624
I100
sg619
g628
sg621
I111111
sg629
g236
sg597
g217
sg610
g586
(S'\x07\xe1\x05\x01\r\x00\x00\x00\x00\x00'
p646
tp647
Rp648
sg606
g586
(S'\x07\xe1\x05\x01\x0f\x00\x00\x00\x00\x00'
p649
tp650
Rp651
sba(imodels.task
HaulageTask
p652
(dp653
g624
I100
sg619
g628
sg621
I111111
sg629
g236
sg597
g217
sg610
g586
(S'\x07\xe1\x05\x01\x0f\x00\x00\x00\x00\x00'
p654
tp655
Rp656
sg606
g586
(S'\x07\xe1\x05\x01\x11\x00\x00\x00\x00\x00'
p657
tp658
Rp659
sba(imodels.task
HaulageTask
p660
(dp661
g624
I100
sg619
g628
sg621
I111111
sg629
g236
sg597
g217
sg610
g586
(S'\x07\xe1\x05\x01\x11\x00\x00\x00\x00\x00'
p662
tp663
Rp664
sg606
g586
(S'\x07\xe1\x05\x01\x13\x00\x00\x00\x00\x00'
p665
tp666
Rp667
sba(imodels.task
HaulageTask
p668
(dp669
g624
I100
sg619
g628
sg621
I111111
sg629
g236
sg597
g217
sg610
g586
(S'\x07\xe1\x05\x01\x13\x00\x00\x00\x00\x00'
p670
tp671
Rp672
sg606
g586
(S'\x07\xe1\x05\x01\x15\x00\x00\x00\x00\x00'
p673
tp674
Rp675
sbasba(imodels.schedule
Schedule
p676
(dp677
g602
g586
(S'\x07\xe1\x05\x02\x00\x00\x00\x00\x00\x00'
p678
tp679
Rp680
sg606
g586
(S'\x07\xe1\x05\x02\x15\x00\x00\x00\x00\x00'
p681
tp682
Rp683
sg597
g217
sg610
g586
(S'\x07\xe1\x05\x02\t\x00\x00\x00\x00\x00'
p684
tp685
Rp686
sg614
(lp687
(imodels.task
DigTask
p688
(dp689
g618
I100
sg619
g620
sg621
I111111
sg597
g217
sg610
g686
sg606
g683
sba(imodels.task
LoadTask
p690
(dp691
g624
I100
sg619
g625
sg621
I111111
sg597
g217
sg610
g686
sg606
g683
sba(imodels.task
HaulageTask
p692
(dp693
g624
I100
sg619
g628
sg621
I111111
sg629
g236
sg597
g217
sg610
g586
(S'\x07\xe1\x05\x02\t\x00\x00\x00\x00\x00'
p694
tp695
Rp696
sg606
g586
(S'\x07\xe1\x05\x02\x0b\x00\x00\x00\x00\x00'
p697
tp698
Rp699
sba(imodels.task
HaulageTask
p700
(dp701
g624
I100
sg619
g628
sg621
I111111
sg629
g236
sg597
g217
sg610
g586
(S'\x07\xe1\x05\x02\x0b\x00\x00\x00\x00\x00'
p702
tp703
Rp704
sg606
g586
(S'\x07\xe1\x05\x02\r\x00\x00\x00\x00\x00'
p705
tp706
Rp707
sba(imodels.task
HaulageTask
p708
(dp709
g624
I100
sg619
g628
sg621
I111111
sg629
g236
sg597
g217
sg610
g586
(S'\x07\xe1\x05\x02\r\x00\x00\x00\x00\x00'
p710
tp711
Rp712
sg606
g586
(S'\x07\xe1\x05\x02\x0f\x00\x00\x00\x00\x00'
p713
tp714
Rp715
sba(imodels.task
HaulageTask
p716
(dp717
g624
I100
sg619
g628
sg621
I111111
sg629
g236
sg597
g217
sg610
g586
(S'\x07\xe1\x05\x02\x0f\x00\x00\x00\x00\x00'
p718
tp719
Rp720
sg606
g586
(S'\x07\xe1\x05\x02\x11\x00\x00\x00\x00\x00'
p721
tp722
Rp723
sba(imodels.task
HaulageTask
p724
(dp725
g624
I100
sg619
g628
sg621
I111111
sg629
g236
sg597
g217
sg610
g586
(S'\x07\xe1\x05\x02\x11\x00\x00\x00\x00\x00'
p726
tp727
Rp728
sg606
g586
(S'\x07\xe1\x05\x02\x13\x00\x00\x00\x00\x00'
p729
tp730
Rp731
sba(imodels.task
HaulageTask
p732
(dp733
g624
I100
sg619
g628
sg621
I111111
sg629
g236
sg597
g217
sg610
g586
(S'\x07\xe1\x05\x02\x13\x00\x00\x00\x00\x00'
p734
tp735
Rp736
sg606
g586
(S'\x07\xe1\x05\x02\x15\x00\x00\x00\x00\x00'
p737
tp738
Rp739
sbasba(imodels.schedule
Schedule
p740
(dp741
g602
g586
(S'\x07\xe1\x05\x03\x00\x00\x00\x00\x00\x00'
p742
tp743
Rp744
sg606
g586
(S'\x07\xe1\x05\x03\x15\x00\x00\x00\x00\x00'
p745
tp746
Rp747
sg597
g217
sg610
g586
(S'\x07\xe1\x05\x03\t\x00\x00\x00\x00\x00'
p748
tp749
Rp750
sg614
(lp751
(imodels.task
DigTask
p752
(dp753
g618
I100
sg619
g620
sg621
I111111
sg597
g217
sg610
g750
sg606
g747
sba(imodels.task
LoadTask
p754
(dp755
g624
I100
sg619
g625
sg621
I111111
sg597
g217
sg610
g750
sg606
g747
sba(imodels.task
HaulageTask
p756
(dp757
g624
I100
sg619
g628
sg621
I111111
sg629
g236
sg597
g217
sg610
g586
(S'\x07\xe1\x05\x03\t\x00\x00\x00\x00\x00'
p758
tp759
Rp760
sg606
g586
(S'\x07\xe1\x05\x03\x0b\x00\x00\x00\x00\x00'
p761
tp762
Rp763
sba(imodels.task
HaulageTask
p764
(dp765
g624
I100
sg619
g628
sg621
I111111
sg629
g236
sg597
g217
sg610
g586
(S'\x07\xe1\x05\x03\x0b\x00\x00\x00\x00\x00'
p766
tp767
Rp768
sg606
g586
(S'\x07\xe1\x05\x03\r\x00\x00\x00\x00\x00'
p769
tp770
Rp771
sba(imodels.task
HaulageTask
p772
(dp773
g624
I100
sg619
g628
sg621
I111111
sg629
g236
sg597
g217
sg610
g586
(S'\x07\xe1\x05\x03\r\x00\x00\x00\x00\x00'
p774
tp775
Rp776
sg606
g586
(S'\x07\xe1\x05\x03\x0f\x00\x00\x00\x00\x00'
p777
tp778
Rp779
sba(imodels.task
HaulageTask
p780
(dp781
g624
I100
sg619
g628
sg621
I111111
sg629
g236
sg597
g217
sg610
g586
(S'\x07\xe1\x05\x03\x0f\x00\x00\x00\x00\x00'
p782
tp783
Rp784
sg606
g586
(S'\x07\xe1\x05\x03\x11\x00\x00\x00\x00\x00'
p785
tp786
Rp787
sba(imodels.task
HaulageTask
p788
(dp789
g624
I100
sg619
g628
sg621
I111111
sg629
g236
sg597
g217
sg610
g586
(S'\x07\xe1\x05\x03\x11\x00\x00\x00\x00\x00'
p790
tp791
Rp792
sg606
g586
(S'\x07\xe1\x05\x03\x13\x00\x00\x00\x00\x00'
p793
tp794
Rp795
sba(imodels.task
HaulageTask
p796
(dp797
g624
I100
sg619
g628
sg621
I111111
sg629
g236
sg597
g217
sg610
g586
(S'\x07\xe1\x05\x03\x13\x00\x00\x00\x00\x00'
p798
tp799
Rp800
sg606
g586
(S'\x07\xe1\x05\x03\x15\x00\x00\x00\x00\x00'
p801
tp802
Rp803
sbasba(imodels.schedule
Schedule
p804
(dp805
g602
g586
(S'\x07\xe1\x05\x04\x00\x00\x00\x00\x00\x00'
p806
tp807
Rp808
sg606
g586
(S'\x07\xe1\x05\x04\x15\x00\x00\x00\x00\x00'
p809
tp810
Rp811
sg597
g217
sg610
g586
(S'\x07\xe1\x05\x04\t\x00\x00\x00\x00\x00'
p812
tp813
Rp814
sg614
(lp815
(imodels.task
DigTask
p816
(dp817
g618
I100
sg619
g620
sg621
I111111
sg597
g217
sg610
g814
sg606
g811
sba(imodels.task
LoadTask
p818
(dp819
g624
I100
sg619
g625
sg621
I111111
sg597
g217
sg610
g814
sg606
g811
sba(imodels.task
HaulageTask
p820
(dp821
g624
I100
sg619
g628
sg621
I111111
sg629
g236
sg597
g217
sg610
g586
(S'\x07\xe1\x05\x04\t\x00\x00\x00\x00\x00'
p822
tp823
Rp824
sg606
g586
(S'\x07\xe1\x05\x04\x0b\x00\x00\x00\x00\x00'
p825
tp826
Rp827
sba(imodels.task
HaulageTask
p828
(dp829
g624
I100
sg619
g628
sg621
I111111
sg629
g236
sg597
g217
sg610
g586
(S'\x07\xe1\x05\x04\x0b\x00\x00\x00\x00\x00'
p830
tp831
Rp832
sg606
g586
(S'\x07\xe1\x05\x04\r\x00\x00\x00\x00\x00'
p833
tp834
Rp835
sba(imodels.task
HaulageTask
p836
(dp837
g624
I100
sg619
g628
sg621
I111111
sg629
g236
sg597
g217
sg610
g586
(S'\x07\xe1\x05\x04\r\x00\x00\x00\x00\x00'
p838
tp839
Rp840
sg606
g586
(S'\x07\xe1\x05\x04\x0f\x00\x00\x00\x00\x00'
p841
tp842
Rp843
sba(imodels.task
HaulageTask
p844
(dp845
g624
I100
sg619
g628
sg621
I111111
sg629
g236
sg597
g217
sg610
g586
(S'\x07\xe1\x05\x04\x0f\x00\x00\x00\x00\x00'
p846
tp847
Rp848
sg606
g586
(S'\x07\xe1\x05\x04\x11\x00\x00\x00\x00\x00'
p849
tp850
Rp851
sba(imodels.task
HaulageTask
p852
(dp853
g624
I100
sg619
g628
sg621
I111111
sg629
g236
sg597
g217
sg610
g586
(S'\x07\xe1\x05\x04\x11\x00\x00\x00\x00\x00'
p854
tp855
Rp856
sg606
g586
(S'\x07\xe1\x05\x04\x13\x00\x00\x00\x00\x00'
p857
tp858
Rp859
sba(imodels.task
HaulageTask
p860
(dp861
g624
I100
sg619
g628
sg621
I111111
sg629
g236
sg597
g217
sg610
g586
(S'\x07\xe1\x05\x04\x13\x00\x00\x00\x00\x00'
p862
tp863
Rp864
sg606
g586
(S'\x07\xe1\x05\x04\x15\x00\x00\x00\x00\x00'
p865
tp866
Rp867
sbasba(imodels.schedule
Schedule
p868
(dp869
g602
g586
(S'\x07\xe1\x05\x05\x00\x00\x00\x00\x00\x00'
p870
tp871
Rp872
sg606
g586
(S'\x07\xe1\x05\x05\x15\x00\x00\x00\x00\x00'
p873
tp874
Rp875
sg597
g217
sg610
g586
(S'\x07\xe1\x05\x05\t\x00\x00\x00\x00\x00'
p876
tp877
Rp878
sg614
(lp879
(imodels.task
DigTask
p880
(dp881
g618
I100
sg619
g620
sg621
I111111
sg597
g217
sg610
g878
sg606
g875
sba(imodels.task
LoadTask
p882
(dp883
g624
I100
sg619
g625
sg621
I111111
sg597
g217
sg610
g878
sg606
g875
sba(imodels.task
HaulageTask
p884
(dp885
g624
I100
sg619
g628
sg621
I111111
sg629
g236
sg597
g217
sg610
g586
(S'\x07\xe1\x05\x05\t\x00\x00\x00\x00\x00'
p886
tp887
Rp888
sg606
g586
(S'\x07\xe1\x05\x05\x0b\x00\x00\x00\x00\x00'
p889
tp890
Rp891
sba(imodels.task
HaulageTask
p892
(dp893
g624
I100
sg619
g628
sg621
I111111
sg629
g236
sg597
g217
sg610
g586
(S'\x07\xe1\x05\x05\x0b\x00\x00\x00\x00\x00'
p894
tp895
Rp896
sg606
g586
(S'\x07\xe1\x05\x05\r\x00\x00\x00\x00\x00'
p897
tp898
Rp899
sba(imodels.task
HaulageTask
p900
(dp901
g624
I100
sg619
g628
sg621
I111111
sg629
g236
sg597
g217
sg610
g586
(S'\x07\xe1\x05\x05\r\x00\x00\x00\x00\x00'
p902
tp903
Rp904
sg606
g586
(S'\x07\xe1\x05\x05\x0f\x00\x00\x00\x00\x00'
p905
tp906
Rp907
sba(imodels.task
HaulageTask
p908
(dp909
g624
I100
sg619
g628
sg621
I111111
sg629
g236
sg597
g217
sg610
g586
(S'\x07\xe1\x05\x05\x0f\x00\x00\x00\x00\x00'
p910
tp911
Rp912
sg606
g586
(S'\x07\xe1\x05\x05\x11\x00\x00\x00\x00\x00'
p913
tp914
Rp915
sba(imodels.task
HaulageTask
p916
(dp917
g624
I100
sg619
g628
sg621
I111111
sg629
g236
sg597
g217
sg610
g586
(S'\x07\xe1\x05\x05\x11\x00\x00\x00\x00\x00'
p918
tp919
Rp920
sg606
g586
(S'\x07\xe1\x05\x05\x13\x00\x00\x00\x00\x00'
p921
tp922
Rp923
sba(imodels.task
HaulageTask
p924
(dp925
g624
I100
sg619
g628
sg621
I111111
sg629
g236
sg597
g217
sg610
g586
(S'\x07\xe1\x05\x05\x13\x00\x00\x00\x00\x00'
p926
tp927
Rp928
sg606
g586
(S'\x07\xe1\x05\x05\x15\x00\x00\x00\x00\x00'
p929
tp930
Rp931
sbasba(imodels.schedule
Schedule
p932
(dp933
g602
g586
(S'\x07\xe1\x05\x06\x00\x00\x00\x00\x00\x00'
p934
tp935
Rp936
sg606
g586
(S'\x07\xe1\x05\x06\x15\x00\x00\x00\x00\x00'
p937
tp938
Rp939
sg597
g217
sg610
g586
(S'\x07\xe1\x05\x06\t\x00\x00\x00\x00\x00'
p940
tp941
Rp942
sg614
(lp943
(imodels.task
DigTask
p944
(dp945
g618
I100
sg619
g620
sg621
I111111
sg597
g217
sg610
g942
sg606
g939
sba(imodels.task
LoadTask
p946
(dp947
g624
I100
sg619
g625
sg621
I111111
sg597
g217
sg610
g942
sg606
g939
sba(imodels.task
HaulageTask
p948
(dp949
g624
I100
sg619
g628
sg621
I111111
sg629
g236
sg597
g217
sg610
g586
(S'\x07\xe1\x05\x06\t\x00\x00\x00\x00\x00'
p950
tp951
Rp952
sg606
g586
(S'\x07\xe1\x05\x06\x0b\x00\x00\x00\x00\x00'
p953
tp954
Rp955
sba(imodels.task
HaulageTask
p956
(dp957
g624
I100
sg619
g628
sg621
I111111
sg629
g236
sg597
g217
sg610
g586
(S'\x07\xe1\x05\x06\x0b\x00\x00\x00\x00\x00'
p958
tp959
Rp960
sg606
g586
(S'\x07\xe1\x05\x06\r\x00\x00\x00\x00\x00'
p961
tp962
Rp963
sba(imodels.task
HaulageTask
p964
(dp965
g624
I100
sg619
g628
sg621
I111111
sg629
g236
sg597
g217
sg610
g586
(S'\x07\xe1\x05\x06\r\x00\x00\x00\x00\x00'
p966
tp967
Rp968
sg606
g586
(S'\x07\xe1\x05\x06\x0f\x00\x00\x00\x00\x00'
p969
tp970
Rp971
sba(imodels.task
HaulageTask
p972
(dp973
g624
I100
sg619
g628
sg621
I111111
sg629
g236
sg597
g217
sg610
g586
(S'\x07\xe1\x05\x06\x0f\x00\x00\x00\x00\x00'
p974
tp975
Rp976
sg606
g586
(S'\x07\xe1\x05\x06\x11\x00\x00\x00\x00\x00'
p977
tp978
Rp979
sba(imodels.task
HaulageTask
p980
(dp981
g624
I100
sg619
g628
sg621
I111111
sg629
g236
sg597
g217
sg610
g586
(S'\x07\xe1\x05\x06\x11\x00\x00\x00\x00\x00'
p982
tp983
Rp984
sg606
g586
(S'\x07\xe1\x05\x06\x13\x00\x00\x00\x00\x00'
p985
tp986
Rp987
sba(imodels.task
HaulageTask
p988
(dp989
g624
I100
sg619
g628
sg621
I111111
sg629
g236
sg597
g217
sg610
g586
(S'\x07\xe1\x05\x06\x13\x00\x00\x00\x00\x00'
p990
tp991
Rp992
sg606
g586
(S'\x07\xe1\x05\x06\x15\x00\x00\x00\x00\x00'
p993
tp994
Rp995
sbasba(imodels.schedule
Schedule
p996
(dp997
g602
g586
(S'\x07\xe1\x05\x07\x00\x00\x00\x00\x00\x00'
p998
tp999
Rp1000
sg606
g586
(S'\x07\xe1\x05\x07\x15\x00\x00\x00\x00\x00'
p1001
tp1002
Rp1003
sg597
g217
sg610
g586
(S'\x07\xe1\x05\x07\t\x00\x00\x00\x00\x00'
p1004
tp1005
Rp1006
sg614
(lp1007
(imodels.task
DigTask
p1008
(dp1009
g618
I100
sg619
g620
sg621
I111111
sg597
g217
sg610
g1006
sg606
g1003
sba(imodels.task
LoadTask
p1010
(dp1011
g624
I100
sg619
g625
sg621
I111111
sg597
g217
sg610
g1006
sg606
g1003
sba(imodels.task
HaulageTask
p1012
(dp1013
g624
I100
sg619
g628
sg621
I111111
sg629
g236
sg597
g217
sg610
g586
(S'\x07\xe1\x05\x07\t\x00\x00\x00\x00\x00'
p1014
tp1015
Rp1016
sg606
g586
(S'\x07\xe1\x05\x07\x0b\x00\x00\x00\x00\x00'
p1017
tp1018
Rp1019
sba(imodels.task
HaulageTask
p1020
(dp1021
g624
I100
sg619
g628
sg621
I111111
sg629
g236
sg597
g217
sg610
g586
(S'\x07\xe1\x05\x07\x0b\x00\x00\x00\x00\x00'
p1022
tp1023
Rp1024
sg606
g586
(S'\x07\xe1\x05\x07\r\x00\x00\x00\x00\x00'
p1025
tp1026
Rp1027
sba(imodels.task
HaulageTask
p1028
(dp1029
g624
I100
sg619
g628
sg621
I111111
sg629
g236
sg597
g217
sg610
g586
(S'\x07\xe1\x05\x07\r\x00\x00\x00\x00\x00'
p1030
tp1031
Rp1032
sg606
g586
(S'\x07\xe1\x05\x07\x0f\x00\x00\x00\x00\x00'
p1033
tp1034
Rp1035
sba(imodels.task
HaulageTask
p1036
(dp1037
g624
I100
sg619
g628
sg621
I111111
sg629
g236
sg597
g217
sg610
g586
(S'\x07\xe1\x05\x07\x0f\x00\x00\x00\x00\x00'
p1038
tp1039
Rp1040
sg606
g586
(S'\x07\xe1\x05\x07\x11\x00\x00\x00\x00\x00'
p1041
tp1042
Rp1043
sba(imodels.task
HaulageTask
p1044
(dp1045
g624
I100
sg619
g628
sg621
I111111
sg629
g236
sg597
g217
sg610
g586
(S'\x07\xe1\x05\x07\x11\x00\x00\x00\x00\x00'
p1046
tp1047
Rp1048
sg606
g586
(S'\x07\xe1\x05\x07\x13\x00\x00\x00\x00\x00'
p1049
tp1050
Rp1051
sba(imodels.task
HaulageTask
p1052
(dp1053
g624
I100
sg619
g628
sg621
I111111
sg629
g236
sg597
g217
sg610
g586
(S'\x07\xe1\x05\x07\x13\x00\x00\x00\x00\x00'
p1054
tp1055
Rp1056
sg606
g586
(S'\x07\xe1\x05\x07\x15\x00\x00\x00\x00\x00'
p1057
tp1058
Rp1059
sbasba(imodels.schedule
Schedule
p1060
(dp1061
g602
g586
(S'\x07\xe1\x05\x08\x00\x00\x00\x00\x00\x00'
p1062
tp1063
Rp1064
sg606
g586
(S'\x07\xe1\x05\x08\x15\x00\x00\x00\x00\x00'
p1065
tp1066
Rp1067
sg597
g217
sg610
g586
(S'\x07\xe1\x05\x08\t\x00\x00\x00\x00\x00'
p1068
tp1069
Rp1070
sg614
(lp1071
(imodels.task
DigTask
p1072
(dp1073
g618
I100
sg619
g620
sg621
I111111
sg597
g217
sg610
g1070
sg606
g1067
sba(imodels.task
LoadTask
p1074
(dp1075
g624
I100
sg619
g625
sg621
I111111
sg597
g217
sg610
g1070
sg606
g1067
sba(imodels.task
HaulageTask
p1076
(dp1077
g624
I100
sg619
g628
sg621
I111111
sg629
g236
sg597
g217
sg610
g586
(S'\x07\xe1\x05\x08\t\x00\x00\x00\x00\x00'
p1078
tp1079
Rp1080
sg606
g586
(S'\x07\xe1\x05\x08\x0b\x00\x00\x00\x00\x00'
p1081
tp1082
Rp1083
sba(imodels.task
HaulageTask
p1084
(dp1085
g624
I100
sg619
g628
sg621
I111111
sg629
g236
sg597
g217
sg610
g586
(S'\x07\xe1\x05\x08\x0b\x00\x00\x00\x00\x00'
p1086
tp1087
Rp1088
sg606
g586
(S'\x07\xe1\x05\x08\r\x00\x00\x00\x00\x00'
p1089
tp1090
Rp1091
sba(imodels.task
HaulageTask
p1092
(dp1093
g624
I100
sg619
g628
sg621
I111111
sg629
g236
sg597
g217
sg610
g586
(S'\x07\xe1\x05\x08\r\x00\x00\x00\x00\x00'
p1094
tp1095
Rp1096
sg606
g586
(S'\x07\xe1\x05\x08\x0f\x00\x00\x00\x00\x00'
p1097
tp1098
Rp1099
sba(imodels.task
HaulageTask
p1100
(dp1101
g624
I100
sg619
g628
sg621
I111111
sg629
g236
sg597
g217
sg610
g586
(S'\x07\xe1\x05\x08\x0f\x00\x00\x00\x00\x00'
p1102
tp1103
Rp1104
sg606
g586
(S'\x07\xe1\x05\x08\x11\x00\x00\x00\x00\x00'
p1105
tp1106
Rp1107
sba(imodels.task
HaulageTask
p1108
(dp1109
g624
I100
sg619
g628
sg621
I111111
sg629
g236
sg597
g217
sg610
g586
(S'\x07\xe1\x05\x08\x11\x00\x00\x00\x00\x00'
p1110
tp1111
Rp1112
sg606
g586
(S'\x07\xe1\x05\x08\x13\x00\x00\x00\x00\x00'
p1113
tp1114
Rp1115
sba(imodels.task
HaulageTask
p1116
(dp1117
g624
I100
sg619
g628
sg621
I111111
sg629
g236
sg597
g217
sg610
g586
(S'\x07\xe1\x05\x08\x13\x00\x00\x00\x00\x00'
p1118
tp1119
Rp1120
sg606
g586
(S'\x07\xe1\x05\x08\x15\x00\x00\x00\x00\x00'
p1121
tp1122
Rp1123
sbasba(imodels.schedule
Schedule
p1124
(dp1125
g602
g586
(S'\x07\xe1\x05\t\x00\x00\x00\x00\x00\x00'
p1126
tp1127
Rp1128
sg606
g586
(S'\x07\xe1\x05\t\x15\x00\x00\x00\x00\x00'
p1129
tp1130
Rp1131
sg597
g217
sg610
g586
(S'\x07\xe1\x05\t\t\x00\x00\x00\x00\x00'
p1132
tp1133
Rp1134
sg614
(lp1135
(imodels.task
DigTask
p1136
(dp1137
g618
I100
sg619
g620
sg621
I111111
sg597
g217
sg610
g1134
sg606
g1131
sba(imodels.task
LoadTask
p1138
(dp1139
g624
I100
sg619
g625
sg621
I111111
sg597
g217
sg610
g1134
sg606
g1131
sba(imodels.task
HaulageTask
p1140
(dp1141
g624
I100
sg619
g628
sg621
I111111
sg629
g236
sg597
g217
sg610
g586
(S'\x07\xe1\x05\t\t\x00\x00\x00\x00\x00'
p1142
tp1143
Rp1144
sg606
g586
(S'\x07\xe1\x05\t\x0b\x00\x00\x00\x00\x00'
p1145
tp1146
Rp1147
sba(imodels.task
HaulageTask
p1148
(dp1149
g624
I100
sg619
g628
sg621
I111111
sg629
g236
sg597
g217
sg610
g586
(S'\x07\xe1\x05\t\x0b\x00\x00\x00\x00\x00'
p1150
tp1151
Rp1152
sg606
g586
(S'\x07\xe1\x05\t\r\x00\x00\x00\x00\x00'
p1153
tp1154
Rp1155
sba(imodels.task
HaulageTask
p1156
(dp1157
g624
I100
sg619
g628
sg621
I111111
sg629
g236
sg597
g217
sg610
g586
(S'\x07\xe1\x05\t\r\x00\x00\x00\x00\x00'
p1158
tp1159
Rp1160
sg606
g586
(S'\x07\xe1\x05\t\x0f\x00\x00\x00\x00\x00'
p1161
tp1162
Rp1163
sba(imodels.task
HaulageTask
p1164
(dp1165
g624
I100
sg619
g628
sg621
I111111
sg629
g236
sg597
g217
sg610
g586
(S'\x07\xe1\x05\t\x0f\x00\x00\x00\x00\x00'
p1166
tp1167
Rp1168
sg606
g586
(S'\x07\xe1\x05\t\x11\x00\x00\x00\x00\x00'
p1169
tp1170
Rp1171
sba(imodels.task
HaulageTask
p1172
(dp1173
g624
I100
sg619
g628
sg621
I111111
sg629
g236
sg597
g217
sg610
g586
(S'\x07\xe1\x05\t\x11\x00\x00\x00\x00\x00'
p1174
tp1175
Rp1176
sg606
g586
(S'\x07\xe1\x05\t\x13\x00\x00\x00\x00\x00'
p1177
tp1178
Rp1179
sba(imodels.task
HaulageTask
p1180
(dp1181
g624
I100
sg619
g628
sg621
I111111
sg629
g236
sg597
g217
sg610
g586
(S'\x07\xe1\x05\t\x13\x00\x00\x00\x00\x00'
p1182
tp1183
Rp1184
sg606
g586
(S'\x07\xe1\x05\t\x15\x00\x00\x00\x00\x00'
p1185
tp1186
Rp1187
sbasbasbasS'machines'
p1188
(lp1189
(imodels.machine
Loader
p1190
(dp1191
S'model'
p1192
S'TRX'
p1193
sS'weightCapacity'
p1194
I20
sg614
(lp1195
sS'weight'
p1196
I10000
sS'point'
p1197
g87
sS'speed'
p1198
I40
sS'loadCapacity'
p1199
I10
sS'fuelConsumption'
p1200
I10
sS'isAvailable'
p1201
I01
sS'fuelCapacity'
p1202
I800
sg81
I0
sba(imodels.machine
Loader
p1203
(dp1204
g1192
g1193
sg1194
I20
sg614
(lp1205
sg1196
I10000
sg1197
g87
sg1198
I40
sg1199
I10
sg1200
I10
sg1201
I01
sg1202
I800
sg81
I1
sba(imodels.machine
Loader
p1206
(dp1207
g1192
g1193
sg1194
I20
sg614
(lp1208
sg1196
I10000
sg1197
g87
sg1198
I40
sg1199
I10
sg1200
I10
sg1201
I01
sg1202
I800
sg81
I2
sba(imodels.machine
Loader
p1209
(dp1210
g1192
g1193
sg1194
I20
sg614
(lp1211
sg1196
I10000
sg1197
g87
sg1198
I40
sg1199
I10
sg1200
I10
sg1201
I01
sg1202
I800
sg81
I3
sba(imodels.machine
Loader
p1212
(dp1213
g1192
g1193
sg1194
I20
sg614
(lp1214
sg1196
I10000
sg1197
g87
sg1198
I40
sg1199
I10
sg1200
I10
sg1201
I01
sg1202
I800
sg81
I4
sba(imodels.machine
Loader
p1215
(dp1216
g1192
g1193
sg1194
I20
sg614
(lp1217
sg1196
I10000
sg1197
g87
sg1198
I40
sg1199
I10
sg1200
I10
sg1201
I01
sg1202
I800
sg81
I5
sba(imodels.machine
Loader
p1218
(dp1219
g1192
g1193
sg1194
I20
sg614
(lp1220
sg1196
I10000
sg1197
g87
sg1198
I40
sg1199
I10
sg1200
I10
sg1201
I01
sg1202
I800
sg81
I6
sba(imodels.machine
Loader
p1221
(dp1222
g1192
g1193
sg1194
I20
sg614
(lp1223
sg1196
I10000
sg1197
g87
sg1198
I40
sg1199
I10
sg1200
I10
sg1201
I01
sg1202
I800
sg81
I7
sba(imodels.machine
Loader
p1224
(dp1225
g1192
g1193
sg1194
I20
sg614
(lp1226
sg1196
I10000
sg1197
g87
sg1198
I40
sg1199
I10
sg1200
I10
sg1201
I01
sg1202
I800
sg81
I8
sba(imodels.machine
Loader
p1227
(dp1228
g1192
g1193
sg1194
I20
sg614
(lp1229
sg1196
I10000
sg1197
g87
sg1198
I40
sg1199
I10
sg1200
I10
sg1201
I01
sg1202
I800
sg81
I9
sba(imodels.machine
Loader
p1230
(dp1231
g1192
g1193
sg1194
I20
sg614
(lp1232
sg1196
I10000
sg1197
g87
sg1198
I40
sg1199
I10
sg1200
I10
sg1201
I01
sg1202
I800
sg81
I10
sba(imodels.machine
Loader
p1233
(dp1234
g1192
g1193
sg1194
I20
sg614
(lp1235
sg1196
I10000
sg1197
g87
sg1198
I40
sg1199
I10
sg1200
I10
sg1201
I01
sg1202
I800
sg81
I11
sba(imodels.machine
Loader
p1236
(dp1237
g1192
g1193
sg1194
I20
sg614
(lp1238
sg1196
I10000
sg1197
g87
sg1198
I40
sg1199
I10
sg1200
I10
sg1201
I01
sg1202
I800
sg81
I12
sba(imodels.machine
Loader
p1239
(dp1240
g1192
g1193
sg1194
I20
sg614
(lp1241
sg1196
I10000
sg1197
g87
sg1198
I40
sg1199
I10
sg1200
I10
sg1201
I01
sg1202
I800
sg81
I13
sba(imodels.machine
Loader
p1242
(dp1243
g1192
g1193
sg1194
I20
sg614
(lp1244
sg1196
I10000
sg1197
g87
sg1198
I40
sg1199
I10
sg1200
I10
sg1201
I01
sg1202
I800
sg81
I14
sba(imodels.machine
Loader
p1245
(dp1246
g1192
g1193
sg1194
I20
sg614
(lp1247
sg1196
I10000
sg1197
g87
sg1198
I40
sg1199
I10
sg1200
I10
sg1201
I01
sg1202
I800
sg81
I15
sba(imodels.machine
Loader
p1248
(dp1249
g1192
g1193
sg1194
I20
sg614
(lp1250
sg1196
I10000
sg1197
g87
sg1198
I40
sg1199
I10
sg1200
I10
sg1201
I01
sg1202
I800
sg81
I16
sba(imodels.machine
Loader
p1251
(dp1252
g1192
g1193
sg1194
I20
sg614
(lp1253
sg1196
I10000
sg1197
g87
sg1198
I40
sg1199
I10
sg1200
I10
sg1201
I01
sg1202
I800
sg81
I17
sba(imodels.machine
Loader
p1254
(dp1255
g1192
g1193
sg1194
I20
sg614
(lp1256
sg1196
I10000
sg1197
g87
sg1198
I40
sg1199
I10
sg1200
I10
sg1201
I01
sg1202
I800
sg81
I18
sba(imodels.machine
Loader
p1257
(dp1258
g1192
g1193
sg1194
I20
sg614
(lp1259
sg1196
I10000
sg1197
g87
sg1198
I40
sg1199
I10
sg1200
I10
sg1201
I01
sg1202
I800
sg81
I19
sba(imodels.machine
Shovel
p1260
(dp1261
g1192
S'ZXF'
p1262
sg614
(lp1263
sg618
I50
sg1196
I10000
sg1197
g10
sg1198
I40
sg1200
I10
sS'digRate'
p1264
I20
sg1201
I01
sg1202
I800
sg81
I20
sba(imodels.machine
Shovel
p1265
(dp1266
g1192
g1262
sg614
(lp1267
sg618
I50
sg1196
I10000
sg1197
g10
sg1198
I40
sg1200
I10
sg1264
I20
sg1201
I01
sg1202
I800
sg81
I21
sba(imodels.machine
Shovel
p1268
(dp1269
g1192
g1262
sg614
(lp1270
sg618
I50
sg1196
I10000
sg1197
g10
sg1198
I40
sg1200
I10
sg1264
I20
sg1201
I01
sg1202
I800
sg81
I22
sba(imodels.machine
Shovel
p1271
(dp1272
g1192
g1262
sg614
(lp1273
sg618
I50
sg1196
I10000
sg1197
g10
sg1198
I40
sg1200
I10
sg1264
I20
sg1201
I01
sg1202
I800
sg81
I23
sba(imodels.machine
Shovel
p1274
(dp1275
g1192
g1262
sg614
(lp1276
sg618
I50
sg1196
I10000
sg1197
g10
sg1198
I40
sg1200
I10
sg1264
I20
sg1201
I01
sg1202
I800
sg81
I24
sba(imodels.machine
Shovel
p1277
(dp1278
g1192
g1262
sg614
(lp1279
sg618
I50
sg1196
I10000
sg1197
g10
sg1198
I40
sg1200
I10
sg1264
I20
sg1201
I01
sg1202
I800
sg81
I25
sba(imodels.machine
Shovel
p1280
(dp1281
g1192
g1262
sg614
(lp1282
sg618
I50
sg1196
I10000
sg1197
g10
sg1198
I40
sg1200
I10
sg1264
I20
sg1201
I01
sg1202
I800
sg81
I26
sba(imodels.machine
Shovel
p1283
(dp1284
g1192
g1262
sg614
(lp1285
sg618
I50
sg1196
I10000
sg1197
g10
sg1198
I40
sg1200
I10
sg1264
I20
sg1201
I01
sg1202
I800
sg81
I27
sba(imodels.machine
Shovel
p1286
(dp1287
g1192
g1262
sg614
(lp1288
sg618
I50
sg1196
I10000
sg1197
g10
sg1198
I40
sg1200
I10
sg1264
I20
sg1201
I01
sg1202
I800
sg81
I28
sba(imodels.machine
Shovel
p1289
(dp1290
g1192
g1262
sg614
(lp1291
sg618
I50
sg1196
I10000
sg1197
g10
sg1198
I40
sg1200
I10
sg1264
I20
sg1201
I01
sg1202
I800
sg81
I29
sba(imodels.machine
Shovel
p1292
(dp1293
g1192
g1262
sg614
(lp1294
sg618
I50
sg1196
I10000
sg1197
g10
sg1198
I40
sg1200
I10
sg1264
I20
sg1201
I01
sg1202
I800
sg81
I30
sba(imodels.machine
Shovel
p1295
(dp1296
g1192
g1262
sg614
(lp1297
sg618
I50
sg1196
I10000
sg1197
g10
sg1198
I40
sg1200
I10
sg1264
I20
sg1201
I01
sg1202
I800
sg81
I31
sba(imodels.machine
Shovel
p1298
(dp1299
g1192
g1262
sg614
(lp1300
sg618
I50
sg1196
I10000
sg1197
g10
sg1198
I40
sg1200
I10
sg1264
I20
sg1201
I01
sg1202
I800
sg81
I32
sba(imodels.machine
Shovel
p1301
(dp1302
g1192
g1262
sg614
(lp1303
sg618
I50
sg1196
I10000
sg1197
g10
sg1198
I40
sg1200
I10
sg1264
I20
sg1201
I01
sg1202
I800
sg81
I33
sba(imodels.machine
Shovel
p1304
(dp1305
g1192
g1262
sg614
(lp1306
sg618
I50
sg1196
I10000
sg1197
g10
sg1198
I40
sg1200
I10
sg1264
I20
sg1201
I01
sg1202
I800
sg81
I34
sba(imodels.machine
Shovel
p1307
(dp1308
g1192
g1262
sg614
(lp1309
sg618
I50
sg1196
I10000
sg1197
g10
sg1198
I40
sg1200
I10
sg1264
I20
sg1201
I01
sg1202
I800
sg81
I35
sba(imodels.machine
Shovel
p1310
(dp1311
g1192
g1262
sg614
(lp1312
sg618
I50
sg1196
I10000
sg1197
g10
sg1198
I40
sg1200
I10
sg1264
I20
sg1201
I01
sg1202
I800
sg81
I36
sba(imodels.machine
Shovel
p1313
(dp1314
g1192
g1262
sg614
(lp1315
sg618
I50
sg1196
I10000
sg1197
g10
sg1198
I40
sg1200
I10
sg1264
I20
sg1201
I01
sg1202
I800
sg81
I37
sba(imodels.machine
Shovel
p1316
(dp1317
g1192
g1262
sg614
(lp1318
sg618
I50
sg1196
I10000
sg1197
g10
sg1198
I40
sg1200
I10
sg1264
I20
sg1201
I01
sg1202
I800
sg81
I38
sba(imodels.machine
Shovel
p1319
(dp1320
g1192
g1262
sg614
(lp1321
sg618
I50
sg1196
I10000
sg1197
g10
sg1198
I40
sg1200
I10
sg1264
I20
sg1201
I01
sg1202
I800
sg81
I39
sba(imodels.machine
Truck
p1322
(dp1323
g1192
S'TRK1'
p1324
sg1194
I400
sg614
(lp1325
sg1196
I10000
sg1197
g150
sg1198
I40
sg1199
I500
sg1200
I10
sg1201
I01
sg1202
I800
sg81
I40
sba(imodels.machine
Truck
p1326
(dp1327
g1192
g1324
sg1194
I400
sg614
(lp1328
sg1196
I10000
sg1197
g150
sg1198
I40
sg1199
I500
sg1200
I10
sg1201
I01
sg1202
I800
sg81
I41
sba(imodels.machine
Truck
p1329
(dp1330
g1192
g1324
sg1194
I400
sg614
(lp1331
sg1196
I10000
sg1197
g150
sg1198
I40
sg1199
I500
sg1200
I10
sg1201
I01
sg1202
I800
sg81
I42
sba(imodels.machine
Truck
p1332
(dp1333
g1192
g1324
sg1194
I400
sg614
(lp1334
sg1196
I10000
sg1197
g150
sg1198
I40
sg1199
I500
sg1200
I10
sg1201
I01
sg1202
I800
sg81
I43
sba(imodels.machine
Truck
p1335
(dp1336
g1192
g1324
sg1194
I400
sg614
(lp1337
sg1196
I10000
sg1197
g150
sg1198
I40
sg1199
I500
sg1200
I10
sg1201
I01
sg1202
I800
sg81
I44
sba(imodels.machine
Truck
p1338
(dp1339
g1192
g1324
sg1194
I400
sg614
(lp1340
sg1196
I10000
sg1197
g150
sg1198
I40
sg1199
I500
sg1200
I10
sg1201
I01
sg1202
I800
sg81
I45
sba(imodels.machine
Truck
p1341
(dp1342
g1192
g1324
sg1194
I400
sg614
(lp1343
sg1196
I10000
sg1197
g150
sg1198
I40
sg1199
I500
sg1200
I10
sg1201
I01
sg1202
I800
sg81
I46
sba(imodels.machine
Truck
p1344
(dp1345
g1192
g1324
sg1194
I400
sg614
(lp1346
sg1196
I10000
sg1197
g150
sg1198
I40
sg1199
I500
sg1200
I10
sg1201
I01
sg1202
I800
sg81
I47
sba(imodels.machine
Truck
p1347
(dp1348
g1192
g1324
sg1194
I400
sg614
(lp1349
sg1196
I10000
sg1197
g150
sg1198
I40
sg1199
I500
sg1200
I10
sg1201
I01
sg1202
I800
sg81
I48
sba(imodels.machine
Truck
p1350
(dp1351
g1192
g1324
sg1194
I400
sg614
(lp1352
sg1196
I10000
sg1197
g150
sg1198
I40
sg1199
I500
sg1200
I10
sg1201
I01
sg1202
I800
sg81
I49
sbas.