(dp0
S'missions'
p1
(lp2
(iapplication.models.mission
Mission
p3
(dp4
S'startDate'
p5
cdatetime
datetime
p6
(S'\x07\xe1\x05\x01\x00\x00\x00\x00\x00\x00'
p7
tp8
Rp9
sS'dumpLocations'
p10
(lp11
(imodels.location
Location
p12
(dp13
S'point'
p14
(iapplication.models.point
Point
p15
(dp16
S'lat'
p17
F40.52108109681687
sS'index'
p18
I6
sS'lng'
p19
F-112.15296835079641
sS'nid'
p20
I72
sbsS'type'
p21
S'dump'
p22
sS'id'
p23
I5
sS'name'
p24
S'Dump5'
p25
sba(imodels.location
Location
p26
(dp27
g14
(iapplication.models.point
Point
p28
(dp29
g17
F40.52144455481663
sg18
I4
sg19
F-112.14980874008938
sg20
I88
sbsg21
g22
sg23
I6
sg24
S'Dump6'
p30
sba(imodels.location
Location
p31
(dp32
g14
(iapplication.models.point
Point
p33
(dp34
g17
F40.519030435813804
sg18
I3
sg19
F-112.15059865197139
sg20
I140
sbsg21
g22
sg23
I7
sg24
S'Dump7'
p35
sba(imodels.location
Location
p36
(dp37
g14
(iapplication.models.point
Point
p38
(dp39
g17
F40.51908548882387
sg18
I4
sg19
F-112.15185392575552
sg20
I148
sbsg21
g22
sg23
I8
sg24
S'Dump8'
p40
sba(imodels.location
Location
p41
(dp42
g14
(iapplication.models.point
Point
p43
(dp44
g17
F40.52560778799078
sg18
I3
sg19
F-112.14102178593572
sg20
I133
sbsg21
g22
sg23
I9
sg24
S'Dump9'
p45
sbasS'endDate'
p46
g6
(S'\x07\xe1\x05\x0b\x00\x00\x00\x00\x00\x00'
p47
tp48
Rp49
sS'target'
p50
I500000
sS'title'
p51
S'New mission 1'
p52
sS'digLocation'
p53
(imodels.location
Location
p54
(dp55
g14
(iapplication.models.point
Point
p56
(dp57
g17
F40.5229309078227
sg18
I3
sg19
F-112.15563986248776
sg20
I144
sbsg21
S'dig'
p58
sg23
I2
sg24
S'Site2'
p59
sbsS'schedules'
p60
(lp61
sg23
I1
sS'numDays'
p62
I10
sba(iapplication.models.mission
Mission
p63
(dp64
g5
g6
(S'\x07\xe1\x06\x01\x00\x00\x00\x00\x00\x00'
p65
tp66
Rp67
sg10
(lp68
g12
ag26
ag31
ag36
ag41
asg46
g6
(S'\x07\xe1\x06\x0b\x00\x00\x00\x00\x00\x00'
p69
tp70
Rp71
sg50
I500000
sg51
S'New mission 2'
p72
sg53
(imodels.location
Location
p73
(dp74
g14
(iapplication.models.point
Point
p75
(dp76
g17
F40.525849994573086
sg18
I3
sg19
F-112.1480257423629
sg20
I91
sbsg21
g58
sg23
I4
sg24
S'Site4'
p77
sbsg60
(lp78
sg23
I2
sg62
I10
sbasS'machines'
p79
(lp80
(imodels.machine
Shovel
p81
(dp82
S'weightCapacity'
p83
I117
sS'weight'
p84
I1381
sg14
(iapplication.models.point
Point
p85
(dp86
g17
F40.52451305258641
sg18
I1
sg19
F-112.10572931713864
sg20
I209
sbsS'speed'
p87
I12
sS'staticFuelConsumption'
p88
I112
sS'isAvailable'
p89
I01
sS'fuelConsumption'
p90
I174
sS'model'
p91
S'SHV0'
p92
sS'fuelCapacity'
p93
I9020
sg23
I0
sba(imodels.machine
Shovel
p94
(dp95
g83
I72
sg84
I1434
sg14
(iapplication.models.point
Point
p96
(dp97
g17
F40.530417151348395
sg18
I4
sg19
F-112.15297189238458
sg20
I77
sbsg87
I16
sg88
I101
sg89
I01
sg90
I170
sg91
S'SHV1'
p98
sg93
I11254
sg23
I1
sba(imodels.machine
Shovel
p99
(dp100
g83
I78
sg84
I1792
sg14
(iapplication.models.point
Point
p101
(dp102
g17
F40.529357119273065
sg18
I1
sg19
F-112.14197132534787
sg20
I189
sbsg87
I14
sg88
I82
sg89
I01
sg90
I193
sg91
S'SHV2'
p103
sg93
I10109
sg23
I2
sba(imodels.machine
Shovel
p104
(dp105
g83
I64
sg84
I1621
sg14
(iapplication.models.point
Point
p106
(dp107
g17
F40.52199302087392
sg18
I1
sg19
F-112.1485695595245
sg20
I64
sbsg87
I14
sg88
I93
sg89
I01
sg90
I162
sg91
S'SHV3'
p108
sg93
I9266
sg23
I3
sba(imodels.machine
Shovel
p109
(dp110
g83
I52
sg84
I1412
sg14
(iapplication.models.point
Point
p111
(dp112
g17
F40.519697181358865
sg18
I3
sg19
F-112.15714458174511
sg20
I122
sbsg87
I19
sg88
I89
sg89
I01
sg90
I180
sg91
S'SHV4'
p113
sg93
I9986
sg23
I4
sba(imodels.machine
Loader
p114
(dp115
g83
I51
sg84
I396016
sg14
(iapplication.models.point
Point
p116
(dp117
g17
F40.52720015727784
sg18
I3
sg19
F-112.13470788709247
sg20
I236
sbsg87
I46
sg88
I114
sg89
I01
sg90
I166
sg91
S'LOD5'
p118
sg93
I8265
sg23
I5
sba(imodels.machine
Loader
p119
(dp120
g83
I54
sg84
I278429
sg14
(iapplication.models.point
Point
p121
(dp122
g17
F40.53105432014323
sg18
I2
sg19
F-112.14738744003029
sg20
I75
sbsg87
I48
sg88
I117
sg89
I01
sg90
I183
sg91
S'LOD6'
p123
sg93
I9283
sg23
I6
sba(imodels.machine
Loader
p124
(dp125
g83
I34
sg84
I279266
sg14
(iapplication.models.point
Point
p126
(dp127
g17
F40.527766933963264
sg18
I8
sg19
F-112.13397834248349
sg20
I157
sbsg87
I48
sg88
I96
sg89
I01
sg90
I191
sg91
S'LOD7'
p128
sg93
I10481
sg23
I7
sba(imodels.machine
Loader
p129
(dp130
g83
I52
sg84
I398608
sg14
(iapplication.models.point
Point
p131
(dp132
g17
F40.50917764580214
sg18
I9
sg19
F-112.14644667718045
sg20
I206
sbsg87
I45
sg88
I87
sg89
I01
sg90
I174
sg91
S'LOD8'
p133
sg93
I11242
sg23
I8
sba(imodels.machine
Loader
p134
(dp135
g83
I21
sg84
I349617
sg14
(iapplication.models.point
Point
p136
(dp137
g17
F40.528067561722764
sg18
I2
sg19
F-112.14214828710544
sg20
I132
sbsg87
I45
sg88
I88
sg89
I01
sg90
I183
sg91
S'LOD9'
p138
sg93
I11158
sg23
I9
sba(imodels.machine
Truck
p139
(dp140
g83
I313
sg84
I270
sg14
(iapplication.models.point
Point
p141
(dp142
g17
F40.521347139574985
sg18
I17
sg19
F-112.14991611565029
sg20
I50
sbsg87
I40
sg88
I118
sg89
I01
sg90
I166
sg91
S'TRK10'
p143
sg93
I11629
sg23
I10
sba(imodels.machine
Truck
p144
(dp145
g83
I318
sg84
I333
sg14
(iapplication.models.point
Point
p146
(dp147
g17
F40.52308178440836
sg18
I2
sg19
F-112.15494785501107
sg20
I143
sbsg87
I44
sg88
I102
sg89
I01
sg90
I198
sg91
S'TRK11'
p148
sg93
I8758
sg23
I11
sba(imodels.machine
Truck
p149
(dp150
g83
I378
sg84
I292
sg14
(iapplication.models.point
Point
p151
(dp152
g17
F40.520930657625264
sg18
I8
sg19
F-112.14018905667513
sg20
I196
sbsg87
I49
sg88
I113
sg89
I01
sg90
I190
sg91
S'TRK12'
p153
sg93
I8965
sg23
I12
sba(imodels.machine
Truck
p154
(dp155
g83
I327
sg84
I355
sg14
(iapplication.models.point
Point
p156
(dp157
g17
F40.52406145192949
sg18
I1
sg19
F-112.14723784274861
sg20
I89
sbsg87
I41
sg88
I97
sg89
I01
sg90
I199
sg91
S'TRK13'
p158
sg93
I8217
sg23
I13
sba(imodels.machine
Truck
p159
(dp160
g83
I375
sg84
I327
sg14
g111
sg87
I44
sg88
I102
sg89
I01
sg90
I164
sg91
S'TRK14'
p161
sg93
I8445
sg23
I14
sba(imodels.machine
Truck
p162
(dp163
g83
I353
sg84
I276
sg14
(iapplication.models.point
Point
p164
(dp165
g17
F40.52359965398034
sg18
I1
sg19
F-112.1546206230621
sg20
I142
sbsg87
I47
sg88
I107
sg89
I01
sg90
I179
sg91
S'TRK15'
p166
sg93
I11775
sg23
I15
sba(imodels.machine
Truck
p167
(dp168
g83
I331
sg84
I289
sg14
(iapplication.models.point
Point
p169
(dp170
g17
F40.527597683697266
sg18
I3
sg19
F-112.15038007082154
sg20
I83
sbsg87
I42
sg88
I80
sg89
I01
sg90
I168
sg91
S'TRK16'
p171
sg93
I9261
sg23
I16
sba(imodels.machine
Truck
p172
(dp173
g83
I315
sg84
I342
sg14
(iapplication.models.point
Point
p174
(dp175
g17
F40.524449849065824
sg18
I6
sg19
F-112.15532470292851
sg20
I79
sbsg87
I41
sg88
I99
sg89
I01
sg90
I200
sg91
S'TRK17'
p176
sg93
I11379
sg23
I17
sba(imodels.machine
Truck
p177
(dp178
g83
I325
sg84
I272
sg14
(iapplication.models.point
Point
p179
(dp180
g17
F40.52505944774498
sg18
I5
sg19
F-112.1482852548599
sg20
I93
sbsg87
I40
sg88
I105
sg89
I01
sg90
I151
sg91
S'TRK18'
p181
sg93
I8452
sg23
I18
sba(imodels.machine
Truck
p182
(dp183
g83
I378
sg84
I375
sg14
(iapplication.models.point
Point
p184
(dp185
g17
F40.52284920562756
sg18
I6
sg19
F-112.13894582837514
sg20
I194
sbsg87
I49
sg88
I108
sg89
I01
sg90
I182
sg91
S'TRK19'
p186
sg93
I11068
sg23
I19
sbasS'locations'
p187
(lp188
(imodels.location
Location
p189
(dp190
g14
(iapplication.models.point
Point
p191
(dp192
g17
F40.524900429038105
sg18
I8
sg19
F-112.15478156110925
sg20
I103
sbsg21
g58
sg23
I0
sg24
S'Site0'
p193
sba(imodels.location
Location
p194
(dp195
g14
(iapplication.models.point
Point
p196
(dp197
g17
F40.51674876769078
sg18
I4
sg19
F-112.13403198666379
sg20
I233
sbsg21
g58
sg23
I1
sg24
S'Site1'
p198
sbag54
a(imodels.location
Location
p199
(dp200
g14
(iapplication.models.point
Point
p201
(dp202
g17
F40.53019297078088
sg18
I1
sg19
F-112.14367184586331
sg20
I131
sbsg21
g58
sg23
I3
sg24
S'Site3'
p203
sbag73
ag12
ag26
ag31
ag36
ag41
a(imodels.location
Location
p204
(dp205
g14
(iapplication.models.point
Point
p206
(dp207
g17
F40.52115132628771
sg18
I11
sg19
F-112.11647471004926
sg20
I219
sbsg21
S'fuel'
p208
sg23
I10
sg24
S'Fuel10'
p209
sba(imodels.location
Location
p210
(dp211
g14
(iapplication.models.point
Point
p212
(dp213
g17
F40.528383625142695
sg18
I2
sg19
F-112.15034251342354
sg20
I82
sbsg21
g208
sg23
I11
sg24
S'Fuel11'
p214
sbas.