(dp0
S'missions'
p1
(lp2
(imodels.mission
Mission
p3
(dp4
S'startDate'
p5
cdatetime
datetime
p6
(S'\x07\xe1\x05\x01\x00\x00\x00\x00\x00\x00'
p7
tp8
Rp9
sS'dumpLocations'
p10
(lp11
(imodels.point
Point
p12
(dp13
S'lat'
p14
F40.52308178440836
sS'index'
p15
I2
sS'lng'
p16
F-112.15494785501107
sS'nid'
p17
I143
sbag12
asS'endDate'
p18
g6
(S'\x07\xe1\x05\x0b\x00\x00\x00\x00\x00\x00'
p19
tp20
Rp21
sS'target'
p22
I500000
sS'title'
p23
S'New mission'
p24
sS'numDays'
p25
I10
sS'schedules'
p26
(lp27
sS'digLocation'
p28
g12
sbasS'machines'
p29
(lp30
(imodels.machine
Shovel
p31
(dp32
S'weightCapacity'
p33
I67
sS'tasks'
p34
(lp35
sS'staticFuelConsupmtion'
p36
I104
sS'weight'
p37
I1524
sS'speed'
p38
I18
sS'isAvailable'
p39
I01
sS'location'
p40
(imodels.point
Point
p41
(dp42
g14
F40.52937238411766
sg15
I3
sg16
F-112.15080726847532
sg17
I98
sbsS'fuelConsumption'
p43
I191
sS'model'
p44
S'SHV0'
p45
sS'fuelCapacity'
p46
I11786
sS'id'
p47
I0
sba(imodels.machine
Shovel
p48
(dp49
g33
I21
sg34
(lp50
sg36
I116
sg37
I1834
sg38
I19
sg39
I01
sg40
(imodels.point
Point
p51
(dp52
g14
F40.518991694454094
sg15
I1
sg16
F-112.15212080426022
sg17
I120
sbsg43
I198
sg44
S'SHV1'
p53
sg46
I8599
sg47
I1
sba(imodels.machine
Shovel
p54
(dp55
g33
I86
sg34
(lp56
sg36
I112
sg37
I1640
sg38
I15
sg39
I01
sg40
(imodels.point
Point
p57
(dp58
g14
F40.51310284647761
sg15
I2
sg16
F-112.1382324030725
sg17
I231
sbsg43
I153
sg44
S'SHV2'
p59
sg46
I11487
sg47
I2
sba(imodels.machine
Shovel
p60
(dp61
g33
I99
sg34
(lp62
sg36
I110
sg37
I1518
sg38
I20
sg39
I01
sg40
(imodels.point
Point
p63
(dp64
g14
F40.530417151348395
sg15
I4
sg16
F-112.15297189238458
sg17
I77
sbsg43
I183
sg44
S'SHV3'
p65
sg46
I9430
sg47
I3
sba(imodels.machine
Shovel
p66
(dp67
g33
I89
sg34
(lp68
sg36
I80
sg37
I1721
sg38
I12
sg39
I01
sg40
(imodels.point
Point
p69
(dp70
g14
F40.53002936641421
sg15
I2
sg16
F-112.14985069036732
sg17
I97
sbsg43
I168
sg44
S'SHV4'
p71
sg46
I11160
sg47
I4
sba(imodels.machine
Loader
p72
(dp73
g33
I30
sg34
(lp74
sg36
I114
sg37
I321445
sg38
I43
sg39
I01
sg40
(imodels.point
Point
p75
(dp76
g14
F40.518991694454094
sg15
I5
sg16
F-112.15212080426022
sg17
I149
sbsg43
I156
sg44
S'LOD5'
p77
sg46
I9011
sg47
I5
sba(imodels.machine
Loader
p78
(dp79
g33
I35
sg34
(lp80
sg36
I115
sg37
I319905
sg38
I43
sg39
I01
sg40
(imodels.point
Point
p81
(dp82
g14
F40.52876182355014
sg15
I1
sg16
F-112.14954320139691
sg17
I81
sbsg43
I158
sg44
S'LOD6'
p83
sg46
I10105
sg47
I6
sba(imodels.machine
Loader
p84
(dp85
g33
I26
sg34
(lp86
sg36
I115
sg37
I289176
sg38
I47
sg39
I01
sg40
(imodels.point
Point
p87
(dp88
g14
F40.5223991989187
sg15
I20
sg16
F-112.15192519721535
sg17
I53
sbsg43
I185
sg44
S'LOD7'
p89
sg46
I8479
sg47
I7
sba(imodels.machine
Loader
p90
(dp91
g33
I59
sg34
(lp92
sg36
I80
sg37
I392242
sg38
I43
sg39
I01
sg40
(imodels.point
Point
p93
(dp94
g14
F40.52720015727784
sg15
I3
sg16
F-112.13470788709247
sg17
I236
sbsg43
I179
sg44
S'LOD8'
p95
sg46
I11027
sg47
I8
sba(imodels.machine
Loader
p96
(dp97
g33
I41
sg34
(lp98
sg36
I87
sg37
I329403
sg38
I42
sg39
I01
sg40
g51
sg43
I154
sg44
S'LOD9'
p99
sg46
I11285
sg47
I9
sba(imodels.machine
Truck
p100
(dp101
g33
I369
sg34
(lp102
sg36
I81
sg37
I353
sg38
I40
sg39
I01
sg40
g12
sg43
I186
sg44
S'TRK10'
p103
sg46
I9212
sg47
I10
sba(imodels.machine
Truck
p104
(dp105
g33
I392
sg34
(lp106
sg36
I100
sg37
I356
sg38
I49
sg39
I01
sg40
(imodels.point
Point
p107
(dp108
g14
F40.518991694454094
sg15
I1
sg16
F-112.15212080426022
sg17
I105
sbsg43
I187
sg44
S'TRK11'
p109
sg46
I9370
sg47
I11
sba(imodels.machine
Truck
p110
(dp111
g33
I353
sg34
(lp112
sg36
I89
sg37
I326
sg38
I46
sg39
I01
sg40
(imodels.point
Point
p113
(dp114
g14
F40.527597683697266
sg15
I3
sg16
F-112.15038007082154
sg17
I83
sbsg43
I177
sg44
S'TRK12'
p115
sg46
I8335
sg47
I12
sba(imodels.machine
Truck
p116
(dp117
g33
I380
sg34
(lp118
sg36
I98
sg37
I284
sg38
I45
sg39
I01
sg40
(imodels.point
Point
p119
(dp120
g14
F40.52595648401059
sg15
I5
sg16
F-112.1545160579335
sg17
I78
sbsg43
I152
sg44
S'TRK13'
p121
sg46
I11155
sg47
I13
sba(imodels.machine
Truck
p122
(dp123
g33
I319
sg34
(lp124
sg36
I81
sg37
I359
sg38
I40
sg39
I01
sg40
(imodels.point
Point
p125
(dp126
g14
F40.518862269185945
sg15
I3
sg16
F-112.14784948551801
sg17
I125
sbsg43
I187
sg44
S'TRK14'
p127
sg46
I9025
sg47
I14
sba(imodels.machine
Truck
p128
(dp129
g33
I315
sg34
(lp130
sg36
I120
sg37
I262
sg38
I42
sg39
I01
sg40
(imodels.point
Point
p131
(dp132
g14
F40.527766933963264
sg15
I4
sg16
F-112.13397834248349
sg17
I237
sbsg43
I173
sg44
S'TRK15'
p133
sg46
I10362
sg47
I15
sba(imodels.machine
Truck
p134
(dp135
g33
I352
sg34
(lp136
sg36
I101
sg37
I338
sg38
I46
sg39
I01
sg40
g51
sg43
I175
sg44
S'TRK16'
p137
sg46
I10521
sg47
I16
sba(imodels.machine
Truck
p138
(dp139
g33
I400
sg34
(lp140
sg36
I109
sg37
I330
sg38
I42
sg39
I01
sg40
(imodels.point
Point
p141
(dp142
g14
F40.52953604428945
sg15
I15
sg16
F-112.13400461025049
sg17
I164
sbsg43
I171
sg44
S'TRK17'
p143
sg46
I10996
sg47
I17
sba(imodels.machine
Truck
p144
(dp145
g33
I327
sg34
(lp146
sg36
I105
sg37
I311
sg38
I45
sg39
I01
sg40
(imodels.point
Point
p147
(dp148
g14
F40.524452280723104
sg15
I4
sg16
F-112.14027479428802
sg17
I134
sbsg43
I178
sg44
S'TRK18'
p149
sg46
I8713
sg47
I18
sba(imodels.machine
Truck
p150
(dp151
g33
I366
sg34
(lp152
sg36
I97
sg37
I302
sg38
I43
sg39
I01
sg40
(imodels.point
Point
p153
(dp154
g14
F40.51290707153489
sg15
I1
sg16
F-112.14024398274228
sg17
I230
sbsg43
I189
sg44
S'TRK19'
p155
sg46
I10410
sg47
I19
sbas.