(dp0
S'missions'
p1
(lp2
(iopmop.models.mission
Mission
p3
(dp4
S'startDate'
p5
cdatetime
datetime
p6
(S'\x07\xe1\x06\x01\x00\x00\x00\x00\x00\x00'
p7
tp8
Rp9
sS'dumpLocations'
p10
(lp11
(iopmop.models.location
Location
p12
(dp13
S'point'
p14
(iopmop.models.point
Point
p15
(dp16
S'lat'
p17
F40.520529070040396
sS'index'
p18
I6
sS'lng'
p19
F-112.14105938451621
sS'nid'
p20
I136
sbsS'type'
p21
S'dump'
p22
sS'id'
p23
I5
sS'name'
p24
S'Dump5'
p25
sba(iopmop.models.location
Location
p26
(dp27
g14
(iopmop.models.point
Point
p28
(dp29
g17
F40.52345285661486
sg18
I3
sg19
F-112.14888069577023
sg20
I66
sbsg21
g22
sg23
I6
sg24
S'Dump6'
p30
sba(iopmop.models.location
Location
p31
(dp32
g14
(iopmop.models.point
Point
p33
(dp34
g17
F40.519030435813804
sg18
I3
sg19
F-112.15059865197139
sg20
I140
sbsg21
g22
sg23
I7
sg24
S'Dump7'
p35
sba(iopmop.models.location
Location
p36
(dp37
g14
(iopmop.models.point
Point
p38
(dp39
g17
F40.528013668947594
sg18
I2
sg19
F-112.13682424128115
sg20
I151
sbsg21
g22
sg23
I8
sg24
S'Dump8'
p40
sba(iopmop.models.location
Location
p41
(dp42
g14
(iopmop.models.point
Point
p43
(dp44
g17
F40.52359965398034
sg18
I1
sg19
F-112.1546206230621
sg20
I142
sbsg21
g22
sg23
I9
sg24
S'Dump9'
p45
sbasS'endDate'
p46
g6
(S'\x07\xe1\x06\x1e\x00\x00\x00\x00\x00\x00'
p47
tp48
Rp49
sS'target'
p50
I80000
sS'title'
p51
S'Iron min'
p52
sS'digLocation'
p53
(iopmop.models.location
Location
p54
(dp55
g14
(iopmop.models.point
Point
p56
(dp57
g17
F40.523770911584855
sg18
I6
sg19
F-112.14899067669228
sg20
I94
sbsg21
S'dig'
p58
sg23
I1
sg24
S'Site1'
p59
sbsS'schedules'
p60
(lp61
(iopmop.models.schedule
Schedule
p62
(dp63
S'tasks'
p64
(lp65
(iopmop.models.task
DigTask
p66
(dp67
g50
F2758.0
sS'machineId'
p68
I9
sS'comments'
p69
S'None'
p70
sS'actualTarget'
p71
NsS'cost'
p72
NsS'location'
p73
g54
sS'startTime'
p74
g6
(S'\x07\xe1\x06\x01\t\x00\x00\x00\x00\x00'
p75
tp76
Rp77
sS'endTime'
p78
g6
(S'\x07\xe1\x06\x01\x0e\x0b.\x01r\x15'
p79
tp80
Rp81
sg23
S'0-0'
p82
sba(iopmop.models.task
LoadTask
p83
(dp84
g50
F3417.0
sg68
I15
sg69
g70
sg71
Nsg72
Nsg73
g54
sg74
g6
(S'\x07\xe1\x06\x01\t\x00\x00\x00\x00\x00'
p85
tp86
Rp87
sg78
g6
(S'\x07\xe1\x06\x01\r\x06\x00\x00\x00\x00'
p88
tp89
Rp90
sg23
S'0-0'
p91
sba(iopmop.models.task
HaulageTask
p92
(dp93
g72
Nsg50
I452
sg68
I47
sg69
g70
sg71
NsS'dumpLocation'
p94
g31
sg73
g54
sg74
g6
(S'\x07\xe1\x06\x01\t(6\x0en\x0c'
p95
tp96
Rp97
sg78
g6
(S'\x07\xe1\x06\x01\n\x01\x16\x06b\xd2'
p98
tp99
Rp100
sg23
S'0-1'
p101
sba(iopmop.models.task
HaulageTask
p102
(dp103
g72
Nsg50
I382
sg68
I34
sg69
g70
sg71
Nsg94
g31
sg73
g54
sg74
g6
(S'\x07\xe1\x06\x01\n\x06\x05\x04a\x8c'
p104
tp105
Rp106
sg78
g6
(S'\x07\xe1\x06\x01\n\x1c\x07\x00\xc1P'
p107
tp108
Rp109
sg23
S'0-1'
p110
sba(iopmop.models.task
HaulageTask
p111
(dp112
g72
Nsg50
I351
sg68
I41
sg69
g70
sg71
Nsg94
g31
sg73
g54
sg74
g6
(S'\x07\xe1\x06\x01\n-\x11\x06\xbe6'
p113
tp114
Rp115
sg78
g6
(S'\x07\xe1\x06\x01\x0b\x06\x14\x0e1\xf4'
p116
tp117
Rp118
sg23
S'0-1'
p119
sba(iopmop.models.task
HaulageTask
p120
(dp121
g72
Nsg50
I385
sg68
I25
sg69
g70
sg71
Nsg94
g31
sg73
g54
sg74
g6
(S'\x07\xe1\x06\x01\x0b\x06)\x0e*\xb0'
p122
tp123
Rp124
sg78
g6
(S'\x07\xe1\x06\x01\x0b\x1b0\r\xfc\x18'
p125
tp126
Rp127
sg23
S'0-1'
p128
sba(iopmop.models.task
HaulageTask
p129
(dp130
g72
Nsg50
I442
sg68
I28
sg69
g70
sg71
Nsg94
g31
sg73
g54
sg74
g6
(S'\x07\xe1\x06\x01\x0b#\t\x0c,\x0b'
p131
tp132
Rp133
sg78
g6
(S'\x07\xe1\x06\x01\x0b9\x13\x0b\xbb('
p134
tp135
Rp136
sg23
S'0-1'
p137
sba(iopmop.models.task
HaulageTask
p138
(dp139
g72
Nsg50
I452
sg68
I47
sg69
g70
sg71
Nsg94
g31
sg73
g54
sg74
g6
(S'\x07\xe1\x06\x01\x0c\x04\x07\x03\xe66'
p140
tp141
Rp142
sg78
g6
(S'\x07\xe1\x06\x01\x0c\x18"\x0b\x1d<'
p143
tp144
Rp145
sg23
S'0-1'
p146
sba(iopmop.models.task
HaulageTask
p147
(dp148
g72
Nsg50
I382
sg68
I34
sg69
g70
sg71
Nsg94
g31
sg73
g54
sg74
g6
(S'\x07\xe1\x06\x01\x0c(\x11\t\x84h'
p149
tp150
Rp151
sg78
g6
(S'\x07\xe1\x06\x01\r\x02\x13\x05\xe4,'
p152
tp153
Rp154
sg23
S'0-1'
p155
sbasg50
I2758
sS'remainingDig'
p156
F0.0
sS'mission'
p157
g3
sS'remainingLoad'
p158
F-659.0
sS'date'
p159
g6
(S'\x07\xe1\x06\x01\x00\x00\x00\x00\x00\x00'
p160
tp161
Rp162
sS'allocated'
p163
I01
sS'remainingHaulage'
p164
F-88.0
sg23
I0
sba(iopmop.models.schedule
Schedule
p165
(dp166
g64
(lp167
(iopmop.models.task
DigTask
p168
(dp169
g50
F2758.0
sg68
I9
sg69
g70
sg71
Nsg72
Nsg73
g54
sg74
g6
(S'\x07\xe1\x06\x02\t\x00\x00\x00\x00\x00'
p170
tp171
Rp172
sg78
g6
(S'\x07\xe1\x06\x02\x0e\x0b.\x01r\x15'
p173
tp174
Rp175
sg23
S'1-0'
p176
sba(iopmop.models.task
LoadTask
p177
(dp178
g50
F3417.0
sg68
I15
sg69
g70
sg71
Nsg72
Nsg73
g54
sg74
g6
(S'\x07\xe1\x06\x02\t\x00\x00\x00\x00\x00'
p179
tp180
Rp181
sg78
g6
(S'\x07\xe1\x06\x02\r\x06\x00\x00\x00\x00'
p182
tp183
Rp184
sg23
S'1-0'
p185
sba(iopmop.models.task
HaulageTask
p186
(dp187
g72
Nsg50
I351
sg68
I41
sg69
g70
sg71
Nsg94
g31
sg73
g54
sg74
g6
(S'\x07\xe1\x06\x02\t*\x06\x0e\xe7|'
p188
tp189
Rp190
sg78
g6
(S'\x07\xe1\x06\x02\n\x03\n\x07\x18\xfa'
p191
tp192
Rp193
sg23
S'1-1'
p194
sba(iopmop.models.task
HaulageTask
p195
(dp196
g72
Nsg50
I385
sg68
I25
sg69
g70
sg71
Nsg94
g31
sg73
g54
sg74
g6
(S'\x07\xe1\x06\x02\n\x03\x14\x0e\xb6x'
p197
tp198
Rp199
sg78
g6
(S'\x07\xe1\x06\x02\n\x18\x1b\x0e\x87\xe0'
p200
tp201
Rp202
sg23
S'1-1'
p203
sba(iopmop.models.task
HaulageTask
p204
(dp205
g72
Nsg50
I452
sg68
I47
sg69
g70
sg71
Nsg94
g31
sg73
g54
sg74
g6
(S'\x07\xe1\x06\x02\n*\x11\x05\x8e\x9e'
p206
tp207
Rp208
sg78
g6
(S'\x07\xe1\x06\x02\x0b\x02,\x0c\xc5\xa4'
p209
tp210
Rp211
sg23
S'1-1'
p212
sba(iopmop.models.task
HaulageTask
p213
(dp214
g72
Nsg50
I351
sg68
I41
sg69
g70
sg71
Nsg94
g31
sg73
g54
sg74
g6
(S'\x07\xe1\x06\x02\x0b\x06\x14\x0e1\xf4'
p215
tp216
Rp217
sg78
g6
(S'\x07\xe1\x06\x02\x0b\x1b\x18\x06cr'
p218
tp219
Rp220
sg23
S'1-1'
p221
sba(iopmop.models.task
HaulageTask
p222
(dp223
g72
Nsg50
I385
sg68
I25
sg69
g70
sg71
Nsg94
g31
sg73
g54
sg74
g6
(S'\x07\xe1\x06\x02\x0b\x1b0\r\xfc\x18'
p224
tp225
Rp226
sg78
g6
(S'\x07\xe1\x06\x02\x0b07\r\xcd\x80'
p227
tp228
Rp229
sg23
S'1-1'
p230
sba(iopmop.models.task
HaulageTask
p231
(dp232
g72
Nsg50
I442
sg68
I28
sg69
g70
sg71
Nsg94
g31
sg73
g54
sg74
g6
(S'\x07\xe1\x06\x02\x0b9\x13\x0b\xbb('
p233
tp234
Rp235
sg78
g6
(S'\x07\xe1\x06\x02\x0c\x13\x1d\x0bJE'
p236
tp237
Rp238
sg23
S'1-1'
p239
sba(iopmop.models.task
HaulageTask
p240
(dp241
g72
Nsg50
I452
sg68
I47
sg69
g70
sg71
Nsg94
g31
sg73
g54
sg74
g6
(S'\x07\xe1\x06\x02\x0c\x18"\x0b\x1d<'
p242
tp243
Rp244
sg78
g6
(S'\x07\xe1\x06\x02\x0c-\x02\x03\x12\x02'
p245
tp246
Rp247
sg23
S'1-1'
p248
sbasg50
I2758
sg156
F0.0
sg157
g3
sg158
F-659.0
sg159
g6
(S'\x07\xe1\x06\x02\x00\x00\x00\x00\x00\x00'
p249
tp250
Rp251
sg163
I01
sg164
F-60.0
sg23
I1
sba(iopmop.models.schedule
Schedule
p252
(dp253
g64
(lp254
(iopmop.models.task
DigTask
p255
(dp256
g50
F2758.0
sg68
I9
sg69
S'None'
p257
sg71
Nsg72
Nsg73
g54
sg74
g6
(S'\x07\xe1\x06\x03\t\x00\x00\x00\x00\x00'
p258
tp259
Rp260
sg78
g6
(S'\x07\xe1\x06\x03\x0e\x0b.\x01r\x15'
p261
tp262
Rp263
sg23
S'2-0'
p264
sba(iopmop.models.task
LoadTask
p265
(dp266
g50
F3234.0
sg68
I13
sg69
g257
sg71
Nsg72
Nsg73
g54
sg74
g6
(S'\x07\xe1\x06\x03\t\x00\x00\x00\x00\x00'
p267
tp268
Rp269
sg78
g6
(S'\x07\xe1\x06\x03\x0e$\x00\x00\x00\x00'
p270
tp271
Rp272
sg23
S'2-0'
p273
sba(iopmop.models.task
HaulageTask
p274
(dp275
g50
I385
sg68
I25
sg69
g257
sg94
g31
sg71
Nsg72
Nsg73
g54
sg74
g6
(S'\x07\xe1\x06\x03\t*\r\x0e\xe5\x10'
p276
tp277
Rp278
sg78
g6
(S'\x07\xe1\x06\x03\n\x03\x14\x0e\xb6x'
p279
tp280
Rp281
sg23
S'2-1'
p282
sba(iopmop.models.task
HaulageTask
p283
(dp284
g50
I490
sg68
I35
sg69
g257
sg94
g31
sg71
Nsg72
Nsg73
g54
sg74
g6
(S'\x07\xe1\x06\x03\n2#\r\xee\xe5'
p285
tp286
Rp287
sg78
g6
(S'\x07\xe1\x06\x03\x0b\x0c+\x01v\x06'
p288
tp289
Rp290
sg23
S'2-1'
p291
sba(iopmop.models.task
HaulageTask
p292
(dp293
g50
I399
sg68
I31
sg69
g257
sg94
g31
sg71
Nsg72
Nsg73
g54
sg74
g6
(S'\x07\xe1\x06\x03\n\x1c\t\x03|\xf0'
p294
tp295
Rp296
sg78
g6
(S'\x07\xe1\x06\x03\n2\x0b\x08,\xbc'
p297
tp298
Rp299
sg23
S'2-1'
p300
sba(iopmop.models.task
HaulageTask
p301
(dp302
g50
I442
sg68
I28
sg69
g257
sg94
g31
sg71
Nsg72
Nsg73
g54
sg74
g6
(S'\x07\xe1\x06\x03\x0c\x13\x1d\x0bJE'
p303
tp304
Rp305
sg78
g6
(S"\x07\xe1\x06\x03\x0c)'\n\xd9b"
p306
tp307
Rp308
sg23
S'2-1'
p309
sba(iopmop.models.task
HaulageTask
p310
(dp311
g50
I474
sg68
I22
sg69
g257
sg94
g31
sg71
Nsg72
Nsg73
g54
sg74
g6
(S'\x07\xe1\x06\x03\r\x05%\x06\x8a\xe0'
p312
tp313
Rp314
sg78
g6
(S'\x07\xe1\x06\x03\r\x1a\x05\x08[\xf8'
p315
tp316
Rp317
sg23
S'2-1'
p318
sba(iopmop.models.task
HaulageTask
p319
(dp320
g50
I257
sg68
I20
sg69
g257
sg94
g31
sg71
Nsg72
Nsg73
g54
sg74
g6
(S'\x07\xe1\x06\x03\x0b2\x11\x03{\xa8'
p321
tp322
Rp323
sg78
g6
(S'\x07\xe1\x06\x03\x0c\x0b"\x05\xd3e'
p324
tp325
Rp326
sg23
S'2-1'
p327
sba(iopmop.models.task
HaulageTask
p328
(dp329
g50
I356
sg68
I29
sg69
g257
sg94
g31
sg71
Nsg72
Nsg73
g54
sg74
g6
(S'\x07\xe1\x06\x03\x0e\x07\n\x05\x8d\xbe'
p330
tp331
Rp332
sg78
g6
(S'\x07\xe1\x06\x03\x0e\x1d\x06\x0c}g'
p333
tp334
Rp335
sg23
S'2-1'
p336
sbasg50
I2758
sg156
F0.0
sg157
g3
sg158
F-476.0
sg159
g6
(S'\x07\xe1\x06\x03\x00\x00\x00\x00\x00\x00'
p337
tp338
Rp339
sg163
I01
sg164
F-45.0
sg23
I2
sba(iopmop.models.schedule
Schedule
p340
(dp341
g64
(lp342
sg50
I2758
sg156
I2758
sg157
g3
sg158
I2758
sg159
g6
(S'\x07\xe1\x06\x04\x00\x00\x00\x00\x00\x00'
p343
tp344
Rp345
sg163
I00
sg164
I2758
sg23
I3
sba(iopmop.models.schedule
Schedule
p346
(dp347
g64
(lp348
sg50
I2758
sg156
I2758
sg157
g3
sg158
I2758
sg159
g6
(S'\x07\xe1\x06\x05\x00\x00\x00\x00\x00\x00'
p349
tp350
Rp351
sg163
I00
sg164
I2758
sg23
I4
sba(iopmop.models.schedule
Schedule
p352
(dp353
g64
(lp354
sg50
I2758
sg156
I2758
sg157
g3
sg158
I2758
sg159
g6
(S'\x07\xe1\x06\x06\x00\x00\x00\x00\x00\x00'
p355
tp356
Rp357
sg163
I00
sg164
I2758
sg23
I5
sba(iopmop.models.schedule
Schedule
p358
(dp359
g64
(lp360
sg50
I2758
sg156
I2758
sg157
g3
sg158
I2758
sg159
g6
(S'\x07\xe1\x06\x07\x00\x00\x00\x00\x00\x00'
p361
tp362
Rp363
sg163
I00
sg164
I2758
sg23
I6
sba(iopmop.models.schedule
Schedule
p364
(dp365
g64
(lp366
sg50
I2758
sg156
I2758
sg157
g3
sg158
I2758
sg159
g6
(S'\x07\xe1\x06\x08\x00\x00\x00\x00\x00\x00'
p367
tp368
Rp369
sg163
I00
sg164
I2758
sg23
I7
sba(iopmop.models.schedule
Schedule
p370
(dp371
g64
(lp372
sg50
I2758
sg156
I2758
sg157
g3
sg158
I2758
sg159
g6
(S'\x07\xe1\x06\t\x00\x00\x00\x00\x00\x00'
p373
tp374
Rp375
sg163
I00
sg164
I2758
sg23
I8
sba(iopmop.models.schedule
Schedule
p376
(dp377
g64
(lp378
(iopmop.models.task
DigTask
p379
(dp380
g50
F2758.0
sg68
I9
sg69
S'None'
p381
sg71
Nsg72
Nsg73
g54
sg74
g6
(S'\x07\xe1\x06\n\t\x00\x00\x00\x00\x00'
p382
tp383
Rp384
sg78
g6
(S'\x07\xe1\x06\n\x0e\x0b.\x01r\x15'
p385
tp386
Rp387
sg23
S'9-0'
p388
sba(iopmop.models.task
LoadTask
p389
(dp390
g50
F3417.0
sg68
I15
sg69
g381
sg71
Nsg72
Nsg73
g54
sg74
g6
(S'\x07\xe1\x06\n\t\x00\x00\x00\x00\x00'
p391
tp392
Rp393
sg78
g6
(S'\x07\xe1\x06\n\r\x06\x00\x00\x00\x00'
p394
tp395
Rp396
sg23
S'9-0'
p397
sba(iopmop.models.task
HaulageTask
p398
(dp399
g72
Nsg50
I442
sg68
I28
sg69
g381
sg71
Nsg94
g31
sg73
g54
sg74
g6
(S'\x07\xe1\x06\n\t,\x13\x0e`z'
p400
tp401
Rp402
sg78
g6
(S'\x07\xe1\x06\n\n\x06\x1d\r\xef\x97'
p403
tp404
Rp405
sg23
S'9-1'
p406
sba(iopmop.models.task
HaulageTask
p407
(dp408
g72
Nsg50
I452
sg68
I47
sg69
g381
sg71
Nsg94
g31
sg73
g54
sg74
g6
(S'\x07\xe1\x06\n\n\x151\r\x99\xd8'
p409
tp410
Rp411
sg78
g6
(S'\x07\xe1\x06\n\n*\x11\x05\x8e\x9e'
p412
tp413
Rp414
sg23
S'9-1'
p415
sba(iopmop.models.task
HaulageTask
p416
(dp417
g72
Nsg50
I319
sg68
I43
sg69
g381
sg71
Nsg94
g31
sg73
g54
sg74
g6
(S'\x07\xe1\x06\n\n11\x0c\x9bN'
p418
tp419
Rp420
sg78
g6
(S'\x07\xe1\x06\n\x0b\x0b/\x0c\x13\x84'
p421
tp422
Rp423
sg23
S'9-1'
p424
sba(iopmop.models.task
HaulageTask
p425
(dp426
g72
Nsg50
I382
sg68
I34
sg69
g381
sg71
Nsg94
g31
sg73
g54
sg74
g6
(S'\x07\xe1\x06\n\x0b\x0c\n\x08\xc3\x18'
p427
tp428
Rp429
sg78
g6
(S'\x07\xe1\x06\n\x0b"\x0c\x05"\xdc'
p430
tp431
Rp432
sg23
S'9-1'
p433
sba(iopmop.models.task
HaulageTask
p434
(dp435
g72
Nsg50
I316
sg68
I36
sg69
g381
sg71
Nsg94
g31
sg73
g54
sg74
g6
(S'\x07\xe1\x06\n\x0b"-\x02]\x1b'
p436
tp437
Rp438
sg78
g6
(S'\x07\xe1\x06\n\x0b83\t=\xa8'
p439
tp440
Rp441
sg23
S'9-1'
p442
sba(iopmop.models.task
HaulageTask
p443
(dp444
g72
Nsg50
I315
sg68
I30
sg69
g381
sg71
Nsg94
g31
sg73
g54
sg74
g6
(S'\x07\xe1\x06\n\x0c\x10,\x05\x9d\xc4'
p445
tp446
Rp447
sg78
g6
(S'\x07\xe1\x06\n\x0c&#\x0e\xb7\xa8'
p448
tp449
Rp450
sg23
S'9-1'
p451
sba(iopmop.models.task
HaulageTask
p452
(dp453
g72
Nsg50
I296
sg68
I23
sg69
g381
sg71
Nsg94
g31
sg73
g54
sg74
g6
(S'\x07\xe1\x06\n\x0c3\x08\x02\xaeO'
p454
tp455
Rp456
sg78
g6
(S'\x07\xe1\x06\n\r\x0c\x08\x0e\x05\x9c'
p457
tp458
Rp459
sg23
S'9-1'
p460
sba(iopmop.models.task
HaulageTask
p461
(dp462
g72
Nsg50
I351
sg68
I41
sg69
g381
sg71
Nsg94
g31
sg73
g54
sg74
g6
(S'\x07\xe1\x06\n\r\x0c)\r!\xa8'
p463
tp464
Rp465
sg78
g6
(S'\x07\xe1\x06\n\r!-\x05S&'
p466
tp467
Rp468
sg23
S'9-1'
p469
sbasg50
I2758
sg156
F0.0
sg157
g3
sg158
F-659.0
sg159
g6
(S'\x07\xe1\x06\n\x00\x00\x00\x00\x00\x00'
p470
tp471
Rp472
sg163
I01
sg164
F-115.0
sg23
I9
sba(iopmop.models.schedule
Schedule
p473
(dp474
g64
(lp475
sg50
I2758
sg156
I2758
sg157
g3
sg158
I2758
sg159
g6
(S'\x07\xe1\x06\x0b\x00\x00\x00\x00\x00\x00'
p476
tp477
Rp478
sg163
I00
sg164
I2758
sg23
I10
sba(iopmop.models.schedule
Schedule
p479
(dp480
g64
(lp481
sg50
I2758
sg156
I2758
sg157
g3
sg158
I2758
sg159
g6
(S'\x07\xe1\x06\x0c\x00\x00\x00\x00\x00\x00'
p482
tp483
Rp484
sg163
I00
sg164
I2758
sg23
I11
sba(iopmop.models.schedule
Schedule
p485
(dp486
g64
(lp487
sg50
I2758
sg156
I2758
sg157
g3
sg158
I2758
sg159
g6
(S'\x07\xe1\x06\r\x00\x00\x00\x00\x00\x00'
p488
tp489
Rp490
sg163
I00
sg164
I2758
sg23
I12
sba(iopmop.models.schedule
Schedule
p491
(dp492
g64
(lp493
sg50
I2758
sg156
I2758
sg157
g3
sg158
I2758
sg159
g6
(S'\x07\xe1\x06\x0e\x00\x00\x00\x00\x00\x00'
p494
tp495
Rp496
sg163
I00
sg164
I2758
sg23
I13
sba(iopmop.models.schedule
Schedule
p497
(dp498
g64
(lp499
sg50
I2758
sg156
I2758
sg157
g3
sg158
I2758
sg159
g6
(S'\x07\xe1\x06\x0f\x00\x00\x00\x00\x00\x00'
p500
tp501
Rp502
sg163
I00
sg164
I2758
sg23
I14
sba(iopmop.models.schedule
Schedule
p503
(dp504
g64
(lp505
sg50
I2758
sg156
I2758
sg157
g3
sg158
I2758
sg159
g6
(S'\x07\xe1\x06\x10\x00\x00\x00\x00\x00\x00'
p506
tp507
Rp508
sg163
I00
sg164
I2758
sg23
I15
sba(iopmop.models.schedule
Schedule
p509
(dp510
g64
(lp511
sg50
I2758
sg156
I2758
sg157
g3
sg158
I2758
sg159
g6
(S'\x07\xe1\x06\x11\x00\x00\x00\x00\x00\x00'
p512
tp513
Rp514
sg163
I00
sg164
I2758
sg23
I16
sba(iopmop.models.schedule
Schedule
p515
(dp516
g64
(lp517
(iopmop.models.task
DigTask
p518
(dp519
g50
F2758.0
sg68
I9
sg69
g381
sg71
Nsg72
Nsg73
g54
sg74
g6
(S'\x07\xe1\x06\x12\t\x00\x00\x00\x00\x00'
p520
tp521
Rp522
sg78
g6
(S'\x07\xe1\x06\x12\x0e\x0b.\x01r\x15'
p523
tp524
Rp525
sg23
S'17-0'
p526
sba(iopmop.models.task
LoadTask
p527
(dp528
g50
F3417.0
sg68
I15
sg69
g381
sg71
Nsg72
Nsg73
g54
sg74
g6
(S'\x07\xe1\x06\x12\t\x00\x00\x00\x00\x00'
p529
tp530
Rp531
sg78
g6
(S'\x07\xe1\x06\x12\r\x06\x00\x00\x00\x00'
p532
tp533
Rp534
sg23
S'17-0'
p535
sba(iopmop.models.task
HaulageTask
p536
(dp537
g72
Nsg50
I382
sg68
I34
sg69
g381
sg71
Nsg94
g31
sg73
g54
sg74
g6
(S'\x07\xe1\x06\x12\t,\x03\x08\x01\xc8'
p538
tp539
Rp540
sg78
g6
(S'\x07\xe1\x06\x12\n\x06\x05\x04a\x8c'
p541
tp542
Rp543
sg23
S'17-1'
p544
sba(iopmop.models.task
HaulageTask
p545
(dp546
g72
Nsg50
I385
sg68
I25
sg69
g381
sg71
Nsg94
g31
sg73
g54
sg74
g6
(S'\x07\xe1\x06\x12\n\x18\x1b\x0e\x87\xe0'
p547
tp548
Rp549
sg78
g6
(S'\x07\xe1\x06\x12\n-"\x0eYH'
p550
tp551
Rp552
sg23
S'17-1'
p553
sba(iopmop.models.task
HaulageTask
p554
(dp555
g72
Nsg50
I442
sg68
I28
sg69
g381
sg71
Nsg94
g31
sg73
g54
sg74
g6
(S'\x07\xe1\x06\x12\n21\r\r\xd1'
p556
tp557
Rp558
sg78
g6
(S'\x07\xe1\x06\x12\x0b\x0c;\x0c\x9c\xee'
p559
tp560
Rp561
sg23
S'17-1'
p562
sba(iopmop.models.task
HaulageTask
p563
(dp564
g72
Nsg50
I452
sg68
I47
sg69
g381
sg71
Nsg94
g31
sg73
g54
sg74
g6
(S'\x07\xe1\x06\x12\x0b\x17\x0c\x04\xbaj'
p565
tp566
Rp567
sg78
g6
(S"\x07\xe1\x06\x12\x0b+'\x0b\xf1p"
p568
tp569
Rp570
sg23
S'17-1'
p571
sba(iopmop.models.task
HaulageTask
p572
(dp573
g72
Nsg50
I319
sg68
I43
sg69
g381
sg71
Nsg94
g31
sg73
g54
sg74
g6
(S'\x07\xe1\x06\x12\x0b7+\x0b\x03\xf0'
p574
tp575
Rp576
sg78
g6
(S'\x07\xe1\x06\x12\x0c\x11)\n|&'
p577
tp578
Rp579
sg23
S'17-1'
p580
sba(iopmop.models.task
HaulageTask
p581
(dp582
g72
Nsg50
I382
sg68
I34
sg69
g381
sg71
Nsg94
g31
sg73
g54
sg74
g6
(S'\x07\xe1\x06\x12\x0c\x12\x0f\r$\xa4'
p583
tp584
Rp585
sg78
g6
(S'\x07\xe1\x06\x12\x0c(\x11\t\x84h'
p586
tp587
Rp588
sg23
S'17-1'
p589
sba(iopmop.models.task
HaulageTask
p590
(dp591
g72
Nsg50
I351
sg68
I41
sg69
g381
sg71
Nsg94
g31
sg73
g54
sg74
g6
(S'\x07\xe1\x06\x12\x0c3&\x05\xad\xea'
p592
tp593
Rp594
sg78
g6
(S'\x07\xe1\x06\x12\r\x0c)\r!\xa8'
p595
tp596
Rp597
sg23
S'17-1'
p598
sba(iopmop.models.task
HaulageTask
p599
(dp600
g72
Nsg50
I385
sg68
I25
sg69
g381
sg71
Nsg94
g31
sg73
g54
sg74
g6
(S'\x07\xe1\x06\x12\r\r\x17\r\x13 '
p601
tp602
Rp603
sg78
g6
(S'\x07\xe1\x06\x12\r"\x1e\x0c\xe4\x88'
p604
tp605
Rp606
sg23
S'17-1'
p607
sbasg50
I2758
sg156
F0.0
sg157
g3
sg158
F-659.0
sg159
g6
(S'\x07\xe1\x06\x12\x00\x00\x00\x00\x00\x00'
p608
tp609
Rp610
sg163
I01
sg164
F-340.0
sg23
I17
sba(iopmop.models.schedule
Schedule
p611
(dp612
g64
(lp613
sg50
I2758
sg156
I2758
sg157
g3
sg158
I2758
sg159
g6
(S'\x07\xe1\x06\x13\x00\x00\x00\x00\x00\x00'
p614
tp615
Rp616
sg163
I00
sg164
I2758
sg23
I18
sba(iopmop.models.schedule
Schedule
p617
(dp618
g64
(lp619
sg50
I2758
sg156
I2758
sg157
g3
sg158
I2758
sg159
g6
(S'\x07\xe1\x06\x14\x00\x00\x00\x00\x00\x00'
p620
tp621
Rp622
sg163
I00
sg164
I2758
sg23
I19
sba(iopmop.models.schedule
Schedule
p623
(dp624
g64
(lp625
sg50
I2758
sg156
I2758
sg157
g3
sg158
I2758
sg159
g6
(S'\x07\xe1\x06\x15\x00\x00\x00\x00\x00\x00'
p626
tp627
Rp628
sg163
I00
sg164
I2758
sg23
I20
sba(iopmop.models.schedule
Schedule
p629
(dp630
g64
(lp631
sg50
I2758
sg156
I2758
sg157
g3
sg158
I2758
sg159
g6
(S'\x07\xe1\x06\x16\x00\x00\x00\x00\x00\x00'
p632
tp633
Rp634
sg163
I00
sg164
I2758
sg23
I21
sba(iopmop.models.schedule
Schedule
p635
(dp636
g64
(lp637
sg50
I2758
sg156
I2758
sg157
g3
sg158
I2758
sg159
g6
(S'\x07\xe1\x06\x17\x00\x00\x00\x00\x00\x00'
p638
tp639
Rp640
sg163
I00
sg164
I2758
sg23
I22
sba(iopmop.models.schedule
Schedule
p641
(dp642
g64
(lp643
sg50
I2758
sg156
I2758
sg157
g3
sg158
I2758
sg159
g6
(S'\x07\xe1\x06\x18\x00\x00\x00\x00\x00\x00'
p644
tp645
Rp646
sg163
I00
sg164
I2758
sg23
I23
sba(iopmop.models.schedule
Schedule
p647
(dp648
g64
(lp649
sg50
I2758
sg156
I2758
sg157
g3
sg158
I2758
sg159
g6
(S'\x07\xe1\x06\x19\x00\x00\x00\x00\x00\x00'
p650
tp651
Rp652
sg163
I00
sg164
I2758
sg23
I24
sba(iopmop.models.schedule
Schedule
p653
(dp654
g64
(lp655
(iopmop.models.task
DigTask
p656
(dp657
g50
F2400.0
sg68
I6
sg69
g381
sg71
Nsg72
Nsg73
g54
sg74
g6
(S'\x07\xe1\x06\x1a\t\x00\x00\x00\x00\x00'
p658
tp659
Rp660
sg78
g6
(S'\x07\xe1\x06\x1a\x11\x00\x00\x00\x00\x00'
p661
tp662
Rp663
sg23
S'25-0'
p664
sba(iopmop.models.task
DigTask
p665
(dp666
g50
F358.0
sg68
I9
sg69
g381
sg71
Nsg72
Nsg73
g54
sg74
g6
(S'\x07\xe1\x06\x1a\x0c!\x02\x0c\\\xa6'
p667
tp668
Rp669
sg78
g6
(S"\x07\xe1\x06\x1a\r\x0f'\x05\xad\xd4"
p670
tp671
Rp672
sg23
S'25-0'
p673
sba(iopmop.models.task
LoadTask
p674
(dp675
g50
F3417.0
sg68
I15
sg69
g381
sg71
Nsg72
Nsg73
g54
sg74
g6
(S'\x07\xe1\x06\x1a\r\x06\x00\x00\x00\x00'
p676
tp677
Rp678
sg78
g6
(S'\x07\xe1\x06\x1a\x11\x0c\x00\x00\x00\x00'
p679
tp680
Rp681
sg23
S'25-0'
p682
sba(iopmop.models.task
HaulageTask
p683
(dp684
g72
Nsg50
I442
sg68
I28
sg69
g381
sg71
Nsg94
g31
sg73
g54
sg74
g6
(S'\x07\xe1\x06\x1a\r0\t\t\x86\xb9'
p685
tp686
Rp687
sg78
g6
(S'\x07\xe1\x06\x1a\x0e\n\x13\t\x15\xd6'
p688
tp689
Rp690
sg23
S'25-1'
p691
sba(iopmop.models.task
HaulageTask
p692
(dp693
g72
Nsg50
I319
sg68
I43
sg69
g381
sg71
Nsg94
g31
sg73
g54
sg74
g6
(S'\x07\xe1\x06\x1a\x0e\x1d\x1d\x07Mj'
p694
tp695
Rp696
sg78
g6
(S'\x07\xe1\x06\x1a\x0e3\x1b\x06\xc5\xa0'
p697
tp698
Rp699
sg23
S'25-1'
p700
sba(iopmop.models.task
HaulageTask
p701
(dp702
g72
Nsg50
I382
sg68
I34
sg69
g381
sg71
Nsg94
g31
sg73
g54
sg74
g6
(S'\x07\xe1\x06\x1a\x0e4\x1c\x03\x05@'
p703
tp704
Rp705
sg78
g6
(S'\x07\xe1\x06\x1a\x0f\x0e\x1d\x0e\xa7D'
p706
tp707
Rp708
sg23
S'25-1'
p709
sba(iopmop.models.task
HaulageTask
p710
(dp711
g72
Nsg50
I315
sg68
I30
sg69
g381
sg71
Nsg94
g31
sg73
g54
sg74
g6
(S'\x07\xe1\x06\x1a\x0f!\x1c\x0b;\x88'
p712
tp713
Rp714
sg78
g6
(S'\x07\xe1\x06\x1a\x0f7\x14\x05\x13,'
p715
tp716
Rp717
sg23
S'25-1'
p718
sba(iopmop.models.task
HaulageTask
p719
(dp720
g72
Nsg50
I490
sg68
I35
sg69
g381
sg71
Nsg94
g31
sg73
g54
sg74
g6
(S'\x07\xe1\x06\x1a\x10\x00\x10\x07+s'
p721
tp722
Rp723
sg78
g6
(S'\x07\xe1\x06\x1a\x10\x16\x17\t\xf4\xd4'
p724
tp725
Rp726
sg23
S'25-1'
p727
sba(iopmop.models.task
HaulageTask
p728
(dp729
g72
Nsg50
I399
sg68
I31
sg69
g381
sg71
Nsg94
g31
sg73
g54
sg74
g6
(S'\x07\xe1\x06\x1a\x10*0\x06\xde<'
p730
tp731
Rp732
sg78
g6
(S'\x07\xe1\x06\x1a\x11\x042\x0b\x8e\x08'
p733
tp734
Rp735
sg23
S'25-1'
p736
sba(iopmop.models.task
HaulageTask
p737
(dp738
g72
Nsg50
I442
sg68
I28
sg69
g381
sg71
Nsg94
g31
sg73
g54
sg74
g6
(S"\x07\xe1\x06\x1a\x11\x07'\x05\x8e\xbe"
p739
tp740
Rp741
sg78
g6
(S'\x07\xe1\x06\x1a\x11\x1d1\x05\x1d\xdb'
p742
tp743
Rp744
sg23
S'25-1'
p745
sbasg50
I2758
sg156
F0.0
sg157
g3
sg158
F-659.0
sg159
g6
(S'\x07\xe1\x06\x1a\x00\x00\x00\x00\x00\x00'
p746
tp747
Rp748
sg163
I01
sg164
F-31.0
sg23
I25
sba(iopmop.models.schedule
Schedule
p749
(dp750
g64
(lp751
sg50
I2758
sg156
I2758
sg157
g3
sg158
I2758
sg159
g6
(S'\x07\xe1\x06\x1b\x00\x00\x00\x00\x00\x00'
p752
tp753
Rp754
sg163
I00
sg164
I2758
sg23
I26
sba(iopmop.models.schedule
Schedule
p755
(dp756
g64
(lp757
sg50
I2758
sg156
I2758
sg157
g3
sg158
I2758
sg159
g6
(S'\x07\xe1\x06\x1c\x00\x00\x00\x00\x00\x00'
p758
tp759
Rp760
sg163
I00
sg164
I2758
sg23
I27
sba(iopmop.models.schedule
Schedule
p761
(dp762
g64
(lp763
sg50
I2758
sg156
I2758
sg157
g3
sg158
I2758
sg159
g6
(S'\x07\xe1\x06\x1d\x00\x00\x00\x00\x00\x00'
p764
tp765
Rp766
sg163
I00
sg164
I2758
sg23
I28
sbasg23
I1
sS'numDays'
p767
I29
sba(iopmop.models.mission
Mission
p768
(dp769
g5
g6
(S'\x07\xe1\x06\x01\x00\x00\x00\x00\x00\x00'
p770
tp771
Rp772
sg10
(lp773
g12
ag26
ag31
ag36
ag41
asg46
g6
(S'\x07\xe1\x06\x14\x00\x00\x00\x00\x00\x00'
p774
tp775
Rp776
sg50
I100000
sg51
S'Coal june'
p777
sg53
(iopmop.models.location
Location
p778
(dp779
g14
g33
sg21
g58
sg23
I2
sg24
S'Site2'
p780
sbsg60
(lp781
(iopmop.models.schedule
Schedule
p782
(dp783
g64
(lp784
(iopmop.models.task
DigTask
p785
(dp786
g50
F2320.0
sg68
I8
sg69
g70
sg71
Nsg72
Nsg73
g778
sg74
g6
(S'\x07\xe1\x06\x01\t\x00\x00\x00\x00\x00'
p787
tp788
Rp789
sg78
g6
(S'\x07\xe1\x06\x01\x11\x039\x08(\xe3'
p790
tp791
Rp792
sg23
S'0-0'
p793
sba(iopmop.models.task
DigTask
p794
(dp795
g50
F2943.0
sg68
I1
sg69
g70
sg71
Nsg72
Nsg73
g778
sg74
g6
(S'\x07\xe1\x06\x01\t\x00\x00\x00\x00\x00'
p796
tp797
Rp798
sg78
g6
(S'\x07\xe1\x06\x01\x10.,\n\xc9y'
p799
tp800
Rp801
sg23
S'0-0'
p802
sba(iopmop.models.task
LoadTask
p803
(dp804
g50
F4410.0
sg68
I13
sg69
g70
sg71
Nsg72
Nsg73
g778
sg74
g6
(S'\x07\xe1\x06\x01\t\x00\x00\x00\x00\x00'
p805
tp806
Rp807
sg78
g6
(S'\x07\xe1\x06\x01\x11\x00\x00\x00\x00\x00'
p808
tp809
Rp810
sg23
S'0-0'
p811
sba(iopmop.models.task
LoadTask
p812
(dp813
g50
F1523.0
sg68
I15
sg69
g70
sg71
Nsg72
Nsg73
g778
sg74
g6
(S'\x07\xe1\x06\x01\x0e\x05!\x02\x0c\xb8'
p814
tp815
Rp816
sg78
g6
(S'\x07\xe1\x06\x01\x0f\x158\x06`v'
p817
tp818
Rp819
sg23
S'0-0'
p820
sba(iopmop.models.task
HaulageTask
p821
(dp822
g72
Nsg50
I303
sg68
I42
sg69
g70
sg71
Nsg94
g31
sg73
g778
sg74
g6
(S'\x07\xe1\x06\x01\t$\x00\x00\x00\x00'
p823
tp824
Rp825
sg78
g6
(S'\x07\xe1\x06\x01\t0\x00\x00\x00\x00'
p826
tp827
Rp828
sg23
S'0-1'
p829
sba(iopmop.models.task
HaulageTask
p830
(dp831
g72
Nsg50
I342
sg68
I38
sg69
g70
sg71
Nsg94
g31
sg73
g778
sg74
g6
(S'\x07\xe1\x06\x01\n\x0c\x00\x00\x00\x00'
p832
tp833
Rp834
sg78
g6
(S'\x07\xe1\x06\x01\n\x18\x00\x00\x00\x00'
p835
tp836
Rp837
sg23
S'0-1'
p838
sba(iopmop.models.task
HaulageTask
p839
(dp840
g72
Nsg50
I353
sg68
I32
sg69
g70
sg71
Nsg94
g31
sg73
g778
sg74
g6
(S'\x07\xe1\x06\x01\x0b\x00\x00\x00\x00\x00'
p841
tp842
Rp843
sg78
g6
(S'\x07\xe1\x06\x01\x0b\x0c\x00\x00\x00\x00'
p844
tp845
Rp846
sg23
S'0-1'
p847
sba(iopmop.models.task
HaulageTask
p848
(dp849
g72
Nsg50
I399
sg68
I31
sg69
g70
sg71
Nsg94
g31
sg73
g778
sg74
g6
(S'\x07\xe1\x06\x01\x0b$\x00\x00\x00\x00'
p850
tp851
Rp852
sg78
g6
(S'\x07\xe1\x06\x01\x0b0\x00\x00\x00\x00'
p853
tp854
Rp855
sg23
S'0-1'
p856
sba(iopmop.models.task
HaulageTask
p857
(dp858
g72
Nsg50
I384
sg68
I24
sg69
g70
sg71
Nsg94
g31
sg73
g778
sg74
g6
(S'\x07\xe1\x06\x01\x0c\x18\x00\x00\x00\x00'
p859
tp860
Rp861
sg78
g6
(S'\x07\xe1\x06\x01\x0c$\x00\x00\x00\x00'
p862
tp863
Rp864
sg23
S'0-1'
p865
sba(iopmop.models.task
HaulageTask
p866
(dp867
g72
Nsg50
I315
sg68
I30
sg69
g70
sg71
Nsg94
g31
sg73
g778
sg74
g6
(S'\x07\xe1\x06\x01\r\x00\x00\x00\x00\x00'
p868
tp869
Rp870
sg78
g6
(S'\x07\xe1\x06\x01\r\x0c\x00\x00\x00\x00'
p871
tp872
Rp873
sg23
S'0-1'
p874
sba(iopmop.models.task
HaulageTask
p875
(dp876
g72
Nsg50
I490
sg68
I35
sg69
g70
sg71
Nsg94
g31
sg73
g778
sg74
g6
(S'\x07\xe1\x06\x01\r0\x00\x00\x00\x00'
p877
tp878
Rp879
sg78
g6
(S'\x07\xe1\x06\x01\x0e\x00\x00\x00\x00\x00'
p880
tp881
Rp882
sg23
S'0-1'
p883
sba(iopmop.models.task
HaulageTask
p884
(dp885
g72
Nsg50
I351
sg68
I41
sg69
g70
sg71
Nsg94
g31
sg73
g778
sg74
g6
(S'\x07\xe1\x06\x01\x0e\x0c\x00\x00\x00\x00'
p886
tp887
Rp888
sg78
g6
(S'\x07\xe1\x06\x01\x0e\x18\x00\x00\x00\x00'
p889
tp890
Rp891
sg23
S'0-1'
p892
sba(iopmop.models.task
HaulageTask
p893
(dp894
g72
Nsg50
I385
sg68
I25
sg69
g70
sg71
Nsg94
g31
sg73
g778
sg74
g6
(S'\x07\xe1\x06\x01\x0e$\x00\x00\x00\x00'
p895
tp896
Rp897
sg78
g6
(S'\x07\xe1\x06\x01\x0e0\x00\x00\x00\x00'
p898
tp899
Rp900
sg23
S'0-1'
p901
sba(iopmop.models.task
HaulageTask
p902
(dp903
g72
Nsg50
I319
sg68
I43
sg69
g70
sg71
Nsg94
g31
sg73
g778
sg74
g6
(S'\x07\xe1\x06\x01\r\x18\x00\x00\x00\x00'
p904
tp905
Rp906
sg78
g6
(S'\x07\xe1\x06\x01\r$\x00\x00\x00\x00'
p907
tp908
Rp909
sg23
S'0-1'
p910
sba(iopmop.models.task
HaulageTask
p911
(dp912
g72
Nsg50
I303
sg68
I42
sg69
g70
sg71
Nsg94
g31
sg73
g778
sg74
g6
(S'\x07\xe1\x06\x01\x0f\x00\x00\x00\x00\x00'
p913
tp914
Rp915
sg78
g6
(S'\x07\xe1\x06\x01\x0f\x0c\x00\x00\x00\x00'
p916
tp917
Rp918
sg23
S'0-1'
p919
sba(iopmop.models.task
HaulageTask
p920
(dp921
g72
Nsg50
I316
sg68
I36
sg69
g70
sg71
Nsg94
g31
sg73
g778
sg74
g6
(S'\x07\xe1\x06\x01\x0f\x18\x00\x00\x00\x00'
p922
tp923
Rp924
sg78
g6
(S'\x07\xe1\x06\x01\x0f$\x00\x00\x00\x00'
p925
tp926
Rp927
sg23
S'0-1'
p928
sba(iopmop.models.task
HaulageTask
p929
(dp930
g72
Nsg50
I342
sg68
I38
sg69
g70
sg71
Nsg94
g31
sg73
g778
sg74
g6
(S'\x07\xe1\x06\x01\x0f0\x00\x00\x00\x00'
p931
tp932
Rp933
sg78
g6
(S'\x07\xe1\x06\x01\x10\x00\x00\x00\x00\x00'
p934
tp935
Rp936
sg23
S'0-1'
p937
sba(iopmop.models.task
HaulageTask
p938
(dp939
g72
Nsg50
I353
sg68
I32
sg69
g70
sg71
Nsg94
g31
sg73
g778
sg74
g6
(S'\x07\xe1\x06\x01\x10\x0c\x00\x00\x00\x00'
p940
tp941
Rp942
sg78
g6
(S'\x07\xe1\x06\x01\x10\x18\x00\x00\x00\x00'
p943
tp944
Rp945
sg23
S'0-1'
p946
sba(iopmop.models.task
HaulageTask
p947
(dp948
g72
Nsg50
I452
sg68
I47
sg69
g70
sg71
Nsg94
g31
sg73
g778
sg74
g6
(S'\x07\xe1\x06\x01\x10$\x00\x00\x00\x00'
p949
tp950
Rp951
sg78
g6
(S'\x07\xe1\x06\x01\x100\x00\x00\x00\x00'
p952
tp953
Rp954
sg23
S'0-1'
p955
sbasg50
I5263
sg156
F0.0
sg157
g768
sg158
F-670.0
sg159
g6
(S'\x07\xe1\x06\x01\x00\x00\x00\x00\x00\x00'
p956
tp957
Rp958
sg163
I01
sg164
F-144.0
sg23
I0
sba(iopmop.models.schedule
Schedule
p959
(dp960
g64
(lp961
(iopmop.models.task
DigTask
p962
(dp963
g50
F2320.0
sg68
I8
sg69
g381
sg71
Nsg72
Nsg73
g778
sg74
g6
(S'\x07\xe1\x06\x02\t\x00\x00\x00\x00\x00'
p964
tp965
Rp966
sg78
g6
(S'\x07\xe1\x06\x02\x11\x039\x08(\xe3'
p967
tp968
Rp969
sg23
S'1-0'
p970
sba(iopmop.models.task
DigTask
p971
(dp972
g50
F2943.0
sg68
I1
sg69
g381
sg71
Nsg72
Nsg73
g778
sg74
g6
(S'\x07\xe1\x06\x02\t\x00\x00\x00\x00\x00'
p973
tp974
Rp975
sg78
g6
(S'\x07\xe1\x06\x02\x10.,\n\xc9y'
p976
tp977
Rp978
sg23
S'1-0'
p979
sba(iopmop.models.task
LoadTask
p980
(dp981
g50
F4410.0
sg68
I13
sg69
g381
sg71
Nsg72
Nsg73
g778
sg74
g6
(S'\x07\xe1\x06\x02\t\x00\x00\x00\x00\x00'
p982
tp983
Rp984
sg78
g6
(S'\x07\xe1\x06\x02\x11\x00\x00\x00\x00\x00'
p985
tp986
Rp987
sg23
S'1-0'
p988
sba(iopmop.models.task
LoadTask
p989
(dp990
g50
F1523.0
sg68
I15
sg69
g381
sg71
Nsg72
Nsg73
g778
sg74
g6
(S'\x07\xe1\x06\x02\x0f\x158\x06`v'
p991
tp992
Rp993
sg78
g6
(S'\x07\xe1\x06\x02\x10&\x13\n\xb44'
p994
tp995
Rp996
sg23
S'1-0'
p997
sba(iopmop.models.task
HaulageTask
p998
(dp999
g72
Nsg50
I252
sg68
I37
sg69
g381
sg71
Nsg94
g31
sg73
g778
sg74
g6
(S'\x07\xe1\x06\x02\t$\x00\x00\x00\x00'
p1000
tp1001
Rp1002
sg78
g6
(S'\x07\xe1\x06\x02\t0\x00\x00\x00\x00'
p1003
tp1004
Rp1005
sg23
S'1-1'
p1006
sba(iopmop.models.task
HaulageTask
p1007
(dp1008
g72
Nsg50
I257
sg68
I20
sg69
g381
sg71
Nsg94
g31
sg73
g778
sg74
g6
(S'\x07\xe1\x06\x02\n\x00\x00\x00\x00\x00'
p1009
tp1010
Rp1011
sg78
g6
(S'\x07\xe1\x06\x02\n\x0c\x00\x00\x00\x00'
p1012
tp1013
Rp1014
sg23
S'1-1'
p1015
sba(iopmop.models.task
HaulageTask
p1016
(dp1017
g72
Nsg50
I319
sg68
I43
sg69
g381
sg71
Nsg94
g31
sg73
g778
sg74
g6
(S'\x07\xe1\x06\x02\n$\x00\x00\x00\x00'
p1018
tp1019
Rp1020
sg78
g6
(S'\x07\xe1\x06\x02\n0\x00\x00\x00\x00'
p1021
tp1022
Rp1023
sg23
S'1-1'
p1024
sba(iopmop.models.task
HaulageTask
p1025
(dp1026
g72
Nsg50
I303
sg68
I42
sg69
g381
sg71
Nsg94
g31
sg73
g778
sg74
g6
(S'\x07\xe1\x06\x02\x0b\x0c\x00\x00\x00\x00'
p1027
tp1028
Rp1029
sg78
g6
(S'\x07\xe1\x06\x02\x0b\x18\x00\x00\x00\x00'
p1030
tp1031
Rp1032
sg23
S'1-1'
p1033
sba(iopmop.models.task
HaulageTask
p1034
(dp1035
g72
Nsg50
I316
sg68
I36
sg69
g381
sg71
Nsg94
g31
sg73
g778
sg74
g6
(S'\x07\xe1\x06\x02\x0b0\x00\x00\x00\x00'
p1036
tp1037
Rp1038
sg78
g6
(S'\x07\xe1\x06\x02\x0c\x00\x00\x00\x00\x00'
p1039
tp1040
Rp1041
sg23
S'1-1'
p1042
sba(iopmop.models.task
HaulageTask
p1043
(dp1044
g72
Nsg50
I342
sg68
I38
sg69
g381
sg71
Nsg94
g31
sg73
g778
sg74
g6
(S'\x07\xe1\x06\x02\x0c\x18\x00\x00\x00\x00'
p1045
tp1046
Rp1047
sg78
g6
(S'\x07\xe1\x06\x02\x0c$\x00\x00\x00\x00'
p1048
tp1049
Rp1050
sg23
S'1-1'
p1051
sba(iopmop.models.task
HaulageTask
p1052
(dp1053
g72
Nsg50
I353
sg68
I32
sg69
g381
sg71
Nsg94
g31
sg73
g778
sg74
g6
(S'\x07\xe1\x06\x02\r\x00\x00\x00\x00\x00'
p1054
tp1055
Rp1056
sg78
g6
(S'\x07\xe1\x06\x02\r\x0c\x00\x00\x00\x00'
p1057
tp1058
Rp1059
sg23
S'1-1'
p1060
sba(iopmop.models.task
HaulageTask
p1061
(dp1062
g72
Nsg50
I452
sg68
I47
sg69
g381
sg71
Nsg94
g31
sg73
g778
sg74
g6
(S'\x07\xe1\x06\x02\r0\x00\x00\x00\x00'
p1063
tp1064
Rp1065
sg78
g6
(S'\x07\xe1\x06\x02\x0e\x00\x00\x00\x00\x00'
p1066
tp1067
Rp1068
sg23
S'1-1'
p1069
sba(iopmop.models.task
HaulageTask
p1070
(dp1071
g72
Nsg50
I399
sg68
I31
sg69
g381
sg71
Nsg94
g31
sg73
g778
sg74
g6
(S'\x07\xe1\x06\x02\x0e$\x00\x00\x00\x00'
p1072
tp1073
Rp1074
sg78
g6
(S'\x07\xe1\x06\x02\x0e0\x00\x00\x00\x00'
p1075
tp1076
Rp1077
sg23
S'1-1'
p1078
sba(iopmop.models.task
HaulageTask
p1079
(dp1080
g72
Nsg50
I384
sg68
I24
sg69
g381
sg71
Nsg94
g31
sg73
g778
sg74
g6
(S'\x07\xe1\x06\x02\x0f\x0c\x00\x00\x00\x00'
p1081
tp1082
Rp1083
sg78
g6
(S'\x07\xe1\x06\x02\x0f\x18\x00\x00\x00\x00'
p1084
tp1085
Rp1086
sg23
S'1-1'
p1087
sba(iopmop.models.task
HaulageTask
p1088
(dp1089
g72
Nsg50
I356
sg68
I29
sg69
g381
sg71
Nsg94
g31
sg73
g778
sg74
g6
(S'\x07\xe1\x06\x02\x0f$\x00\x00\x00\x00'
p1090
tp1091
Rp1092
sg78
g6
(S'\x07\xe1\x06\x02\x0f0\x00\x00\x00\x00'
p1093
tp1094
Rp1095
sg23
S'1-1'
p1096
sba(iopmop.models.task
HaulageTask
p1097
(dp1098
g72
Nsg50
I334
sg68
I44
sg69
g381
sg71
Nsg94
g31
sg73
g778
sg74
g6
(S'\x07\xe1\x06\x02\x10\x00\x00\x00\x00\x00'
p1099
tp1100
Rp1101
sg78
g6
(S'\x07\xe1\x06\x02\x10\x0c\x00\x00\x00\x00'
p1102
tp1103
Rp1104
sg23
S'1-1'
p1105
sba(iopmop.models.task
HaulageTask
p1106
(dp1107
g72
Nsg50
I292
sg68
I49
sg69
g381
sg71
Nsg94
g31
sg73
g778
sg74
g6
(S'\x07\xe1\x06\x02\x10\x18\x00\x00\x00\x00'
p1108
tp1109
Rp1110
sg78
g6
(S'\x07\xe1\x06\x02\x10$\x00\x00\x00\x00'
p1111
tp1112
Rp1113
sg23
S'1-1'
p1114
sba(iopmop.models.task
HaulageTask
p1115
(dp1116
g72
Nsg50
I315
sg68
I30
sg69
g381
sg71
Nsg94
g31
sg73
g778
sg74
g6
(S'\x07\xe1\x06\x02\x100\x00\x00\x00\x00'
p1117
tp1118
Rp1119
sg78
g6
(S'\x07\xe1\x06\x02\x11\x00\x00\x00\x00\x00'
p1120
tp1121
Rp1122
sg23
S'1-1'
p1123
sba(iopmop.models.task
HaulageTask
p1124
(dp1125
g72
Nsg50
I490
sg68
I35
sg69
g381
sg71
Nsg94
g31
sg73
g778
sg74
g6
(S'\x07\xe1\x06\x02\x11\x0c\x00\x00\x00\x00'
p1126
tp1127
Rp1128
sg78
g6
(S'\x07\xe1\x06\x02\x11\x18\x00\x00\x00\x00'
p1129
tp1130
Rp1131
sg23
S'1-1'
p1132
sba(iopmop.models.task
HaulageTask
p1133
(dp1134
g72
Nsg50
I351
sg68
I41
sg69
g381
sg71
Nsg94
g31
sg73
g778
sg74
g6
(S'\x07\xe1\x06\x02\x11$\x00\x00\x00\x00'
p1135
tp1136
Rp1137
sg78
g6
(S'\x07\xe1\x06\x02\x110\x00\x00\x00\x00'
p1138
tp1139
Rp1140
sg23
S'1-1'
p1141
sbasg50
I5263
sg156
F0.0
sg157
g768
sg158
F-670.0
sg159
g6
(S'\x07\xe1\x06\x02\x00\x00\x00\x00\x00\x00'
p1142
tp1143
Rp1144
sg163
I01
sg164
F-252.0
sg23
I1
sba(iopmop.models.schedule
Schedule
p1145
(dp1146
g64
(lp1147
sg50
I5263
sg156
I5263
sg157
g768
sg158
I5263
sg159
g6
(S'\x07\xe1\x06\x03\x00\x00\x00\x00\x00\x00'
p1148
tp1149
Rp1150
sg163
I00
sg164
I5263
sg23
I2
sba(iopmop.models.schedule
Schedule
p1151
(dp1152
g64
(lp1153
sg50
I5263
sg156
I5263
sg157
g768
sg158
I5263
sg159
g6
(S'\x07\xe1\x06\x04\x00\x00\x00\x00\x00\x00'
p1154
tp1155
Rp1156
sg163
I00
sg164
I5263
sg23
I3
sba(iopmop.models.schedule
Schedule
p1157
(dp1158
g64
(lp1159
sg50
I5263
sg156
I5263
sg157
g768
sg158
I5263
sg159
g6
(S'\x07\xe1\x06\x05\x00\x00\x00\x00\x00\x00'
p1160
tp1161
Rp1162
sg163
I00
sg164
I5263
sg23
I4
sba(iopmop.models.schedule
Schedule
p1163
(dp1164
g64
(lp1165
sg50
I5263
sg156
I5263
sg157
g768
sg158
I5263
sg159
g6
(S'\x07\xe1\x06\x06\x00\x00\x00\x00\x00\x00'
p1166
tp1167
Rp1168
sg163
I00
sg164
I5263
sg23
I5
sba(iopmop.models.schedule
Schedule
p1169
(dp1170
g64
(lp1171
sg50
I5263
sg156
I5263
sg157
g768
sg158
I5263
sg159
g6
(S'\x07\xe1\x06\x07\x00\x00\x00\x00\x00\x00'
p1172
tp1173
Rp1174
sg163
I00
sg164
I5263
sg23
I6
sba(iopmop.models.schedule
Schedule
p1175
(dp1176
g64
(lp1177
sg50
I5263
sg156
I5263
sg157
g768
sg158
I5263
sg159
g6
(S'\x07\xe1\x06\x08\x00\x00\x00\x00\x00\x00'
p1178
tp1179
Rp1180
sg163
I00
sg164
I5263
sg23
I7
sba(iopmop.models.schedule
Schedule
p1181
(dp1182
g64
(lp1183
(iopmop.models.task
DigTask
p1184
(dp1185
g50
F4280.0
sg68
I9
sg69
g381
sg71
Nsg72
Nsg73
g778
sg74
g6
(S'\x07\xe1\x06\t\t\x00\x00\x00\x00\x00'
p1186
tp1187
Rp1188
sg78
g6
(S'\x07\xe1\x06\t\x11\x00\x05\x0c\x8f\x93'
p1189
tp1190
Rp1191
sg23
S'8-0'
p1192
sba(iopmop.models.task
DigTask
p1193
(dp1194
g50
F983.0000000000002
sg68
I7
sg69
g381
sg71
Nsg72
Nsg73
g778
sg74
g6
(S'\x07\xe1\x06\t\t\x00\x00\x00\x00\x00'
p1195
tp1196
Rp1197
sg78
g6
(S'\x07\xe1\x06\t\x0b,\x02\x02\xc3\x1a'
p1198
tp1199
Rp1200
sg23
S'8-0'
p1201
sba(iopmop.models.task
LoadTask
p1202
(dp1203
g50
F5896.0
sg68
I15
sg69
g381
sg71
Nsg72
Nsg73
g778
sg74
g6
(S'\x07\xe1\x06\t\t\x00\x00\x00\x00\x00'
p1204
tp1205
Rp1206
sg78
g6
(S'\x07\xe1\x06\t\x100\x00\x00\x00\x00'
p1207
tp1208
Rp1209
sg23
S'8-0'
p1210
sba(iopmop.models.task
HaulageTask
p1211
(dp1212
g72
Nsg50
I292
sg68
I49
sg69
g381
sg71
Nsg94
g31
sg73
g778
sg74
g6
(S'\x07\xe1\x06\t\t\x18\x00\x00\x00\x00'
p1213
tp1214
Rp1215
sg78
g6
(S'\x07\xe1\x06\t\t$\x00\x00\x00\x00'
p1216
tp1217
Rp1218
sg23
S'8-1'
p1219
sba(iopmop.models.task
HaulageTask
p1220
(dp1221
g72
Nsg50
I296
sg68
I23
sg69
g381
sg71
Nsg94
g31
sg73
g778
sg74
g6
(S'\x07\xe1\x06\t\t0\x00\x00\x00\x00'
p1222
tp1223
Rp1224
sg78
g6
(S'\x07\xe1\x06\t\n\x00\x00\x00\x00\x00'
p1225
tp1226
Rp1227
sg23
S'8-1'
p1228
sba(iopmop.models.task
HaulageTask
p1229
(dp1230
g72
Nsg50
I252
sg68
I37
sg69
g381
sg71
Nsg94
g31
sg73
g778
sg74
g6
(S'\x07\xe1\x06\t\n\x0c\x00\x00\x00\x00'
p1231
tp1232
Rp1233
sg78
g6
(S'\x07\xe1\x06\t\n\x18\x00\x00\x00\x00'
p1234
tp1235
Rp1236
sg23
S'8-1'
p1237
sba(iopmop.models.task
HaulageTask
p1238
(dp1239
g72
Nsg50
I257
sg68
I20
sg69
g381
sg71
Nsg94
g31
sg73
g778
sg74
g6
(S'\x07\xe1\x06\t\n$\x00\x00\x00\x00'
p1240
tp1241
Rp1242
sg78
g6
(S'\x07\xe1\x06\t\n0\x00\x00\x00\x00'
p1243
tp1244
Rp1245
sg23
S'8-1'
p1246
sba(iopmop.models.task
HaulageTask
p1247
(dp1248
g72
Nsg50
I303
sg68
I42
sg69
g381
sg71
Nsg94
g31
sg73
g778
sg74
g6
(S'\x07\xe1\x06\t\x0b\x00\x00\x00\x00\x00'
p1249
tp1250
Rp1251
sg78
g6
(S'\x07\xe1\x06\t\x0b\x0c\x00\x00\x00\x00'
p1252
tp1253
Rp1254
sg23
S'8-1'
p1255
sba(iopmop.models.task
HaulageTask
p1256
(dp1257
g72
Nsg50
I316
sg68
I36
sg69
g381
sg71
Nsg94
g31
sg73
g778
sg74
g6
(S'\x07\xe1\x06\t\x0b\x18\x00\x00\x00\x00'
p1258
tp1259
Rp1260
sg78
g6
(S'\x07\xe1\x06\t\x0b$\x00\x00\x00\x00'
p1261
tp1262
Rp1263
sg23
S'8-1'
p1264
sba(iopmop.models.task
HaulageTask
p1265
(dp1266
g72
Nsg50
I342
sg68
I38
sg69
g381
sg71
Nsg94
g31
sg73
g778
sg74
g6
(S'\x07\xe1\x06\t\x0b0\x00\x00\x00\x00'
p1267
tp1268
Rp1269
sg78
g6
(S'\x07\xe1\x06\t\x0c\x00\x00\x00\x00\x00'
p1270
tp1271
Rp1272
sg23
S'8-1'
p1273
sba(iopmop.models.task
HaulageTask
p1274
(dp1275
g72
Nsg50
I353
sg68
I32
sg69
g381
sg71
Nsg94
g31
sg73
g778
sg74
g6
(S'\x07\xe1\x06\t\x0c\x0c\x00\x00\x00\x00'
p1276
tp1277
Rp1278
sg78
g6
(S'\x07\xe1\x06\t\x0c\x18\x00\x00\x00\x00'
p1279
tp1280
Rp1281
sg23
S'8-1'
p1282
sba(iopmop.models.task
HaulageTask
p1283
(dp1284
g72
Nsg50
I399
sg68
I31
sg69
g381
sg71
Nsg94
g31
sg73
g778
sg74
g6
(S'\x07\xe1\x06\t\x0c0\x00\x00\x00\x00'
p1285
tp1286
Rp1287
sg78
g6
(S'\x07\xe1\x06\t\r\x00\x00\x00\x00\x00'
p1288
tp1289
Rp1290
sg23
S'8-1'
p1291
sba(iopmop.models.task
HaulageTask
p1292
(dp1293
g72
Nsg50
I384
sg68
I24
sg69
g381
sg71
Nsg94
g31
sg73
g778
sg74
g6
(S'\x07\xe1\x06\t\r\x18\x00\x00\x00\x00'
p1294
tp1295
Rp1296
sg78
g6
(S'\x07\xe1\x06\t\r$\x00\x00\x00\x00'
p1297
tp1298
Rp1299
sg23
S'8-1'
p1300
sba(iopmop.models.task
HaulageTask
p1301
(dp1302
g72
Nsg50
I356
sg68
I29
sg69
g381
sg71
Nsg94
g31
sg73
g778
sg74
g6
(S'\x07\xe1\x06\t\r0\x00\x00\x00\x00'
p1303
tp1304
Rp1305
sg78
g6
(S'\x07\xe1\x06\t\x0e\x00\x00\x00\x00\x00'
p1306
tp1307
Rp1308
sg23
S'8-1'
p1309
sba(iopmop.models.task
HaulageTask
p1310
(dp1311
g72
Nsg50
I334
sg68
I44
sg69
g381
sg71
Nsg94
g31
sg73
g778
sg74
g6
(S'\x07\xe1\x06\t\x0e\x0c\x00\x00\x00\x00'
p1312
tp1313
Rp1314
sg78
g6
(S'\x07\xe1\x06\t\x0e\x18\x00\x00\x00\x00'
p1315
tp1316
Rp1317
sg23
S'8-1'
p1318
sba(iopmop.models.task
HaulageTask
p1319
(dp1320
g72
Nsg50
I292
sg68
I49
sg69
g381
sg71
Nsg94
g31
sg73
g778
sg74
g6
(S'\x07\xe1\x06\t\x0e$\x00\x00\x00\x00'
p1321
tp1322
Rp1323
sg78
g6
(S'\x07\xe1\x06\t\x0e0\x00\x00\x00\x00'
p1324
tp1325
Rp1326
sg23
S'8-1'
p1327
sba(iopmop.models.task
HaulageTask
p1328
(dp1329
g72
Nsg50
I315
sg68
I30
sg69
g381
sg71
Nsg94
g31
sg73
g778
sg74
g6
(S'\x07\xe1\x06\t\x0f\x00\x00\x00\x00\x00'
p1330
tp1331
Rp1332
sg78
g6
(S'\x07\xe1\x06\t\x0f\x0c\x00\x00\x00\x00'
p1333
tp1334
Rp1335
sg23
S'8-1'
p1336
sba(iopmop.models.task
HaulageTask
p1337
(dp1338
g72
Nsg50
I490
sg68
I35
sg69
g381
sg71
Nsg94
g31
sg73
g778
sg74
g6
(S'\x07\xe1\x06\t\x0f$\x00\x00\x00\x00'
p1339
tp1340
Rp1341
sg78
g6
(S'\x07\xe1\x06\t\x0f0\x00\x00\x00\x00'
p1342
tp1343
Rp1344
sg23
S'8-1'
p1345
sba(iopmop.models.task
HaulageTask
p1346
(dp1347
g72
Nsg50
I296
sg68
I23
sg69
g381
sg71
Nsg94
g31
sg73
g778
sg74
g6
(S'\x07\xe1\x06\t\x10\x00\x00\x00\x00\x00'
p1348
tp1349
Rp1350
sg78
g6
(S'\x07\xe1\x06\t\x10\x0c\x00\x00\x00\x00'
p1351
tp1352
Rp1353
sg23
S'8-1'
p1354
sbasg50
I5263
sg156
F-2.2737367544323206e-13
sg157
g768
sg158
F-633.0
sg159
g6
(S'\x07\xe1\x06\t\x00\x00\x00\x00\x00\x00'
p1355
tp1356
Rp1357
sg163
I01
sg164
F-13.999999999999773
sg23
I8
sba(iopmop.models.schedule
Schedule
p1358
(dp1359
g64
(lp1360
sg50
I5263
sg156
I5263
sg157
g768
sg158
I5263
sg159
g6
(S'\x07\xe1\x06\n\x00\x00\x00\x00\x00\x00'
p1361
tp1362
Rp1363
sg163
I00
sg164
I5263
sg23
I9
sba(iopmop.models.schedule
Schedule
p1364
(dp1365
g64
(lp1366
sg50
I5263
sg156
I5263
sg157
g768
sg158
I5263
sg159
g6
(S'\x07\xe1\x06\x0b\x00\x00\x00\x00\x00\x00'
p1367
tp1368
Rp1369
sg163
I00
sg164
I5263
sg23
I10
sba(iopmop.models.schedule
Schedule
p1370
(dp1371
g64
(lp1372
sg50
I5263
sg156
I5263
sg157
g768
sg158
I5263
sg159
g6
(S'\x07\xe1\x06\x0c\x00\x00\x00\x00\x00\x00'
p1373
tp1374
Rp1375
sg163
I00
sg164
I5263
sg23
I11
sba(iopmop.models.schedule
Schedule
p1376
(dp1377
g64
(lp1378
sg50
I5263
sg156
I5263
sg157
g768
sg158
I5263
sg159
g6
(S'\x07\xe1\x06\r\x00\x00\x00\x00\x00\x00'
p1379
tp1380
Rp1381
sg163
I00
sg164
I5263
sg23
I12
sba(iopmop.models.schedule
Schedule
p1382
(dp1383
g64
(lp1384
sg50
I5263
sg156
I5263
sg157
g768
sg158
I5263
sg159
g6
(S'\x07\xe1\x06\x0e\x00\x00\x00\x00\x00\x00'
p1385
tp1386
Rp1387
sg163
I00
sg164
I5263
sg23
I13
sba(iopmop.models.schedule
Schedule
p1388
(dp1389
g64
(lp1390
sg50
I5263
sg156
I5263
sg157
g768
sg158
I5263
sg159
g6
(S'\x07\xe1\x06\x0f\x00\x00\x00\x00\x00\x00'
p1391
tp1392
Rp1393
sg163
I00
sg164
I5263
sg23
I14
sba(iopmop.models.schedule
Schedule
p1394
(dp1395
g64
(lp1396
sg50
I5263
sg156
I5263
sg157
g768
sg158
I5263
sg159
g6
(S'\x07\xe1\x06\x10\x00\x00\x00\x00\x00\x00'
p1397
tp1398
Rp1399
sg163
I00
sg164
I5263
sg23
I15
sba(iopmop.models.schedule
Schedule
p1400
(dp1401
g64
(lp1402
sg50
I5263
sg156
I5263
sg157
g768
sg158
I5263
sg159
g6
(S'\x07\xe1\x06\x11\x00\x00\x00\x00\x00\x00'
p1403
tp1404
Rp1405
sg163
I00
sg164
I5263
sg23
I16
sba(iopmop.models.schedule
Schedule
p1406
(dp1407
g64
(lp1408
sg50
I5263
sg156
I5263
sg157
g768
sg158
I5263
sg159
g6
(S'\x07\xe1\x06\x12\x00\x00\x00\x00\x00\x00'
p1409
tp1410
Rp1411
sg163
I00
sg164
I5263
sg23
I17
sba(iopmop.models.schedule
Schedule
p1412
(dp1413
g64
(lp1414
sg50
I5263
sg156
I5263
sg157
g768
sg158
I5263
sg159
g6
(S'\x07\xe1\x06\x13\x00\x00\x00\x00\x00\x00'
p1415
tp1416
Rp1417
sg163
I00
sg164
I5263
sg23
I18
sbasg23
I2
sg767
I19
sba(iopmop.models.mission
Mission
p1418
(dp1419
g5
g6
(S'\x07\xe1\x06\x01\x00\x00\x00\x00\x00\x00'
p1420
tp1421
Rp1422
sg10
(lp1423
g12
ag26
ag31
ag36
ag41
asg46
g6
(S'\x07\xe1\x06\x14\x00\x00\x00\x00\x00\x00'
p1424
tp1425
Rp1426
sg50
I90000
sg51
S'Metal june'
p1427
sg53
(iopmop.models.location
Location
p1428
(dp1429
g14
(iopmop.models.point
Point
p1430
(dp1431
g17
F40.52144455481663
sg18
I4
sg19
F-112.14980874008938
sg20
I88
sbsg21
g58
sg23
I3
sg24
S'Site3'
p1432
sbsg60
(lp1433
(iopmop.models.schedule
Schedule
p1434
(dp1435
g64
(lp1436
(iopmop.models.task
DigTask
p1437
(dp1438
g50
F1120.0
sg68
I3
sg69
g70
sg71
Nsg72
Nsg73
g1428
sg74
g6
(S'\x07\xe1\x06\x01\t\x00\x00\x00\x00\x00'
p1439
tp1440
Rp1441
sg78
g6
(S'\x07\xe1\x06\x01\x10\x00\x00\x00\x00\x00'
p1442
tp1443
Rp1444
sg23
S'0-0'
p1445
sba(iopmop.models.task
DigTask
p1446
(dp1447
g50
F3616.0
sg68
I5
sg69
g70
sg71
Nsg72
Nsg73
g1428
sg74
g6
(S'\x07\xe1\x06\x01\t\x00\x00\x00\x00\x00'
p1448
tp1449
Rp1450
sg78
g6
(S'\x07\xe1\x06\x01\x0e\x1e7\x02\x0f\xdf'
p1451
tp1452
Rp1453
sg23
S'0-0'
p1454
sba(iopmop.models.task
LoadTask
p1455
(dp1456
g50
F4140.0
sg68
I11
sg69
g70
sg71
Nsg72
Nsg73
g1428
sg74
g6
(S'\x07\xe1\x06\x01\t\x00\x00\x00\x00\x00'
p1457
tp1458
Rp1459
sg78
g6
(S'\x07\xe1\x06\x01\x11\x00\x00\x00\x00\x00'
p1460
tp1461
Rp1462
sg23
S'0-0'
p1463
sba(iopmop.models.task
LoadTask
p1464
(dp1465
g50
F1340.0
sg68
I15
sg69
g70
sg71
Nsg72
Nsg73
g1428
sg74
g6
(S'\x07\xe1\x06\x01\x10\x00\x00\x00\x00\x00'
p1466
tp1467
Rp1468
sg78
g6
(S'\x07\xe1\x06\x01\x11\x00\x00\x00\x00\x00'
p1469
tp1470
Rp1471
sg23
S'0-0'
p1472
sbasg50
I4736
sg156
F0.0
sg157
g1418
sg158
F-744.0
sg159
g6
(S'\x07\xe1\x06\x01\x00\x00\x00\x00\x00\x00'
p1473
tp1474
Rp1475
sg163
I01
sg164
F4736.0
sg23
I0
sba(iopmop.models.schedule
Schedule
p1476
(dp1477
g64
(lp1478
(iopmop.models.task
DigTask
p1479
(dp1480
g50
F1120.0
sg68
I3
sg69
g70
sg71
Nsg72
Nsg73
g1428
sg74
g6
(S'\x07\xe1\x06\x02\t\x00\x00\x00\x00\x00'
p1481
tp1482
Rp1483
sg78
g6
(S'\x07\xe1\x06\x02\x10\x00\x00\x00\x00\x00'
p1484
tp1485
Rp1486
sg23
S'1-0'
p1487
sba(iopmop.models.task
DigTask
p1488
(dp1489
g50
F3616.0
sg68
I5
sg69
g70
sg71
Nsg72
Nsg73
g1428
sg74
g6
(S'\x07\xe1\x06\x02\t\x00\x00\x00\x00\x00'
p1490
tp1491
Rp1492
sg78
g6
(S'\x07\xe1\x06\x02\x0e\x1e7\x02\x0f\xdf'
p1493
tp1494
Rp1495
sg23
S'1-0'
p1496
sba(iopmop.models.task
LoadTask
p1497
(dp1498
g50
F4140.0
sg68
I11
sg69
g70
sg71
Nsg72
Nsg73
g1428
sg74
g6
(S'\x07\xe1\x06\x02\t\x00\x00\x00\x00\x00'
p1499
tp1500
Rp1501
sg78
g6
(S'\x07\xe1\x06\x02\x11\x00\x00\x00\x00\x00'
p1502
tp1503
Rp1504
sg23
S'1-0'
p1505
sba(iopmop.models.task
LoadTask
p1506
(dp1507
g50
F1340.0
sg68
I15
sg69
g70
sg71
Nsg72
Nsg73
g1428
sg74
g6
(S'\x07\xe1\x06\x02\x0e\x00\x00\x00\x00\x00'
p1508
tp1509
Rp1510
sg78
g6
(S'\x07\xe1\x06\x02\x0f\x00\x00\x00\x00\x00'
p1511
tp1512
Rp1513
sg23
S'1-0'
p1514
sbasg50
I4736
sg156
F0.0
sg157
g1418
sg158
F-744.0
sg159
g6
(S'\x07\xe1\x06\x02\x00\x00\x00\x00\x00\x00'
p1515
tp1516
Rp1517
sg163
I01
sg164
F4736.0
sg23
I1
sba(iopmop.models.schedule
Schedule
p1518
(dp1519
g64
(lp1520
(iopmop.models.task
DigTask
p1521
(dp1522
g50
F1120.0
sg68
I3
sg69
g70
sg71
Nsg72
Nsg73
g1428
sg74
g6
(S'\x07\xe1\x06\x03\t\x00\x00\x00\x00\x00'
p1523
tp1524
Rp1525
sg78
g6
(S'\x07\xe1\x06\x03\x10\x00\x00\x00\x00\x00'
p1526
tp1527
Rp1528
sg23
S'2-0'
p1529
sba(iopmop.models.task
DigTask
p1530
(dp1531
g50
F3616.0
sg68
I5
sg69
g70
sg71
Nsg72
Nsg73
g1428
sg74
g6
(S'\x07\xe1\x06\x03\t\x00\x00\x00\x00\x00'
p1532
tp1533
Rp1534
sg78
g6
(S'\x07\xe1\x06\x03\x0e\x1e7\x02\x0f\xdf'
p1535
tp1536
Rp1537
sg23
S'2-0'
p1538
sba(iopmop.models.task
LoadTask
p1539
(dp1540
g50
F5360.0
sg68
I15
sg69
g70
sg71
Nsg72
Nsg73
g1428
sg74
g6
(S'\x07\xe1\x06\x03\t\x00\x00\x00\x00\x00'
p1541
tp1542
Rp1543
sg78
g6
(S'\x07\xe1\x06\x03\x10\x00\x00\x00\x00\x00'
p1544
tp1545
Rp1546
sg23
S'2-0'
p1547
sbasg50
I4736
sg156
F0.0
sg157
g1418
sg158
F-624.0
sg159
g6
(S'\x07\xe1\x06\x03\x00\x00\x00\x00\x00\x00'
p1548
tp1549
Rp1550
sg163
I01
sg164
F4736.0
sg23
I2
sba(iopmop.models.schedule
Schedule
p1551
(dp1552
g64
(lp1553
sg50
I4736
sg156
I4736
sg157
g1418
sg158
I4736
sg159
g6
(S'\x07\xe1\x06\x04\x00\x00\x00\x00\x00\x00'
p1554
tp1555
Rp1556
sg163
I00
sg164
I4736
sg23
I3
sba(iopmop.models.schedule
Schedule
p1557
(dp1558
g64
(lp1559
sg50
I4736
sg156
I4736
sg157
g1418
sg158
I4736
sg159
g6
(S'\x07\xe1\x06\x05\x00\x00\x00\x00\x00\x00'
p1560
tp1561
Rp1562
sg163
I00
sg164
I4736
sg23
I4
sba(iopmop.models.schedule
Schedule
p1563
(dp1564
g64
(lp1565
sg50
I4736
sg156
I4736
sg157
g1418
sg158
I4736
sg159
g6
(S'\x07\xe1\x06\x06\x00\x00\x00\x00\x00\x00'
p1566
tp1567
Rp1568
sg163
I00
sg164
I4736
sg23
I5
sba(iopmop.models.schedule
Schedule
p1569
(dp1570
g64
(lp1571
sg50
I4736
sg156
I4736
sg157
g1418
sg158
I4736
sg159
g6
(S'\x07\xe1\x06\x07\x00\x00\x00\x00\x00\x00'
p1572
tp1573
Rp1574
sg163
I00
sg164
I4736
sg23
I6
sba(iopmop.models.schedule
Schedule
p1575
(dp1576
g64
(lp1577
sg50
I4736
sg156
I4736
sg157
g1418
sg158
I4736
sg159
g6
(S'\x07\xe1\x06\x08\x00\x00\x00\x00\x00\x00'
p1578
tp1579
Rp1580
sg163
I00
sg164
I4736
sg23
I7
sba(iopmop.models.schedule
Schedule
p1581
(dp1582
g64
(lp1583
sg50
I4736
sg156
I4736
sg157
g1418
sg158
I4736
sg159
g6
(S'\x07\xe1\x06\t\x00\x00\x00\x00\x00\x00'
p1584
tp1585
Rp1586
sg163
I00
sg164
I4736
sg23
I8
sba(iopmop.models.schedule
Schedule
p1587
(dp1588
g64
(lp1589
sg50
I4736
sg156
I4736
sg157
g1418
sg158
I4736
sg159
g6
(S'\x07\xe1\x06\n\x00\x00\x00\x00\x00\x00'
p1590
tp1591
Rp1592
sg163
I00
sg164
I4736
sg23
I9
sba(iopmop.models.schedule
Schedule
p1593
(dp1594
g64
(lp1595
sg50
I4736
sg156
I4736
sg157
g1418
sg158
I4736
sg159
g6
(S'\x07\xe1\x06\x0b\x00\x00\x00\x00\x00\x00'
p1596
tp1597
Rp1598
sg163
I00
sg164
I4736
sg23
I10
sba(iopmop.models.schedule
Schedule
p1599
(dp1600
g64
(lp1601
sg50
I4736
sg156
I4736
sg157
g1418
sg158
I4736
sg159
g6
(S'\x07\xe1\x06\x0c\x00\x00\x00\x00\x00\x00'
p1602
tp1603
Rp1604
sg163
I00
sg164
I4736
sg23
I11
sba(iopmop.models.schedule
Schedule
p1605
(dp1606
g64
(lp1607
sg50
I4736
sg156
I4736
sg157
g1418
sg158
I4736
sg159
g6
(S'\x07\xe1\x06\r\x00\x00\x00\x00\x00\x00'
p1608
tp1609
Rp1610
sg163
I00
sg164
I4736
sg23
I12
sba(iopmop.models.schedule
Schedule
p1611
(dp1612
g64
(lp1613
sg50
I4736
sg156
I4736
sg157
g1418
sg158
I4736
sg159
g6
(S'\x07\xe1\x06\x0e\x00\x00\x00\x00\x00\x00'
p1614
tp1615
Rp1616
sg163
I00
sg164
I4736
sg23
I13
sba(iopmop.models.schedule
Schedule
p1617
(dp1618
g64
(lp1619
sg50
I4736
sg156
I4736
sg157
g1418
sg158
I4736
sg159
g6
(S'\x07\xe1\x06\x0f\x00\x00\x00\x00\x00\x00'
p1620
tp1621
Rp1622
sg163
I00
sg164
I4736
sg23
I14
sba(iopmop.models.schedule
Schedule
p1623
(dp1624
g64
(lp1625
sg50
I4736
sg156
I4736
sg157
g1418
sg158
I4736
sg159
g6
(S'\x07\xe1\x06\x10\x00\x00\x00\x00\x00\x00'
p1626
tp1627
Rp1628
sg163
I00
sg164
I4736
sg23
I15
sba(iopmop.models.schedule
Schedule
p1629
(dp1630
g64
(lp1631
sg50
I4736
sg156
I4736
sg157
g1418
sg158
I4736
sg159
g6
(S'\x07\xe1\x06\x11\x00\x00\x00\x00\x00\x00'
p1632
tp1633
Rp1634
sg163
I00
sg164
I4736
sg23
I16
sba(iopmop.models.schedule
Schedule
p1635
(dp1636
g64
(lp1637
sg50
I4736
sg156
I4736
sg157
g1418
sg158
I4736
sg159
g6
(S'\x07\xe1\x06\x12\x00\x00\x00\x00\x00\x00'
p1638
tp1639
Rp1640
sg163
I00
sg164
I4736
sg23
I17
sba(iopmop.models.schedule
Schedule
p1641
(dp1642
g64
(lp1643
sg50
I4736
sg156
I4736
sg157
g1418
sg158
I4736
sg159
g6
(S'\x07\xe1\x06\x13\x00\x00\x00\x00\x00\x00'
p1644
tp1645
Rp1646
sg163
I00
sg164
I4736
sg23
I18
sbasg23
I3
sg767
I19
sba(iopmop.models.mission
Mission
p1647
(dp1648
g5
g6
(S'\x07\xe1\x06\x01\x00\x00\x00\x00\x00\x00'
p1649
tp1650
Rp1651
sg10
(lp1652
g12
ag26
ag31
ag36
ag41
asg46
g6
(S'\x07\xe1\x06\x1e\x00\x00\x00\x00\x00\x00'
p1653
tp1654
Rp1655
sg50
I50000
sg51
S'Gold rush'
p1656
sg53
(iopmop.models.location
Location
p1657
(dp1658
g14
(iopmop.models.point
Point
p1659
(dp1660
g17
F40.518862269185945
sg18
I3
sg19
F-112.14784948551801
sg20
I125
sbsg21
g58
sg23
I4
sg24
S'Site4'
p1661
sbsg60
(lp1662
(iopmop.models.schedule
Schedule
p1663
(dp1664
g64
(lp1665
(iopmop.models.task
DigTask
p1666
(dp1667
g50
F1724.0
sg68
I7
sg69
g70
sg71
Nsg72
Nsg73
g1657
sg74
g6
(S'\x07\xe1\x06\x01\t\x00\x00\x00\x00\x00'
p1668
tp1669
Rp1670
sg78
g6
(S'\x07\xe1\x06\x01\r2\x04\x00\xf4\xd2'
p1671
tp1672
Rp1673
sg23
S'0-0'
p1674
sba(iopmop.models.task
LoadTask
p1675
(dp1676
g50
F2226.0
sg68
I14
sg69
g70
sg71
Nsg72
Nsg73
g1657
sg74
g6
(S'\x07\xe1\x06\x01\t\x00\x00\x00\x00\x00'
p1677
tp1678
Rp1679
sg78
g6
(S'\x07\xe1\x06\x01\x0c\x0c\x00\x00\x00\x00'
p1680
tp1681
Rp1682
sg23
S'0-0'
p1683
sba(iopmop.models.task
HaulageTask
p1684
(dp1685
g72
Nsg50
I351
sg68
I41
sg69
g70
sg71
Nsg94
g31
sg73
g1657
sg74
g6
(S'\x07\xe1\x06\x01\t&8\x0b\xc2\xe8'
p1686
tp1687
Rp1688
sg78
g6
(S'\x07\xe1\x06\x01\t:\x19\x02b\x1c'
p1689
tp1690
Rp1691
sg23
S'0-1'
p1692
sba(iopmop.models.task
HaulageTask
p1693
(dp1694
g72
Nsg50
I385
sg68
I25
sg69
g70
sg71
Nsg94
g31
sg73
g1657
sg74
g6
(S'\x07\xe1\x06\x01\n\x12\x05\x01b\x84'
p1695
tp1696
Rp1697
sg78
g6
(S'\x07\xe1\x06\x01\n%$\x05\x8b\xb5'
p1698
tp1699
Rp1700
sg23
S'0-1'
p1701
sba(iopmop.models.task
HaulageTask
p1702
(dp1703
g72
Nsg50
I452
sg68
I47
sg69
g70
sg71
Nsg94
g31
sg73
g1657
sg74
g6
(S'\x07\xe1\x06\x01\n54\x00~\xc8'
p1704
tp1705
Rp1706
sg78
g6
(S'\x07\xe1\x06\x01\x0b\x0c2\n\xc0\x14'
p1707
tp1708
Rp1709
sg23
S'0-1'
p1710
sba(iopmop.models.task
HaulageTask
p1711
(dp1712
g72
Nsg50
I356
sg68
I29
sg69
g70
sg71
Nsg94
g31
sg73
g1657
sg74
g6
(S'\x07\xe1\x06\x01\x0b\x15\x18\x08\xe3\xcb'
p1713
tp1714
Rp1715
sg78
g6
(S'\x07\xe1\x06\x01\x0b)$\n(\xe8'
p1716
tp1717
Rp1718
sg23
S'0-1'
p1719
sba(iopmop.models.task
HaulageTask
p1720
(dp1721
g72
Nsg50
I384
sg68
I24
sg69
g70
sg71
Nsg94
g31
sg73
g1657
sg74
g6
(S'\x07\xe1\x06\x01\x0c\x03\x10\x08\x12?'
p1722
tp1723
Rp1724
sg78
g6
(S'\x07\xe1\x06\x01\x0c\x17&\x05\x93\xc6'
p1725
tp1726
Rp1727
sg23
S'0-1'
p1728
sbasg50
I1724
sg156
F0.0
sg157
g1647
sg158
F-502.0
sg159
g6
(S'\x07\xe1\x06\x01\x00\x00\x00\x00\x00\x00'
p1729
tp1730
Rp1731
sg163
I01
sg164
F-204.0
sg23
I0
sba(iopmop.models.schedule
Schedule
p1732
(dp1733
g64
(lp1734
sg50
I1724
sg156
I1724
sg157
g1647
sg158
I1724
sg159
g6
(S'\x07\xe1\x06\x02\x00\x00\x00\x00\x00\x00'
p1735
tp1736
Rp1737
sg163
I00
sg164
I1724
sg23
I1
sba(iopmop.models.schedule
Schedule
p1738
(dp1739
g64
(lp1740
sg50
I1724
sg156
I1724
sg157
g1647
sg158
I1724
sg159
g6
(S'\x07\xe1\x06\x03\x00\x00\x00\x00\x00\x00'
p1741
tp1742
Rp1743
sg163
I00
sg164
I1724
sg23
I2
sba(iopmop.models.schedule
Schedule
p1744
(dp1745
g64
(lp1746
sg50
I1724
sg156
I1724
sg157
g1647
sg158
I1724
sg159
g6
(S'\x07\xe1\x06\x04\x00\x00\x00\x00\x00\x00'
p1747
tp1748
Rp1749
sg163
I00
sg164
I1724
sg23
I3
sba(iopmop.models.schedule
Schedule
p1750
(dp1751
g64
(lp1752
sg50
I1724
sg156
I1724
sg157
g1647
sg158
I1724
sg159
g6
(S'\x07\xe1\x06\x05\x00\x00\x00\x00\x00\x00'
p1753
tp1754
Rp1755
sg163
I00
sg164
I1724
sg23
I4
sba(iopmop.models.schedule
Schedule
p1756
(dp1757
g64
(lp1758
sg50
I1724
sg156
I1724
sg157
g1647
sg158
I1724
sg159
g6
(S'\x07\xe1\x06\x06\x00\x00\x00\x00\x00\x00'
p1759
tp1760
Rp1761
sg163
I00
sg164
I1724
sg23
I5
sba(iopmop.models.schedule
Schedule
p1762
(dp1763
g64
(lp1764
sg50
I1724
sg156
I1724
sg157
g1647
sg158
I1724
sg159
g6
(S'\x07\xe1\x06\x07\x00\x00\x00\x00\x00\x00'
p1765
tp1766
Rp1767
sg163
I00
sg164
I1724
sg23
I6
sba(iopmop.models.schedule
Schedule
p1768
(dp1769
g64
(lp1770
sg50
I1724
sg156
I1724
sg157
g1647
sg158
I1724
sg159
g6
(S'\x07\xe1\x06\x08\x00\x00\x00\x00\x00\x00'
p1771
tp1772
Rp1773
sg163
I00
sg164
I1724
sg23
I7
sba(iopmop.models.schedule
Schedule
p1774
(dp1775
g64
(lp1776
sg50
I1724
sg156
I1724
sg157
g1647
sg158
I1724
sg159
g6
(S'\x07\xe1\x06\t\x00\x00\x00\x00\x00\x00'
p1777
tp1778
Rp1779
sg163
I00
sg164
I1724
sg23
I8
sba(iopmop.models.schedule
Schedule
p1780
(dp1781
g64
(lp1782
sg50
I1724
sg156
I1724
sg157
g1647
sg158
I1724
sg159
g6
(S'\x07\xe1\x06\n\x00\x00\x00\x00\x00\x00'
p1783
tp1784
Rp1785
sg163
I00
sg164
I1724
sg23
I9
sba(iopmop.models.schedule
Schedule
p1786
(dp1787
g64
(lp1788
sg50
I1724
sg156
I1724
sg157
g1647
sg158
I1724
sg159
g6
(S'\x07\xe1\x06\x0b\x00\x00\x00\x00\x00\x00'
p1789
tp1790
Rp1791
sg163
I00
sg164
I1724
sg23
I10
sba(iopmop.models.schedule
Schedule
p1792
(dp1793
g64
(lp1794
sg50
I1724
sg156
I1724
sg157
g1647
sg158
I1724
sg159
g6
(S'\x07\xe1\x06\x0c\x00\x00\x00\x00\x00\x00'
p1795
tp1796
Rp1797
sg163
I00
sg164
I1724
sg23
I11
sba(iopmop.models.schedule
Schedule
p1798
(dp1799
g64
(lp1800
sg50
I1724
sg156
I1724
sg157
g1647
sg158
I1724
sg159
g6
(S'\x07\xe1\x06\r\x00\x00\x00\x00\x00\x00'
p1801
tp1802
Rp1803
sg163
I00
sg164
I1724
sg23
I12
sba(iopmop.models.schedule
Schedule
p1804
(dp1805
g64
(lp1806
sg50
I1724
sg156
I1724
sg157
g1647
sg158
I1724
sg159
g6
(S'\x07\xe1\x06\x0e\x00\x00\x00\x00\x00\x00'
p1807
tp1808
Rp1809
sg163
I00
sg164
I1724
sg23
I13
sba(iopmop.models.schedule
Schedule
p1810
(dp1811
g64
(lp1812
sg50
I1724
sg156
I1724
sg157
g1647
sg158
I1724
sg159
g6
(S'\x07\xe1\x06\x0f\x00\x00\x00\x00\x00\x00'
p1813
tp1814
Rp1815
sg163
I00
sg164
I1724
sg23
I14
sba(iopmop.models.schedule
Schedule
p1816
(dp1817
g64
(lp1818
sg50
I1724
sg156
I1724
sg157
g1647
sg158
I1724
sg159
g6
(S'\x07\xe1\x06\x10\x00\x00\x00\x00\x00\x00'
p1819
tp1820
Rp1821
sg163
I00
sg164
I1724
sg23
I15
sba(iopmop.models.schedule
Schedule
p1822
(dp1823
g64
(lp1824
sg50
I1724
sg156
I1724
sg157
g1647
sg158
I1724
sg159
g6
(S'\x07\xe1\x06\x11\x00\x00\x00\x00\x00\x00'
p1825
tp1826
Rp1827
sg163
I00
sg164
I1724
sg23
I16
sba(iopmop.models.schedule
Schedule
p1828
(dp1829
g64
(lp1830
sg50
I1724
sg156
I1724
sg157
g1647
sg158
I1724
sg159
g6
(S'\x07\xe1\x06\x12\x00\x00\x00\x00\x00\x00'
p1831
tp1832
Rp1833
sg163
I00
sg164
I1724
sg23
I17
sba(iopmop.models.schedule
Schedule
p1834
(dp1835
g64
(lp1836
sg50
I1724
sg156
I1724
sg157
g1647
sg158
I1724
sg159
g6
(S'\x07\xe1\x06\x13\x00\x00\x00\x00\x00\x00'
p1837
tp1838
Rp1839
sg163
I00
sg164
I1724
sg23
I18
sba(iopmop.models.schedule
Schedule
p1840
(dp1841
g64
(lp1842
sg50
I1724
sg156
I1724
sg157
g1647
sg158
I1724
sg159
g6
(S'\x07\xe1\x06\x14\x00\x00\x00\x00\x00\x00'
p1843
tp1844
Rp1845
sg163
I00
sg164
I1724
sg23
I19
sba(iopmop.models.schedule
Schedule
p1846
(dp1847
g64
(lp1848
sg50
I1724
sg156
I1724
sg157
g1647
sg158
I1724
sg159
g6
(S'\x07\xe1\x06\x15\x00\x00\x00\x00\x00\x00'
p1849
tp1850
Rp1851
sg163
I00
sg164
I1724
sg23
I20
sba(iopmop.models.schedule
Schedule
p1852
(dp1853
g64
(lp1854
sg50
I1724
sg156
I1724
sg157
g1647
sg158
I1724
sg159
g6
(S'\x07\xe1\x06\x16\x00\x00\x00\x00\x00\x00'
p1855
tp1856
Rp1857
sg163
I00
sg164
I1724
sg23
I21
sba(iopmop.models.schedule
Schedule
p1858
(dp1859
g64
(lp1860
sg50
I1724
sg156
I1724
sg157
g1647
sg158
I1724
sg159
g6
(S'\x07\xe1\x06\x17\x00\x00\x00\x00\x00\x00'
p1861
tp1862
Rp1863
sg163
I00
sg164
I1724
sg23
I22
sba(iopmop.models.schedule
Schedule
p1864
(dp1865
g64
(lp1866
sg50
I1724
sg156
I1724
sg157
g1647
sg158
I1724
sg159
g6
(S'\x07\xe1\x06\x18\x00\x00\x00\x00\x00\x00'
p1867
tp1868
Rp1869
sg163
I00
sg164
I1724
sg23
I23
sba(iopmop.models.schedule
Schedule
p1870
(dp1871
g64
(lp1872
sg50
I1724
sg156
I1724
sg157
g1647
sg158
I1724
sg159
g6
(S'\x07\xe1\x06\x19\x00\x00\x00\x00\x00\x00'
p1873
tp1874
Rp1875
sg163
I00
sg164
I1724
sg23
I24
sba(iopmop.models.schedule
Schedule
p1876
(dp1877
g64
(lp1878
(iopmop.models.task
DigTask
p1879
(dp1880
g50
F1724.0
sg68
I9
sg69
g381
sg71
Nsg72
Nsg73
g1657
sg74
g6
(S'\x07\xe1\x06\x1a\t\x00\x00\x00\x00\x00'
p1881
tp1882
Rp1883
sg78
g6
(S'\x07\xe1\x06\x1a\x0c\x0f\x15\x07\x83\xeb'
p1884
tp1885
Rp1886
sg23
S'25-0'
p1887
sba(iopmop.models.task
LoadTask
p1888
(dp1889
g50
F2345.0
sg68
I15
sg69
g381
sg71
Nsg72
Nsg73
g1657
sg74
g6
(S'\x07\xe1\x06\x1a\t\x00\x00\x00\x00\x00'
p1890
tp1891
Rp1892
sg78
g6
(S'\x07\xe1\x06\x1a\x0b\x1e\x00\x00\x00\x00'
p1893
tp1894
Rp1895
sg23
S'25-0'
p1896
sba(iopmop.models.task
HaulageTask
p1897
(dp1898
g72
Nsg50
I351
sg68
I41
sg69
g381
sg71
Nsg94
g31
sg73
g1657
sg74
g6
(S'\x07\xe1\x06\x1a\t&8\x0b\xc2\xe8'
p1899
tp1900
Rp1901
sg78
g6
(S'\x07\xe1\x06\x1a\t:\x19\x02b\x1c'
p1902
tp1903
Rp1904
sg23
S'25-1'
p1905
sba(iopmop.models.task
HaulageTask
p1906
(dp1907
g72
Nsg50
I385
sg68
I25
sg69
g381
sg71
Nsg94
g31
sg73
g1657
sg74
g6
(S'\x07\xe1\x06\x1a\t:!\x0c{\x93'
p1908
tp1909
Rp1910
sg78
g6
(S'\x07\xe1\x06\x1a\n\x12\x05\x01b\x84'
p1911
tp1912
Rp1913
sg23
S'25-1'
p1914
sba(iopmop.models.task
HaulageTask
p1915
(dp1916
g72
Nsg50
I452
sg68
I47
sg69
g381
sg71
Nsg94
g31
sg73
g1657
sg74
g6
(S'\x07\xe1\x06\x1a\n"5\x05\x7f\xbc'
p1917
tp1918
Rp1919
sg78
g6
(S'\x07\xe1\x06\x1a\n54\x00~\xc8'
p1920
tp1921
Rp1922
sg23
S'25-1'
p1923
sba(iopmop.models.task
HaulageTask
p1924
(dp1925
g72
Nsg50
I351
sg68
I41
sg69
g381
sg71
Nsg94
g31
sg73
g1657
sg74
g6
(S'\x07\xe1\x06\x1a\n82\x04\xc48'
p1926
tp1927
Rp1928
sg78
g6
(S'\x07\xe1\x06\x1a\x0b\x10\x12\n\xa5\xac'
p1929
tp1930
Rp1931
sg23
S'25-1'
p1932
sba(iopmop.models.task
HaulageTask
p1933
(dp1934
g72
Nsg50
I385
sg68
I25
sg69
g381
sg71
Nsg94
g31
sg73
g1657
sg74
g6
(S'\x07\xe1\x06\x1a\x0b\x10&\r\xde\x17'
p1935
tp1936
Rp1937
sg78
g6
(S'\x07\xe1\x06\x1a\x0b$\n\x02\xc5\x08'
p1938
tp1939
Rp1940
sg23
S'25-1'
p1941
sbasg50
I1724
sg156
F0.0
sg157
g1647
sg158
F-621.0
sg159
g6
(S'\x07\xe1\x06\x1a\x00\x00\x00\x00\x00\x00'
p1942
tp1943
Rp1944
sg163
I01
sg164
F-200.0
sg23
I25
sba(iopmop.models.schedule
Schedule
p1945
(dp1946
g64
(lp1947
sg50
I1724
sg156
I1724
sg157
g1647
sg158
I1724
sg159
g6
(S'\x07\xe1\x06\x1b\x00\x00\x00\x00\x00\x00'
p1948
tp1949
Rp1950
sg163
I00
sg164
I1724
sg23
I26
sba(iopmop.models.schedule
Schedule
p1951
(dp1952
g64
(lp1953
sg50
I1724
sg156
I1724
sg157
g1647
sg158
I1724
sg159
g6
(S'\x07\xe1\x06\x1c\x00\x00\x00\x00\x00\x00'
p1954
tp1955
Rp1956
sg163
I00
sg164
I1724
sg23
I27
sba(iopmop.models.schedule
Schedule
p1957
(dp1958
g64
(lp1959
sg50
I1724
sg156
I1724
sg157
g1647
sg158
I1724
sg159
g6
(S'\x07\xe1\x06\x1d\x00\x00\x00\x00\x00\x00'
p1960
tp1961
Rp1962
sg163
I00
sg164
I1724
sg23
I28
sbasg23
I4
sg767
I29
sbasS'machines'
p1963
(lp1964
(iopmop.models.machine
Shovel
p1965
(dp1966
S'model'
p1967
S'SHV0'
p1968
sS'weightCapacity'
p1969
I95
sS'weight'
p1970
I1158
sg14
(iopmop.models.point
Point
p1971
(dp1972
g17
F40.5174143845541
sg18
I17
sg19
F-112.1200861232387
sg20
I225
sbsS'speed'
p1973
I15
sS'staticFuelConsumption'
p1974
I109
sS'fuelConsumption'
p1975
I187
sS'isAvailable'
p1976
I01
sS'fuelCapacity'
p1977
I10186
sg23
I0
sba(iopmop.models.machine
Shovel
p1978
(dp1979
g1967
S'SHV1'
p1980
sg1969
I76
sg1970
I1973
sg14
(iopmop.models.point
Point
p1981
(dp1982
g17
F40.51952590776382
sg18
I1
sg19
F-112.14713725991055
sg20
I123
sbsg1973
I16
sg1974
I93
sg1975
I178
sg1976
I01
sg1977
I9966
sg23
I1
sba(iopmop.models.machine
Shovel
p1983
(dp1984
g1967
S'SHV2'
p1985
sg1969
I41
sg1970
I1403
sg14
(iopmop.models.point
Point
p1986
(dp1987
g17
F40.519889282781556
sg18
I7
sg19
F-112.1570778643424
sg20
I111
sbsg1973
I16
sg1974
I120
sg1975
I197
sg1976
I01
sg1977
I8832
sg23
I2
sba(iopmop.models.machine
Shovel
p1988
(dp1989
g1967
S'SHV3'
p1990
sg1969
I28
sg1970
I1825
sg14
(iopmop.models.point
Point
p1991
(dp1992
g17
F40.51674876769078
sg18
I4
sg19
F-112.13403198666379
sg20
I233
sbsg1973
I12
sg1974
I81
sg1975
I176
sg1976
I01
sg1977
I10439
sg23
I3
sba(iopmop.models.machine
Shovel
p1993
(dp1994
g1967
S'SHV4'
p1995
sg1969
I85
sg1970
I1433
sg14
g15
sg1973
I19
sg1974
I86
sg1975
I173
sg1976
I01
sg1977
I11404
sg23
I4
sba(iopmop.models.machine
Shovel
p1996
(dp1997
g1967
S'SHV5'
p1998
sg1969
I111
sg1970
I1174
sg14
(iopmop.models.point
Point
p1999
(dp2000
g17
F40.528067561722764
sg18
I2
sg19
F-112.14214828710544
sg20
I132
sbsg1973
I12
sg1974
I95
sg1975
I193
sg1976
I01
sg1977
I8187
sg23
I5
sba(iopmop.models.machine
Shovel
p2001
(dp2002
g1967
S'SHV6'
p2003
sg1969
I60
sg1970
I1046
sg14
g56
sg1973
I14
sg1974
I107
sg1975
I173
sg1976
I01
sg1977
I8790
sg23
I6
sba(iopmop.models.machine
Shovel
p2004
(dp2005
g1967
S'SHV7'
p2006
sg1969
I72
sg1970
I1475
sg14
(iopmop.models.point
Point
p2007
(dp2008
g17
F40.51967883063745
sg18
I1
sg19
F-112.14999783582493
sg20
I138
sbsg1973
I15
sg1974
I106
sg1975
I155
sg1976
I01
sg1977
I8645
sg23
I7
sba(iopmop.models.machine
Shovel
p2009
(dp2010
g1967
S'SHV8'
p2011
sg1969
I58
sg1970
I1619
sg14
(iopmop.models.point
Point
p2012
(dp2013
g17
F40.53127343080907
sg18
I3
sg19
F-112.15153489693762
sg20
I76
sbsg1973
I13
sg1974
I85
sg1975
I176
sg1976
I01
sg1977
I9867
sg23
I8
sba(iopmop.models.machine
Shovel
p2014
(dp2015
g1967
S'SHV9'
p2016
sg1969
I107
sg1970
I1060
sg14
(iopmop.models.point
Point
p2017
(dp2018
g17
F40.519089564731466
sg18
I4
sg19
F-112.15094331622777
sg20
I141
sbsg1973
I18
sg1974
I99
sg1975
I192
sg1976
I01
sg1977
I10367
sg23
I9
sba(iopmop.models.machine
Loader
p2019
(dp2020
g1967
S'LOD10'
p2021
sg1969
I48
sg1970
I356673
sg14
(iopmop.models.point
Point
p2022
(dp2023
g17
F40.52033422442912
sg18
I11
sg19
F-112.15743158337494
sg20
I115
sbsg1973
I41
sg1974
I99
sg1975
I178
sg1976
I01
sg1977
I9925
sg23
I10
sba(iopmop.models.machine
Loader
p2024
(dp2025
g1967
S'LOD11'
p2026
sg1969
I46
sg1970
I383859
sg14
(iopmop.models.point
Point
p2027
(dp2028
g17
F40.519089564731466
sg18
I3
sg19
F-112.15094331622777
sg20
I147
sbsg1973
I41
sg1974
I84
sg1975
I192
sg1976
I01
sg1977
I11320
sg23
I11
sba(iopmop.models.machine
Loader
p2029
(dp2030
g1967
S'LOD12'
p2031
sg1969
I65
sg1970
I328484
sg14
(iopmop.models.point
Point
p2032
(dp2033
g17
F40.519697181358865
sg18
I3
sg19
F-112.15714458174511
sg20
I122
sbsg1973
I44
sg1974
I113
sg1975
I189
sg1976
I01
sg1977
I11208
sg23
I12
sba(iopmop.models.machine
Loader
p2034
(dp2035
g1967
S'LOD13'
p2036
sg1969
I49
sg1970
I278766
sg14
g1430
sg1973
I40
sg1974
I84
sg1975
I155
sg1976
I01
sg1977
I11339
sg23
I13
sba(iopmop.models.machine
Loader
p2037
(dp2038
g1967
S'LOD14'
p2039
sg1969
I53
sg1970
I300604
sg14
(iopmop.models.point
Point
p2040
(dp2041
g17
F40.52199302087392
sg18
I1
sg19
F-112.1485695595245
sg20
I64
sbsg1973
I50
sg1974
I92
sg1975
I153
sg1976
I01
sg1977
I8448
sg23
I14
sba(iopmop.models.machine
Loader
p2042
(dp2043
g1967
S'LOD15'
p2044
sg1969
I67
sg1970
I265172
sg14
g2040
sg1973
I48
sg1974
I83
sg1975
I195
sg1976
I01
sg1977
I8543
sg23
I15
sba(iopmop.models.machine
Loader
p2045
(dp2046
g1967
S'LOD16'
p2047
sg1969
I54
sg1970
I259558
sg14
(iopmop.models.point
Point
p2048
(dp2049
g17
F40.51674367004452
sg18
I8
sg19
F-112.15372610635563
sg20
I130
sbsg1973
I47
sg1974
I90
sg1975
I198
sg1976
I01
sg1977
I11881
sg23
I16
sba(iopmop.models.machine
Loader
p2050
(dp2051
g1967
S'LOD17'
p2052
sg1969
I65
sg1970
I336589
sg14
g15
sg1973
I47
sg1974
I118
sg1975
I163
sg1976
I01
sg1977
I10457
sg23
I17
sba(iopmop.models.machine
Loader
p2053
(dp2054
g1967
S'LOD18'
p2055
sg1969
I46
sg1970
I275050
sg14
(iopmop.models.point
Point
p2056
(dp2057
g17
F40.52196651518252
sg18
I10
sg19
F-112.15500686116025
sg20
I10
sbsg1973
I43
sg1974
I89
sg1975
I177
sg1976
I01
sg1977
I10208
sg23
I18
sba(iopmop.models.machine
Loader
p2058
(dp2059
g1967
S'LOD19'
p2060
sg1969
I61
sg1970
I369300
sg14
(iopmop.models.point
Point
p2061
(dp2062
g17
F40.51802910641094
sg18
I16
sg19
F-112.1605648358053
sg20
I16
sbsg1973
I40
sg1974
I119
sg1975
I191
sg1976
I01
sg1977
I11274
sg23
I19
sba(iopmop.models.machine
Truck
p2063
(dp2064
g1967
S'TRK20'
p2065
sg1969
I257
sg1970
I358
sg14
g43
sg1973
I46
sg1974
I90
sg1975
I199
sg1976
I01
sg1977
I9978
sg23
I20
sba(iopmop.models.machine
Truck
p2066
(dp2067
g1967
S'TRK21'
p2068
sg1969
I478
sg1970
I335
sg14
(iopmop.models.point
Point
p2069
(dp2070
g17
F40.51722613443143
sg18
I3
sg19
F-112.13269675223654
sg20
I200
sbsg1973
I49
sg1974
I118
sg1975
I185
sg1976
I01
sg1977
I11376
sg23
I21
sba(iopmop.models.machine
Truck
p2071
(dp2072
g1967
S'TRK22'
p2073
sg1969
I474
sg1970
I282
sg14
(iopmop.models.point
Point
p2074
(dp2075
g17
F40.53002936641421
sg18
I2
sg19
F-112.14985069036732
sg20
I97
sbsg1973
I48
sg1974
I88
sg1975
I200
sg1976
I01
sg1977
I11535
sg23
I22
sba(iopmop.models.machine
Truck
p2076
(dp2077
g1967
S'TRK23'
p2078
sg1969
I296
sg1970
I273
sg14
(iopmop.models.point
Point
p2079
(dp2080
g17
F40.52595648401059
sg18
I5
sg19
F-112.1545160579335
sg20
I78
sbsg1973
I46
sg1974
I83
sg1975
I161
sg1976
I01
sg1977
I11499
sg23
I23
sba(iopmop.models.machine
Truck
p2081
(dp2082
g1967
S'TRK24'
p2083
sg1969
I384
sg1970
I381
sg14
(iopmop.models.point
Point
p2084
(dp2085
g17
F40.51882860152375
sg18
I2
sg19
F-112.15250166522429
sg20
I121
sbsg1973
I43
sg1974
I88
sg1975
I165
sg1976
I01
sg1977
I8138
sg23
I24
sba(iopmop.models.machine
Truck
p2086
(dp2087
g1967
S'TRK25'
p2088
sg1969
I385
sg1970
I283
sg14
(iopmop.models.point
Point
p2089
(dp2090
g17
F40.52222904690337
sg18
I2
sg19
F-112.15097983410101
sg20
I86
sbsg1973
I47
sg1974
I105
sg1975
I159
sg1976
I01
sg1977
I9777
sg23
I25
sba(iopmop.models.machine
Truck
p2091
(dp2092
g1967
S'TRK26'
p2093
sg1969
I466
sg1970
I291
sg14
(iopmop.models.point
Point
p2094
(dp2095
g17
F40.52196333372621
sg18
I7
sg19
F-112.13930995935533
sg20
I195
sbsg1973
I41
sg1974
I82
sg1975
I184
sg1976
I01
sg1977
I9709
sg23
I26
sba(iopmop.models.machine
Truck
p2096
(dp2097
g1967
S'TRK27'
p2098
sg1969
I441
sg1970
I295
sg14
(iopmop.models.point
Point
p2099
(dp2100
g17
F40.52178811121781
sg18
I28
sg19
F-112.12502244658276
sg20
I177
sbsg1973
I44
sg1974
I82
sg1975
I185
sg1976
I01
sg1977
I10801
sg23
I27
sba(iopmop.models.machine
Truck
p2101
(dp2102
g1967
S'TRK28'
p2103
sg1969
I442
sg1970
I280
sg14
(iopmop.models.point
Point
p2104
(dp2105
g17
F40.52505944774498
sg18
I5
sg19
F-112.1482852548599
sg20
I93
sbsg1973
I42
sg1974
I91
sg1975
I188
sg1976
I01
sg1977
I9000
sg23
I28
sba(iopmop.models.machine
Truck
p2106
(dp2107
g1967
S'TRK29'
p2108
sg1969
I356
sg1970
I254
sg14
g43
sg1973
I42
sg1974
I85
sg1975
I153
sg1976
I01
sg1977
I9566
sg23
I29
sba(iopmop.models.machine
Truck
p2109
(dp2110
g1967
S'TRK30'
p2111
sg1969
I315
sg1970
I259
sg14
(iopmop.models.point
Point
p2112
(dp2113
g17
F40.5226281282086
sg18
I2
sg19
F-112.15311724145829
sg20
I68
sbsg1973
I43
sg1974
I93
sg1975
I152
sg1976
I01
sg1977
I10678
sg23
I30
sba(iopmop.models.machine
Truck
p2114
(dp2115
g1967
S'TRK31'
p2116
sg1969
I399
sg1970
I279
sg14
(iopmop.models.point
Point
p2117
(dp2118
g17
F40.5198868051858
sg18
I1
sg19
F-112.15163398332402
sg20
I145
sbsg1973
I40
sg1974
I81
sg1975
I164
sg1976
I01
sg1977
I9054
sg23
I31
sba(iopmop.models.machine
Truck
p2119
(dp2120
g1967
S'TRK32'
p2121
sg1969
I353
sg1970
I344
sg14
g2007
sg1973
I45
sg1974
I91
sg1975
I192
sg1976
I01
sg1977
I11359
sg23
I32
sba(iopmop.models.machine
Truck
p2122
(dp2123
g1967
S'TRK33'
p2124
sg1969
I459
sg1970
I256
sg14
g1991
sg1973
I49
sg1974
I82
sg1975
I166
sg1976
I01
sg1977
I8612
sg23
I33
sba(iopmop.models.machine
Truck
p2125
(dp2126
g1967
S'TRK34'
p2127
sg1969
I382
sg1970
I337
sg14
(iopmop.models.point
Point
p2128
(dp2129
g17
F40.52154760144885
sg18
I16
sg19
F-112.14969724194981
sg20
I49
sbsg1973
I40
sg1974
I116
sg1975
I184
sg1976
I01
sg1977
I10270
sg23
I34
sba(iopmop.models.machine
Truck
p2130
(dp2131
g1967
S'TRK35'
p2132
sg1969
I490
sg1970
I309
sg14
(iopmop.models.point
Point
p2133
(dp2134
g17
F40.52204811588998
sg18
I25
sg19
F-112.15288531678806
sg20
I58
sbsg1973
I43
sg1974
I120
sg1975
I171
sg1976
I01
sg1977
I8602
sg23
I35
sba(iopmop.models.machine
Truck
p2135
(dp2136
g1967
S'TRK36'
p2137
sg1969
I316
sg1970
I295
sg14
(iopmop.models.point
Point
p2138
(dp2139
g17
F40.5224649901301
sg18
I5
sg19
F-112.15391785781912
sg20
I71
sbsg1973
I43
sg1974
I113
sg1975
I186
sg1976
I01
sg1977
I9483
sg23
I36
sba(iopmop.models.machine
Truck
p2140
(dp2141
g1967
S'TRK37'
p2142
sg1969
I252
sg1970
I339
sg14
g2032
sg1973
I46
sg1974
I105
sg1975
I181
sg1976
I01
sg1977
I8283
sg23
I37
sba(iopmop.models.machine
Truck
p2143
(dp2144
g1967
S'TRK38'
p2145
sg1969
I342
sg1970
I324
sg14
(iopmop.models.point
Point
p2146
(dp2147
g17
F40.51964416685738
sg18
I2
sg19
F-112.15076226431802
sg20
I146
sbsg1973
I49
sg1974
I118
sg1975
I183
sg1976
I01
sg1977
I8057
sg23
I38
sba(iopmop.models.machine
Truck
p2148
(dp2149
g1967
S'TRK39'
p2150
sg1969
I401
sg1970
I390
sg14
(iopmop.models.point
Point
p2151
(dp2152
g17
F40.51290707153489
sg18
I1
sg19
F-112.14024398274228
sg20
I230
sbsg1973
I43
sg1974
I110
sg1975
I170
sg1976
I01
sg1977
I8189
sg23
I39
sba(iopmop.models.machine
Truck
p2153
(dp2154
g1967
S'TRK40'
p2155
sg1969
I295
sg1970
I363
sg14
(iopmop.models.point
Point
p2156
(dp2157
g17
F40.52451305258641
sg18
I1
sg19
F-112.10572931713864
sg20
I209
sbsg1973
I47
sg1974
I91
sg1975
I158
sg1976
I01
sg1977
I8767
sg23
I40
sba(iopmop.models.machine
Truck
p2158
(dp2159
g1967
S'TRK41'
p2160
sg1969
I351
sg1970
I250
sg14
(iopmop.models.point
Point
p2161
(dp2162
g17
F40.521600289092895
sg18
I3
sg19
F-112.15016361369356
sg20
I87
sbsg1973
I46
sg1974
I87
sg1975
I160
sg1976
I01
sg1977
I10670
sg23
I41
sba(iopmop.models.machine
Truck
p2163
(dp2164
g1967
S'TRK42'
p2165
sg1969
I303
sg1970
I398
sg14
g2146
sg1973
I47
sg1974
I101
sg1975
I171
sg1976
I01
sg1977
I8109
sg23
I42
sba(iopmop.models.machine
Truck
p2166
(dp2167
g1967
S'TRK43'
p2168
sg1969
I319
sg1970
I349
sg14
(iopmop.models.point
Point
p2169
(dp2170
g17
F40.523840237856376
sg18
I22
sg19
F-112.15156826920315
sg20
I55
sbsg1973
I40
sg1974
I120
sg1975
I167
sg1976
I01
sg1977
I10096
sg23
I43
sba(iopmop.models.machine
Truck
p2171
(dp2172
g1967
S'TRK44'
p2173
sg1969
I334
sg1970
I262
sg14
(iopmop.models.point
Point
p2174
(dp2175
g17
F40.530417151348395
sg18
I4
sg19
F-112.15297189238458
sg20
I77
sbsg1973
I41
sg1974
I87
sg1975
I177
sg1976
I01
sg1977
I8580
sg23
I44
sba(iopmop.models.machine
Truck
p2176
(dp2177
g1967
S'TRK45'
p2178
sg1969
I322
sg1970
I391
sg14
(iopmop.models.point
Point
p2179
(dp2180
g17
F40.52456587015929
sg18
I4
sg19
F-112.13865073597219
sg20
I192
sbsg1973
I44
sg1974
I91
sg1975
I174
sg1976
I01
sg1977
I8088
sg23
I45
sba(iopmop.models.machine
Truck
p2181
(dp2182
g1967
S'TRK46'
p2183
sg1969
I324
sg1970
I292
sg14
(iopmop.models.point
Point
p2184
(dp2185
g17
F40.51543389498886
sg18
I4
sg19
F-112.13385560637846
sg20
I201
sbsg1973
I41
sg1974
I83
sg1975
I188
sg1976
I01
sg1977
I10598
sg23
I46
sba(iopmop.models.machine
Truck
p2186
(dp2187
g1967
S'TRK47'
p2188
sg1969
I452
sg1970
I366
sg14
g28
sg1973
I50
sg1974
I104
sg1975
I181
sg1976
I01
sg1977
I10582
sg23
I47
sba(iopmop.models.machine
Truck
p2189
(dp2190
g1967
S'TRK48'
p2191
sg1969
I461
sg1970
I299
sg14
(iopmop.models.point
Point
p2192
(dp2193
g17
F40.529357119273065
sg18
I1
sg19
F-112.14197132534787
sg20
I189
sbsg1973
I49
sg1974
I117
sg1975
I175
sg1976
I01
sg1977
I8868
sg23
I48
sba(iopmop.models.machine
Truck
p2194
(dp2195
g1967
S'TRK49'
p2196
sg1969
I292
sg1970
I368
sg14
(iopmop.models.point
Point
p2197
(dp2198
g17
F40.52022072529596
sg18
I5
sg19
F-112.1557085714515
sg20
I109
sbsg1973
I49
sg1974
I81
sg1975
I193
sg1976
I01
sg1977
I9283
sg23
I49
sbasS'locations'
p2199
(lp2200
(iopmop.models.location
Location
p2201
(dp2202
g14
(iopmop.models.point
Point
p2203
(dp2204
g17
F40.51919151519808
sg18
I9
sg19
F-112.14201155848309
sg20
I197
sbsg21
g58
sg23
I0
sg24
S'Site0'
p2205
sbag54
ag778
ag1428
ag1657
ag12
ag26
ag31
ag36
ag41
a(iopmop.models.location
Location
p2206
(dp2207
g14
(iopmop.models.point
Point
p2208
(dp2209
g17
F40.528875990263
sg18
I8
sg19
F-112.13703606076047
sg20
I245
sbsg21
S'fuel'
p2210
sg23
I10
sg24
S'Fuel10'
p2211
sba(iopmop.models.location
Location
p2212
(dp2213
g14
g2161
sg21
g2210
sg23
I11
sg24
S'Fuel11'
p2214
sbas.