(dp0
S'missions'
p1
(lp2
(iopmop.models.mission
Mission
p3
(dp4
S'startDate'
p5
cdatetime
datetime
p6
(S'\x07\xe1\x06\x01\x00\x00\x00\x00\x00\x00'
p7
tp8
Rp9
sS'dumpLocations'
p10
(lp11
(iopmop.models.location
Location
p12
(dp13
S'point'
p14
(iopmop.models.point
Point
p15
(dp16
S'lat'
p17
F40.520529070040396
sS'index'
p18
I6
sS'lng'
p19
F-112.14105938451621
sS'nid'
p20
I136
sbsS'type'
p21
S'dump'
p22
sS'id'
p23
I5
sS'name'
p24
S'Dump5'
p25
sba(iopmop.models.location
Location
p26
(dp27
g14
(iopmop.models.point
Point
p28
(dp29
g17
F40.52345285661486
sg18
I3
sg19
F-112.14888069577023
sg20
I66
sbsg21
g22
sg23
I6
sg24
S'Dump6'
p30
sba(iopmop.models.location
Location
p31
(dp32
g14
(iopmop.models.point
Point
p33
(dp34
g17
F40.519030435813804
sg18
I3
sg19
F-112.15059865197139
sg20
I140
sbsg21
g22
sg23
I7
sg24
S'Dump7'
p35
sba(iopmop.models.location
Location
p36
(dp37
g14
(iopmop.models.point
Point
p38
(dp39
g17
F40.528013668947594
sg18
I2
sg19
F-112.13682424128115
sg20
I151
sbsg21
g22
sg23
I8
sg24
S'Dump8'
p40
sba(iopmop.models.location
Location
p41
(dp42
g14
(iopmop.models.point
Point
p43
(dp44
g17
F40.52359965398034
sg18
I1
sg19
F-112.1546206230621
sg20
I142
sbsg21
g22
sg23
I9
sg24
S'Dump9'
p45
sbasS'endDate'
p46
g6
(S'\x07\xe1\x06\x1e\x00\x00\x00\x00\x00\x00'
p47
tp48
Rp49
sS'target'
p50
I80000
sS'title'
p51
S'Iron min'
p52
sS'digLocation'
p53
(iopmop.models.location
Location
p54
(dp55
g14
(iopmop.models.point
Point
p56
(dp57
g17
F40.523770911584855
sg18
I6
sg19
F-112.14899067669228
sg20
I94
sbsg21
S'dig'
p58
sg23
I1
sg24
S'Site1'
p59
sbsS'schedules'
p60
(lp61
(iopmop.models.schedule
Schedule
p62
(dp63
S'tasks'
p64
(lp65
(iopmop.models.task
DigTask
p66
(dp67
g50
F2758.0
sS'machineId'
p68
I9
sS'comments'
p69
S'None'
p70
sS'actualTarget'
p71
NsS'cost'
p72
NsS'location'
p73
g54
sS'startTime'
p74
g6
(S'\x07\xe1\x06\x01\t\x00\x00\x00\x00\x00'
p75
tp76
Rp77
sS'endTime'
p78
g6
(S'\x07\xe1\x06\x01\x0e\x0b.\x01r\x15'
p79
tp80
Rp81
sg23
S'0-0'
p82
sba(iopmop.models.task
LoadTask
p83
(dp84
g50
F3417.0
sg68
I15
sg69
g70
sg71
Nsg72
Nsg73
g54
sg74
g6
(S'\x07\xe1\x06\x01\t\x00\x00\x00\x00\x00'
p85
tp86
Rp87
sg78
g6
(S'\x07\xe1\x06\x01\r\x06\x00\x00\x00\x00'
p88
tp89
Rp90
sg23
S'0-0'
p91
sba(iopmop.models.task
HaulageTask
p92
(dp93
g72
Nsg50
I452
sg68
I47
sg69
g70
sg71
NsS'dumpLocation'
p94
g31
sg73
g54
sg74
g6
(S'\x07\xe1\x06\x01\t(6\x0en\x0c'
p95
tp96
Rp97
sg78
g6
(S'\x07\xe1\x06\x01\n\x01\x16\x06b\xd2'
p98
tp99
Rp100
sg23
S'0-1'
p101
sba(iopmop.models.task
HaulageTask
p102
(dp103
g72
Nsg50
I382
sg68
I34
sg69
g70
sg71
Nsg94
g31
sg73
g54
sg74
g6
(S'\x07\xe1\x06\x01\n\x06\x05\x04a\x8c'
p104
tp105
Rp106
sg78
g6
(S'\x07\xe1\x06\x01\n\x1c\x07\x00\xc1P'
p107
tp108
Rp109
sg23
S'0-1'
p110
sba(iopmop.models.task
HaulageTask
p111
(dp112
g72
Nsg50
I351
sg68
I41
sg69
g70
sg71
Nsg94
g31
sg73
g54
sg74
g6
(S'\x07\xe1\x06\x01\n-\x11\x06\xbe6'
p113
tp114
Rp115
sg78
g6
(S'\x07\xe1\x06\x01\x0b\x06\x14\x0e1\xf4'
p116
tp117
Rp118
sg23
S'0-1'
p119
sba(iopmop.models.task
HaulageTask
p120
(dp121
g72
Nsg50
I385
sg68
I25
sg69
g70
sg71
Nsg94
g31
sg73
g54
sg74
g6
(S'\x07\xe1\x06\x01\x0b\x06)\x0e*\xb0'
p122
tp123
Rp124
sg78
g6
(S'\x07\xe1\x06\x01\x0b\x1b0\r\xfc\x18'
p125
tp126
Rp127
sg23
S'0-1'
p128
sba(iopmop.models.task
HaulageTask
p129
(dp130
g72
Nsg50
I442
sg68
I28
sg69
g70
sg71
Nsg94
g31
sg73
g54
sg74
g6
(S'\x07\xe1\x06\x01\x0b#\t\x0c,\x0b'
p131
tp132
Rp133
sg78
g6
(S'\x07\xe1\x06\x01\x0b9\x13\x0b\xbb('
p134
tp135
Rp136
sg23
S'0-1'
p137
sba(iopmop.models.task
HaulageTask
p138
(dp139
g72
Nsg50
I452
sg68
I47
sg69
g70
sg71
Nsg94
g31
sg73
g54
sg74
g6
(S'\x07\xe1\x06\x01\x0c\x04\x07\x03\xe66'
p140
tp141
Rp142
sg78
g6
(S'\x07\xe1\x06\x01\x0c\x18"\x0b\x1d<'
p143
tp144
Rp145
sg23
S'0-1'
p146
sba(iopmop.models.task
HaulageTask
p147
(dp148
g72
Nsg50
I382
sg68
I34
sg69
g70
sg71
Nsg94
g31
sg73
g54
sg74
g6
(S'\x07\xe1\x06\x01\x0c(\x11\t\x84h'
p149
tp150
Rp151
sg78
g6
(S'\x07\xe1\x06\x01\r\x02\x13\x05\xe4,'
p152
tp153
Rp154
sg23
S'0-1'
p155
sbasg50
I2758
sS'remainingDig'
p156
F0.0
sS'mission'
p157
g3
sS'remainingLoad'
p158
F-659.0
sS'date'
p159
g6
(S'\x07\xe1\x06\x01\x00\x00\x00\x00\x00\x00'
p160
tp161
Rp162
sS'allocated'
p163
I01
sS'remainingHaulage'
p164
F-88.0
sg23
I0
sba(iopmop.models.schedule
Schedule
p165
(dp166
g64
(lp167
(iopmop.models.task
DigTask
p168
(dp169
g50
F2758.0
sg68
I9
sg69
g70
sg71
Nsg72
Nsg73
g54
sg74
g6
(S'\x07\xe1\x06\x02\t\x00\x00\x00\x00\x00'
p170
tp171
Rp172
sg78
g6
(S'\x07\xe1\x06\x02\x0e\x0b.\x01r\x15'
p173
tp174
Rp175
sg23
S'1-0'
p176
sba(iopmop.models.task
LoadTask
p177
(dp178
g50
F3417.0
sg68
I15
sg69
g70
sg71
Nsg72
Nsg73
g54
sg74
g6
(S'\x07\xe1\x06\x02\t\x00\x00\x00\x00\x00'
p179
tp180
Rp181
sg78
g6
(S'\x07\xe1\x06\x02\r\x06\x00\x00\x00\x00'
p182
tp183
Rp184
sg23
S'1-0'
p185
sba(iopmop.models.task
HaulageTask
p186
(dp187
g72
Nsg50
I351
sg68
I41
sg69
g70
sg71
Nsg94
g31
sg73
g54
sg74
g6
(S'\x07\xe1\x06\x02\t*\x06\x0e\xe7|'
p188
tp189
Rp190
sg78
g6
(S'\x07\xe1\x06\x02\n\x03\n\x07\x18\xfa'
p191
tp192
Rp193
sg23
S'1-1'
p194
sba(iopmop.models.task
HaulageTask
p195
(dp196
g72
Nsg50
I385
sg68
I25
sg69
g70
sg71
Nsg94
g31
sg73
g54
sg74
g6
(S'\x07\xe1\x06\x02\n\x03\x14\x0e\xb6x'
p197
tp198
Rp199
sg78
g6
(S'\x07\xe1\x06\x02\n\x18\x1b\x0e\x87\xe0'
p200
tp201
Rp202
sg23
S'1-1'
p203
sba(iopmop.models.task
HaulageTask
p204
(dp205
g72
Nsg50
I452
sg68
I47
sg69
g70
sg71
Nsg94
g31
sg73
g54
sg74
g6
(S'\x07\xe1\x06\x02\n*\x11\x05\x8e\x9e'
p206
tp207
Rp208
sg78
g6
(S'\x07\xe1\x06\x02\x0b\x02,\x0c\xc5\xa4'
p209
tp210
Rp211
sg23
S'1-1'
p212
sba(iopmop.models.task
HaulageTask
p213
(dp214
g72
Nsg50
I351
sg68
I41
sg69
g70
sg71
Nsg94
g31
sg73
g54
sg74
g6
(S'\x07\xe1\x06\x02\x0b\x06\x14\x0e1\xf4'
p215
tp216
Rp217
sg78
g6
(S'\x07\xe1\x06\x02\x0b\x1b\x18\x06cr'
p218
tp219
Rp220
sg23
S'1-1'
p221
sba(iopmop.models.task
HaulageTask
p222
(dp223
g72
Nsg50
I385
sg68
I25
sg69
g70
sg71
Nsg94
g31
sg73
g54
sg74
g6
(S'\x07\xe1\x06\x02\x0b\x1b0\r\xfc\x18'
p224
tp225
Rp226
sg78
g6
(S'\x07\xe1\x06\x02\x0b07\r\xcd\x80'
p227
tp228
Rp229
sg23
S'1-1'
p230
sba(iopmop.models.task
HaulageTask
p231
(dp232
g72
Nsg50
I442
sg68
I28
sg69
g70
sg71
Nsg94
g31
sg73
g54
sg74
g6
(S'\x07\xe1\x06\x02\x0b9\x13\x0b\xbb('
p233
tp234
Rp235
sg78
g6
(S'\x07\xe1\x06\x02\x0c\x13\x1d\x0bJE'
p236
tp237
Rp238
sg23
S'1-1'
p239
sba(iopmop.models.task
HaulageTask
p240
(dp241
g72
Nsg50
I452
sg68
I47
sg69
g70
sg71
Nsg94
g31
sg73
g54
sg74
g6
(S'\x07\xe1\x06\x02\x0c\x18"\x0b\x1d<'
p242
tp243
Rp244
sg78
g6
(S'\x07\xe1\x06\x02\x0c-\x02\x03\x12\x02'
p245
tp246
Rp247
sg23
S'1-1'
p248
sbasg50
I2758
sg156
F0.0
sg157
g3
sg158
F-659.0
sg159
g6
(S'\x07\xe1\x06\x02\x00\x00\x00\x00\x00\x00'
p249
tp250
Rp251
sg163
I01
sg164
F-60.0
sg23
I1
sba(iopmop.models.schedule
Schedule
p252
(dp253
g64
(lp254
(iopmop.models.task
DigTask
p255
(dp256
g50
F2758.0
sg68
I9
sg69
S'None'
p257
sg71
Nsg72
Nsg73
g54
sg74
g6
(S'\x07\xe1\x06\x03\t\x00\x00\x00\x00\x00'
p258
tp259
Rp260
sg78
g6
(S'\x07\xe1\x06\x03\x0e\x0b.\x01r\x15'
p261
tp262
Rp263
sg23
S'2-0'
p264
sba(iopmop.models.task
LoadTask
p265
(dp266
g50
F3234.0
sg68
I13
sg69
g257
sg71
Nsg72
Nsg73
g54
sg74
g6
(S'\x07\xe1\x06\x03\t\x00\x00\x00\x00\x00'
p267
tp268
Rp269
sg78
g6
(S'\x07\xe1\x06\x03\x0e$\x00\x00\x00\x00'
p270
tp271
Rp272
sg23
S'2-0'
p273
sba(iopmop.models.task
HaulageTask
p274
(dp275
g72
Nsg50
I385
sg68
I25
sg69
g257
sg71
Nsg94
g31
sg73
g54
sg74
g6
(S'\x07\xe1\x06\x03\t*\r\x0e\xe5\x10'
p276
tp277
Rp278
sg78
g6
(S'\x07\xe1\x06\x03\n\x03\x14\x0e\xb6x'
p279
tp280
Rp281
sg23
S'2-1'
p282
sba(iopmop.models.task
HaulageTask
p283
(dp284
g72
Nsg50
I490
sg68
I35
sg69
g257
sg71
Nsg94
g31
sg73
g54
sg74
g6
(S'\x07\xe1\x06\x03\n2#\r\xee\xe5'
p285
tp286
Rp287
sg78
g6
(S'\x07\xe1\x06\x03\x0b\x0c+\x01v\x06'
p288
tp289
Rp290
sg23
S'2-1'
p291
sba(iopmop.models.task
HaulageTask
p292
(dp293
g72
Nsg50
I399
sg68
I31
sg69
g257
sg71
Nsg94
g31
sg73
g54
sg74
g6
(S'\x07\xe1\x06\x03\n\x1c\t\x03|\xf0'
p294
tp295
Rp296
sg78
g6
(S'\x07\xe1\x06\x03\n2\x0b\x08,\xbc'
p297
tp298
Rp299
sg23
S'2-1'
p300
sba(iopmop.models.task
HaulageTask
p301
(dp302
g72
Nsg50
I442
sg68
I28
sg69
g257
sg71
Nsg94
g31
sg73
g54
sg74
g6
(S'\x07\xe1\x06\x03\x0c\x13\x1d\x0bJE'
p303
tp304
Rp305
sg78
g6
(S"\x07\xe1\x06\x03\x0c)'\n\xd9b"
p306
tp307
Rp308
sg23
S'2-1'
p309
sba(iopmop.models.task
HaulageTask
p310
(dp311
g72
Nsg50
I474
sg68
I22
sg69
g257
sg71
Nsg94
g31
sg73
g54
sg74
g6
(S'\x07\xe1\x06\x03\r\x05%\x06\x8a\xe0'
p312
tp313
Rp314
sg78
g6
(S'\x07\xe1\x06\x03\r\x1a\x05\x08[\xf8'
p315
tp316
Rp317
sg23
S'2-1'
p318
sba(iopmop.models.task
HaulageTask
p319
(dp320
g72
Nsg50
I257
sg68
I20
sg69
g257
sg71
Nsg94
g31
sg73
g54
sg74
g6
(S'\x07\xe1\x06\x03\x0b2\x11\x03{\xa8'
p321
tp322
Rp323
sg78
g6
(S'\x07\xe1\x06\x03\x0c\x0b"\x05\xd3e'
p324
tp325
Rp326
sg23
S'2-1'
p327
sba(iopmop.models.task
HaulageTask
p328
(dp329
g72
Nsg50
I356
sg68
I29
sg69
g257
sg71
Nsg94
g31
sg73
g54
sg74
g6
(S'\x07\xe1\x06\x03\x0e\x07\n\x05\x8d\xbe'
p330
tp331
Rp332
sg78
g6
(S'\x07\xe1\x06\x03\x0e\x1d\x06\x0c}g'
p333
tp334
Rp335
sg23
S'2-1'
p336
sbasg50
I2758
sg156
F0.0
sg157
g3
sg158
F-476.0
sg159
g6
(S'\x07\xe1\x06\x03\x00\x00\x00\x00\x00\x00'
p337
tp338
Rp339
sg163
I01
sg164
F-45.0
sg23
I2
sba(iopmop.models.schedule
Schedule
p340
(dp341
g64
(lp342
(iopmop.models.task
DigTask
p343
(dp344
g50
F2758.0
sg68
I9
sg69
S'None'
p345
sg71
Nsg72
Nsg73
g54
sg74
g6
(S'\x07\xe1\x06\x04\t\x00\x00\x00\x00\x00'
p346
tp347
Rp348
sg78
g6
(S'\x07\xe1\x06\x04\x0e\x0b.\x01r\x15'
p349
tp350
Rp351
sg23
S'3-0'
p352
sba(iopmop.models.task
LoadTask
p353
(dp354
g50
F3417.0
sg68
I15
sg69
g345
sg71
Nsg72
Nsg73
g54
sg74
g6
(S'\x07\xe1\x06\x04\t\x00\x00\x00\x00\x00'
p355
tp356
Rp357
sg78
g6
(S'\x07\xe1\x06\x04\r\x06\x00\x00\x00\x00'
p358
tp359
Rp360
sg23
S'3-0'
p361
sba(iopmop.models.task
HaulageTask
p362
(dp363
g50
I252
sg68
I37
sg69
g345
sg94
g31
sg71
Nsg72
Nsg73
g54
sg74
g6
(S'\x07\xe1\x06\x04\t\x15\x16\x06s\x04'
p364
tp365
Rp366
sg78
g6
(S'\x07\xe1\x06\x04\t*,\x0c\xe6\x08'
p367
tp368
Rp369
sg23
S'3-1'
p370
sba(iopmop.models.task
HaulageTask
p371
(dp372
g50
I452
sg68
I47
sg69
g345
sg94
g31
sg71
Nsg72
Nsg73
g54
sg74
g6
(S'\x07\xe1\x06\x04\n\x01\x16\x06b\xd2'
p373
tp374
Rp375
sg78
g6
(S'\x07\xe1\x06\x04\n\x151\r\x99\xd8'
p376
tp377
Rp378
sg23
S'3-1'
p379
sba(iopmop.models.task
HaulageTask
p380
(dp381
g50
I319
sg68
I43
sg69
g345
sg94
g31
sg71
Nsg72
Nsg73
g54
sg74
g6
(S'\x07\xe1\x06\x04\n\x1b3\r#\x18'
p382
tp383
Rp384
sg78
g6
(S'\x07\xe1\x06\x04\n11\x0c\x9bN'
p385
tp386
Rp387
sg23
S'3-1'
p388
sba(iopmop.models.task
HaulageTask
p389
(dp390
g50
I303
sg68
I42
sg69
g345
sg94
g31
sg71
Nsg72
Nsg73
g54
sg74
g6
(S'\x07\xe1\x06\x04\x0b\x08\x01\rP\x0e'
p391
tp392
Rp393
sg78
g6
(S'\x07\xe1\x06\x04\x0b\x1d\x16\x02\xd0\xdb'
p394
tp395
Rp396
sg23
S'3-1'
p397
sba(iopmop.models.task
HaulageTask
p398
(dp399
g50
I334
sg68
I44
sg69
g345
sg94
g31
sg71
Nsg72
Nsg73
g54
sg74
g6
(S'\x07\xe1\x06\x04\x0b#\x04\x0b\xeb\x8f'
p400
tp401
Rp402
sg78
g6
(S'\x07\xe1\x06\x04\x0b9\x0e\x00\x8bH'
p403
tp404
Rp405
sg23
S'3-1'
p406
sba(iopmop.models.task
HaulageTask
p407
(dp408
g50
I342
sg68
I38
sg69
g345
sg94
g31
sg71
Nsg72
Nsg73
g54
sg74
g6
(S'\x07\xe1\x06\x04\x0c\x06\x1a\t\xdf\x99'
p409
tp410
Rp411
sg78
g6
(S'\x07\xe1\x06\x04\x0c\x1b\t\tFj'
p412
tp413
Rp414
sg23
S'3-1'
p415
sba(iopmop.models.task
HaulageTask
p416
(dp417
g50
I382
sg68
I34
sg69
g345
sg94
g31
sg71
Nsg72
Nsg73
g54
sg74
g6
(S'\x07\xe1\x06\x04\x0c(\x11\t\x84h'
p418
tp419
Rp420
sg78
g6
(S'\x07\xe1\x06\x04\r\x02\x13\x05\xe4,'
p421
tp422
Rp423
sg23
S'3-1'
p424
sba(iopmop.models.task
HaulageTask
p425
(dp426
g50
I316
sg68
I36
sg69
g345
sg94
g31
sg71
Nsg72
Nsg73
g54
sg74
g6
(S'\x07\xe1\x06\x04\r\x03\n\x0e\x9d\x0f'
p427
tp428
Rp429
sg78
g6
(S'\x07\xe1\x06\x04\r\x19\x11\x06;\\'
p430
tp431
Rp432
sg23
S'3-1'
p433
sba(iopmop.models.task
HaulageTask
p434
(dp435
g50
I315
sg68
I30
sg69
g345
sg94
g31
sg71
Nsg72
Nsg73
g54
sg74
g6
(S'\x07\xe1\x06\x04\r,\n\x0b\x80\xd4'
p436
tp437
Rp438
sg78
g6
(S'\x07\xe1\x06\x04\x0e\x06\x02\x05Xx'
p439
tp440
Rp441
sg23
S'3-1'
p442
sbasg50
I2758
sg156
F0.0
sg157
g3
sg158
F-659.0
sg159
g6
(S'\x07\xe1\x06\x04\x00\x00\x00\x00\x00\x00'
p443
tp444
Rp445
sg163
I01
sg164
F-257.0
sg23
I3
sba(iopmop.models.schedule
Schedule
p446
(dp447
g64
(lp448
sg50
I2758
sg156
I2758
sg157
g3
sg158
I2758
sg159
g6
(S'\x07\xe1\x06\x05\x00\x00\x00\x00\x00\x00'
p449
tp450
Rp451
sg163
I00
sg164
I2758
sg23
I4
sba(iopmop.models.schedule
Schedule
p452
(dp453
g64
(lp454
sg50
I2758
sg156
I2758
sg157
g3
sg158
I2758
sg159
g6
(S'\x07\xe1\x06\x06\x00\x00\x00\x00\x00\x00'
p455
tp456
Rp457
sg163
I00
sg164
I2758
sg23
I5
sba(iopmop.models.schedule
Schedule
p458
(dp459
g64
(lp460
sg50
I2758
sg156
I2758
sg157
g3
sg158
I2758
sg159
g6
(S'\x07\xe1\x06\x07\x00\x00\x00\x00\x00\x00'
p461
tp462
Rp463
sg163
I00
sg164
I2758
sg23
I6
sba(iopmop.models.schedule
Schedule
p464
(dp465
g64
(lp466
sg50
I2758
sg156
I2758
sg157
g3
sg158
I2758
sg159
g6
(S'\x07\xe1\x06\x08\x00\x00\x00\x00\x00\x00'
p467
tp468
Rp469
sg163
I00
sg164
I2758
sg23
I7
sba(iopmop.models.schedule
Schedule
p470
(dp471
g64
(lp472
sg50
I2758
sg156
I2758
sg157
g3
sg158
I2758
sg159
g6
(S'\x07\xe1\x06\t\x00\x00\x00\x00\x00\x00'
p473
tp474
Rp475
sg163
I00
sg164
I2758
sg23
I8
sba(iopmop.models.schedule
Schedule
p476
(dp477
g64
(lp478
(iopmop.models.task
DigTask
p479
(dp480
g50
F2758.0
sg68
I9
sg69
S'None'
p481
sg71
Nsg72
Nsg73
g54
sg74
g6
(S'\x07\xe1\x06\n\t\x00\x00\x00\x00\x00'
p482
tp483
Rp484
sg78
g6
(S'\x07\xe1\x06\n\x0e\x0b.\x01r\x15'
p485
tp486
Rp487
sg23
S'9-0'
p488
sba(iopmop.models.task
LoadTask
p489
(dp490
g50
F3417.0
sg68
I15
sg69
g481
sg71
Nsg72
Nsg73
g54
sg74
g6
(S'\x07\xe1\x06\n\t\x00\x00\x00\x00\x00'
p491
tp492
Rp493
sg78
g6
(S'\x07\xe1\x06\n\r\x06\x00\x00\x00\x00'
p494
tp495
Rp496
sg23
S'9-0'
p497
sba(iopmop.models.task
HaulageTask
p498
(dp499
g72
Nsg50
I442
sg68
I28
sg69
g481
sg71
Nsg94
g31
sg73
g54
sg74
g6
(S'\x07\xe1\x06\n\t,\x13\x0e`z'
p500
tp501
Rp502
sg78
g6
(S'\x07\xe1\x06\n\n\x06\x1d\r\xef\x97'
p503
tp504
Rp505
sg23
S'9-1'
p506
sba(iopmop.models.task
HaulageTask
p507
(dp508
g72
Nsg50
I452
sg68
I47
sg69
g481
sg71
Nsg94
g31
sg73
g54
sg74
g6
(S'\x07\xe1\x06\n\n\x151\r\x99\xd8'
p509
tp510
Rp511
sg78
g6
(S'\x07\xe1\x06\n\n*\x11\x05\x8e\x9e'
p512
tp513
Rp514
sg23
S'9-1'
p515
sba(iopmop.models.task
HaulageTask
p516
(dp517
g72
Nsg50
I319
sg68
I43
sg69
g481
sg71
Nsg94
g31
sg73
g54
sg74
g6
(S'\x07\xe1\x06\n\n11\x0c\x9bN'
p518
tp519
Rp520
sg78
g6
(S'\x07\xe1\x06\n\x0b\x0b/\x0c\x13\x84'
p521
tp522
Rp523
sg23
S'9-1'
p524
sba(iopmop.models.task
HaulageTask
p525
(dp526
g72
Nsg50
I382
sg68
I34
sg69
g481
sg71
Nsg94
g31
sg73
g54
sg74
g6
(S'\x07\xe1\x06\n\x0b\x0c\n\x08\xc3\x18'
p527
tp528
Rp529
sg78
g6
(S'\x07\xe1\x06\n\x0b"\x0c\x05"\xdc'
p530
tp531
Rp532
sg23
S'9-1'
p533
sba(iopmop.models.task
HaulageTask
p534
(dp535
g72
Nsg50
I316
sg68
I36
sg69
g481
sg71
Nsg94
g31
sg73
g54
sg74
g6
(S'\x07\xe1\x06\n\x0b"-\x02]\x1b'
p536
tp537
Rp538
sg78
g6
(S'\x07\xe1\x06\n\x0b83\t=\xa8'
p539
tp540
Rp541
sg23
S'9-1'
p542
sba(iopmop.models.task
HaulageTask
p543
(dp544
g72
Nsg50
I315
sg68
I30
sg69
g481
sg71
Nsg94
g31
sg73
g54
sg74
g6
(S'\x07\xe1\x06\n\x0c\x10,\x05\x9d\xc4'
p545
tp546
Rp547
sg78
g6
(S'\x07\xe1\x06\n\x0c&#\x0e\xb7\xa8'
p548
tp549
Rp550
sg23
S'9-1'
p551
sba(iopmop.models.task
HaulageTask
p552
(dp553
g72
Nsg50
I296
sg68
I23
sg69
g481
sg71
Nsg94
g31
sg73
g54
sg74
g6
(S'\x07\xe1\x06\n\x0c3\x08\x02\xaeO'
p554
tp555
Rp556
sg78
g6
(S'\x07\xe1\x06\n\r\x0c\x08\x0e\x05\x9c'
p557
tp558
Rp559
sg23
S'9-1'
p560
sba(iopmop.models.task
HaulageTask
p561
(dp562
g72
Nsg50
I351
sg68
I41
sg69
g481
sg71
Nsg94
g31
sg73
g54
sg74
g6
(S'\x07\xe1\x06\n\r\x0c)\r!\xa8'
p563
tp564
Rp565
sg78
g6
(S'\x07\xe1\x06\n\r!-\x05S&'
p566
tp567
Rp568
sg23
S'9-1'
p569
sbasg50
I2758
sg156
F0.0
sg157
g3
sg158
F-659.0
sg159
g6
(S'\x07\xe1\x06\n\x00\x00\x00\x00\x00\x00'
p570
tp571
Rp572
sg163
I01
sg164
F-115.0
sg23
I9
sba(iopmop.models.schedule
Schedule
p573
(dp574
g64
(lp575
sg50
I2758
sg156
I2758
sg157
g3
sg158
I2758
sg159
g6
(S'\x07\xe1\x06\x0b\x00\x00\x00\x00\x00\x00'
p576
tp577
Rp578
sg163
I00
sg164
I2758
sg23
I10
sba(iopmop.models.schedule
Schedule
p579
(dp580
g64
(lp581
sg50
I2758
sg156
I2758
sg157
g3
sg158
I2758
sg159
g6
(S'\x07\xe1\x06\x0c\x00\x00\x00\x00\x00\x00'
p582
tp583
Rp584
sg163
I00
sg164
I2758
sg23
I11
sba(iopmop.models.schedule
Schedule
p585
(dp586
g64
(lp587
sg50
I2758
sg156
I2758
sg157
g3
sg158
I2758
sg159
g6
(S'\x07\xe1\x06\r\x00\x00\x00\x00\x00\x00'
p588
tp589
Rp590
sg163
I00
sg164
I2758
sg23
I12
sba(iopmop.models.schedule
Schedule
p591
(dp592
g64
(lp593
sg50
I2758
sg156
I2758
sg157
g3
sg158
I2758
sg159
g6
(S'\x07\xe1\x06\x0e\x00\x00\x00\x00\x00\x00'
p594
tp595
Rp596
sg163
I00
sg164
I2758
sg23
I13
sba(iopmop.models.schedule
Schedule
p597
(dp598
g64
(lp599
sg50
I2758
sg156
I2758
sg157
g3
sg158
I2758
sg159
g6
(S'\x07\xe1\x06\x0f\x00\x00\x00\x00\x00\x00'
p600
tp601
Rp602
sg163
I00
sg164
I2758
sg23
I14
sba(iopmop.models.schedule
Schedule
p603
(dp604
g64
(lp605
sg50
I2758
sg156
I2758
sg157
g3
sg158
I2758
sg159
g6
(S'\x07\xe1\x06\x10\x00\x00\x00\x00\x00\x00'
p606
tp607
Rp608
sg163
I00
sg164
I2758
sg23
I15
sba(iopmop.models.schedule
Schedule
p609
(dp610
g64
(lp611
sg50
I2758
sg156
I2758
sg157
g3
sg158
I2758
sg159
g6
(S'\x07\xe1\x06\x11\x00\x00\x00\x00\x00\x00'
p612
tp613
Rp614
sg163
I00
sg164
I2758
sg23
I16
sba(iopmop.models.schedule
Schedule
p615
(dp616
g64
(lp617
(iopmop.models.task
DigTask
p618
(dp619
g50
F2758.0
sg68
I9
sg69
g481
sg71
Nsg72
Nsg73
g54
sg74
g6
(S'\x07\xe1\x06\x12\t\x00\x00\x00\x00\x00'
p620
tp621
Rp622
sg78
g6
(S'\x07\xe1\x06\x12\x0e\x0b.\x01r\x15'
p623
tp624
Rp625
sg23
S'17-0'
p626
sba(iopmop.models.task
LoadTask
p627
(dp628
g50
F3417.0
sg68
I15
sg69
g481
sg71
Nsg72
Nsg73
g54
sg74
g6
(S'\x07\xe1\x06\x12\t\x00\x00\x00\x00\x00'
p629
tp630
Rp631
sg78
g6
(S'\x07\xe1\x06\x12\r\x06\x00\x00\x00\x00'
p632
tp633
Rp634
sg23
S'17-0'
p635
sba(iopmop.models.task
HaulageTask
p636
(dp637
g72
Nsg50
I382
sg68
I34
sg69
g481
sg71
Nsg94
g31
sg73
g54
sg74
g6
(S'\x07\xe1\x06\x12\t,\x03\x08\x01\xc8'
p638
tp639
Rp640
sg78
g6
(S'\x07\xe1\x06\x12\n\x06\x05\x04a\x8c'
p641
tp642
Rp643
sg23
S'17-1'
p644
sba(iopmop.models.task
HaulageTask
p645
(dp646
g72
Nsg50
I385
sg68
I25
sg69
g481
sg71
Nsg94
g31
sg73
g54
sg74
g6
(S'\x07\xe1\x06\x12\n\x18\x1b\x0e\x87\xe0'
p647
tp648
Rp649
sg78
g6
(S'\x07\xe1\x06\x12\n-"\x0eYH'
p650
tp651
Rp652
sg23
S'17-1'
p653
sba(iopmop.models.task
HaulageTask
p654
(dp655
g72
Nsg50
I442
sg68
I28
sg69
g481
sg71
Nsg94
g31
sg73
g54
sg74
g6
(S'\x07\xe1\x06\x12\n21\r\r\xd1'
p656
tp657
Rp658
sg78
g6
(S'\x07\xe1\x06\x12\x0b\x0c;\x0c\x9c\xee'
p659
tp660
Rp661
sg23
S'17-1'
p662
sba(iopmop.models.task
HaulageTask
p663
(dp664
g72
Nsg50
I452
sg68
I47
sg69
g481
sg71
Nsg94
g31
sg73
g54
sg74
g6
(S'\x07\xe1\x06\x12\x0b\x17\x0c\x04\xbaj'
p665
tp666
Rp667
sg78
g6
(S"\x07\xe1\x06\x12\x0b+'\x0b\xf1p"
p668
tp669
Rp670
sg23
S'17-1'
p671
sba(iopmop.models.task
HaulageTask
p672
(dp673
g72
Nsg50
I319
sg68
I43
sg69
g481
sg71
Nsg94
g31
sg73
g54
sg74
g6
(S'\x07\xe1\x06\x12\x0b7+\x0b\x03\xf0'
p674
tp675
Rp676
sg78
g6
(S'\x07\xe1\x06\x12\x0c\x11)\n|&'
p677
tp678
Rp679
sg23
S'17-1'
p680
sba(iopmop.models.task
HaulageTask
p681
(dp682
g72
Nsg50
I382
sg68
I34
sg69
g481
sg71
Nsg94
g31
sg73
g54
sg74
g6
(S'\x07\xe1\x06\x12\x0c\x12\x0f\r$\xa4'
p683
tp684
Rp685
sg78
g6
(S'\x07\xe1\x06\x12\x0c(\x11\t\x84h'
p686
tp687
Rp688
sg23
S'17-1'
p689
sba(iopmop.models.task
HaulageTask
p690
(dp691
g72
Nsg50
I351
sg68
I41
sg69
g481
sg71
Nsg94
g31
sg73
g54
sg74
g6
(S'\x07\xe1\x06\x12\x0c3&\x05\xad\xea'
p692
tp693
Rp694
sg78
g6
(S'\x07\xe1\x06\x12\r\x0c)\r!\xa8'
p695
tp696
Rp697
sg23
S'17-1'
p698
sba(iopmop.models.task
HaulageTask
p699
(dp700
g72
Nsg50
I385
sg68
I25
sg69
g481
sg71
Nsg94
g31
sg73
g54
sg74
g6
(S'\x07\xe1\x06\x12\r\r\x17\r\x13 '
p701
tp702
Rp703
sg78
g6
(S'\x07\xe1\x06\x12\r"\x1e\x0c\xe4\x88'
p704
tp705
Rp706
sg23
S'17-1'
p707
sbasg50
I2758
sg156
F0.0
sg157
g3
sg158
F-659.0
sg159
g6
(S'\x07\xe1\x06\x12\x00\x00\x00\x00\x00\x00'
p708
tp709
Rp710
sg163
I01
sg164
F-340.0
sg23
I17
sba(iopmop.models.schedule
Schedule
p711
(dp712
g64
(lp713
sg50
I2758
sg156
I2758
sg157
g3
sg158
I2758
sg159
g6
(S'\x07\xe1\x06\x13\x00\x00\x00\x00\x00\x00'
p714
tp715
Rp716
sg163
I00
sg164
I2758
sg23
I18
sba(iopmop.models.schedule
Schedule
p717
(dp718
g64
(lp719
sg50
I2758
sg156
I2758
sg157
g3
sg158
I2758
sg159
g6
(S'\x07\xe1\x06\x14\x00\x00\x00\x00\x00\x00'
p720
tp721
Rp722
sg163
I00
sg164
I2758
sg23
I19
sba(iopmop.models.schedule
Schedule
p723
(dp724
g64
(lp725
sg50
I2758
sg156
I2758
sg157
g3
sg158
I2758
sg159
g6
(S'\x07\xe1\x06\x15\x00\x00\x00\x00\x00\x00'
p726
tp727
Rp728
sg163
I00
sg164
I2758
sg23
I20
sba(iopmop.models.schedule
Schedule
p729
(dp730
g64
(lp731
sg50
I2758
sg156
I2758
sg157
g3
sg158
I2758
sg159
g6
(S'\x07\xe1\x06\x16\x00\x00\x00\x00\x00\x00'
p732
tp733
Rp734
sg163
I00
sg164
I2758
sg23
I21
sba(iopmop.models.schedule
Schedule
p735
(dp736
g64
(lp737
sg50
I2758
sg156
I2758
sg157
g3
sg158
I2758
sg159
g6
(S'\x07\xe1\x06\x17\x00\x00\x00\x00\x00\x00'
p738
tp739
Rp740
sg163
I00
sg164
I2758
sg23
I22
sba(iopmop.models.schedule
Schedule
p741
(dp742
g64
(lp743
sg50
I2758
sg156
I2758
sg157
g3
sg158
I2758
sg159
g6
(S'\x07\xe1\x06\x18\x00\x00\x00\x00\x00\x00'
p744
tp745
Rp746
sg163
I00
sg164
I2758
sg23
I23
sba(iopmop.models.schedule
Schedule
p747
(dp748
g64
(lp749
sg50
I2758
sg156
I2758
sg157
g3
sg158
I2758
sg159
g6
(S'\x07\xe1\x06\x19\x00\x00\x00\x00\x00\x00'
p750
tp751
Rp752
sg163
I00
sg164
I2758
sg23
I24
sba(iopmop.models.schedule
Schedule
p753
(dp754
g64
(lp755
(iopmop.models.task
DigTask
p756
(dp757
g50
F2400.0
sg68
I6
sg69
g481
sg71
Nsg72
Nsg73
g54
sg74
g6
(S'\x07\xe1\x06\x1a\t\x00\x00\x00\x00\x00'
p758
tp759
Rp760
sg78
g6
(S'\x07\xe1\x06\x1a\x11\x00\x00\x00\x00\x00'
p761
tp762
Rp763
sg23
S'25-0'
p764
sba(iopmop.models.task
DigTask
p765
(dp766
g50
F358.0
sg68
I9
sg69
g481
sg71
Nsg72
Nsg73
g54
sg74
g6
(S'\x07\xe1\x06\x1a\x0c!\x02\x0c\\\xa6'
p767
tp768
Rp769
sg78
g6
(S"\x07\xe1\x06\x1a\r\x0f'\x05\xad\xd4"
p770
tp771
Rp772
sg23
S'25-0'
p773
sba(iopmop.models.task
LoadTask
p774
(dp775
g50
F3417.0
sg68
I15
sg69
g481
sg71
Nsg72
Nsg73
g54
sg74
g6
(S'\x07\xe1\x06\x1a\r\x06\x00\x00\x00\x00'
p776
tp777
Rp778
sg78
g6
(S'\x07\xe1\x06\x1a\x11\x0c\x00\x00\x00\x00'
p779
tp780
Rp781
sg23
S'25-0'
p782
sba(iopmop.models.task
HaulageTask
p783
(dp784
g72
Nsg50
I442
sg68
I28
sg69
g481
sg71
Nsg94
g31
sg73
g54
sg74
g6
(S'\x07\xe1\x06\x1a\r0\t\t\x86\xb9'
p785
tp786
Rp787
sg78
g6
(S'\x07\xe1\x06\x1a\x0e\n\x13\t\x15\xd6'
p788
tp789
Rp790
sg23
S'25-1'
p791
sba(iopmop.models.task
HaulageTask
p792
(dp793
g72
Nsg50
I319
sg68
I43
sg69
g481
sg71
Nsg94
g31
sg73
g54
sg74
g6
(S'\x07\xe1\x06\x1a\x0e\x1d\x1d\x07Mj'
p794
tp795
Rp796
sg78
g6
(S'\x07\xe1\x06\x1a\x0e3\x1b\x06\xc5\xa0'
p797
tp798
Rp799
sg23
S'25-1'
p800
sba(iopmop.models.task
HaulageTask
p801
(dp802
g72
Nsg50
I382
sg68
I34
sg69
g481
sg71
Nsg94
g31
sg73
g54
sg74
g6
(S'\x07\xe1\x06\x1a\x0e4\x1c\x03\x05@'
p803
tp804
Rp805
sg78
g6
(S'\x07\xe1\x06\x1a\x0f\x0e\x1d\x0e\xa7D'
p806
tp807
Rp808
sg23
S'25-1'
p809
sba(iopmop.models.task
HaulageTask
p810
(dp811
g72
Nsg50
I315
sg68
I30
sg69
g481
sg71
Nsg94
g31
sg73
g54
sg74
g6
(S'\x07\xe1\x06\x1a\x0f!\x1c\x0b;\x88'
p812
tp813
Rp814
sg78
g6
(S'\x07\xe1\x06\x1a\x0f7\x14\x05\x13,'
p815
tp816
Rp817
sg23
S'25-1'
p818
sba(iopmop.models.task
HaulageTask
p819
(dp820
g72
Nsg50
I490
sg68
I35
sg69
g481
sg71
Nsg94
g31
sg73
g54
sg74
g6
(S'\x07\xe1\x06\x1a\x10\x00\x10\x07+s'
p821
tp822
Rp823
sg78
g6
(S'\x07\xe1\x06\x1a\x10\x16\x17\t\xf4\xd4'
p824
tp825
Rp826
sg23
S'25-1'
p827
sba(iopmop.models.task
HaulageTask
p828
(dp829
g72
Nsg50
I399
sg68
I31
sg69
g481
sg71
Nsg94
g31
sg73
g54
sg74
g6
(S'\x07\xe1\x06\x1a\x10*0\x06\xde<'
p830
tp831
Rp832
sg78
g6
(S'\x07\xe1\x06\x1a\x11\x042\x0b\x8e\x08'
p833
tp834
Rp835
sg23
S'25-1'
p836
sba(iopmop.models.task
HaulageTask
p837
(dp838
g72
Nsg50
I442
sg68
I28
sg69
g481
sg71
Nsg94
g31
sg73
g54
sg74
g6
(S"\x07\xe1\x06\x1a\x11\x07'\x05\x8e\xbe"
p839
tp840
Rp841
sg78
g6
(S'\x07\xe1\x06\x1a\x11\x1d1\x05\x1d\xdb'
p842
tp843
Rp844
sg23
S'25-1'
p845
sbasg50
I2758
sg156
F0.0
sg157
g3
sg158
F-659.0
sg159
g6
(S'\x07\xe1\x06\x1a\x00\x00\x00\x00\x00\x00'
p846
tp847
Rp848
sg163
I01
sg164
F-31.0
sg23
I25
sba(iopmop.models.schedule
Schedule
p849
(dp850
g64
(lp851
sg50
I2758
sg156
I2758
sg157
g3
sg158
I2758
sg159
g6
(S'\x07\xe1\x06\x1b\x00\x00\x00\x00\x00\x00'
p852
tp853
Rp854
sg163
I00
sg164
I2758
sg23
I26
sba(iopmop.models.schedule
Schedule
p855
(dp856
g64
(lp857
sg50
I2758
sg156
I2758
sg157
g3
sg158
I2758
sg159
g6
(S'\x07\xe1\x06\x1c\x00\x00\x00\x00\x00\x00'
p858
tp859
Rp860
sg163
I00
sg164
I2758
sg23
I27
sba(iopmop.models.schedule
Schedule
p861
(dp862
g64
(lp863
sg50
I2758
sg156
I2758
sg157
g3
sg158
I2758
sg159
g6
(S'\x07\xe1\x06\x1d\x00\x00\x00\x00\x00\x00'
p864
tp865
Rp866
sg163
I00
sg164
I2758
sg23
I28
sbasg23
I1
sS'numDays'
p867
I29
sba(iopmop.models.mission
Mission
p868
(dp869
g5
g6
(S'\x07\xe1\x06\x01\x00\x00\x00\x00\x00\x00'
p870
tp871
Rp872
sg10
(lp873
g12
ag26
ag31
ag36
ag41
asg46
g6
(S'\x07\xe1\x06\x14\x00\x00\x00\x00\x00\x00'
p874
tp875
Rp876
sg50
I100000
sg51
S'Coal june'
p877
sg53
(iopmop.models.location
Location
p878
(dp879
g14
g33
sg21
g58
sg23
I2
sg24
S'Site2'
p880
sbsg60
(lp881
(iopmop.models.schedule
Schedule
p882
(dp883
g64
(lp884
(iopmop.models.task
DigTask
p885
(dp886
g50
F2320.0
sg68
I8
sg69
g70
sg71
Nsg72
Nsg73
g878
sg74
g6
(S'\x07\xe1\x06\x01\t\x00\x00\x00\x00\x00'
p887
tp888
Rp889
sg78
g6
(S'\x07\xe1\x06\x01\x11\x039\x08(\xe3'
p890
tp891
Rp892
sg23
S'0-0'
p893
sba(iopmop.models.task
DigTask
p894
(dp895
g50
F2943.0
sg68
I1
sg69
g70
sg71
Nsg72
Nsg73
g878
sg74
g6
(S'\x07\xe1\x06\x01\t\x00\x00\x00\x00\x00'
p896
tp897
Rp898
sg78
g6
(S'\x07\xe1\x06\x01\x10.,\n\xc9y'
p899
tp900
Rp901
sg23
S'0-0'
p902
sba(iopmop.models.task
LoadTask
p903
(dp904
g50
F4410.0
sg68
I13
sg69
g70
sg71
Nsg72
Nsg73
g878
sg74
g6
(S'\x07\xe1\x06\x01\t\x00\x00\x00\x00\x00'
p905
tp906
Rp907
sg78
g6
(S'\x07\xe1\x06\x01\x11\x00\x00\x00\x00\x00'
p908
tp909
Rp910
sg23
S'0-0'
p911
sba(iopmop.models.task
LoadTask
p912
(dp913
g50
F1523.0
sg68
I15
sg69
g70
sg71
Nsg72
Nsg73
g878
sg74
g6
(S'\x07\xe1\x06\x01\x0e\x05!\x02\x0c\xb8'
p914
tp915
Rp916
sg78
g6
(S'\x07\xe1\x06\x01\x0f\x158\x06`v'
p917
tp918
Rp919
sg23
S'0-0'
p920
sba(iopmop.models.task
HaulageTask
p921
(dp922
g72
Nsg50
I303
sg68
I42
sg69
g70
sg71
Nsg94
g31
sg73
g878
sg74
g6
(S'\x07\xe1\x06\x01\t$\x00\x00\x00\x00'
p923
tp924
Rp925
sg78
g6
(S'\x07\xe1\x06\x01\t0\x00\x00\x00\x00'
p926
tp927
Rp928
sg23
S'0-1'
p929
sba(iopmop.models.task
HaulageTask
p930
(dp931
g72
Nsg50
I342
sg68
I38
sg69
g70
sg71
Nsg94
g31
sg73
g878
sg74
g6
(S'\x07\xe1\x06\x01\n\x0c\x00\x00\x00\x00'
p932
tp933
Rp934
sg78
g6
(S'\x07\xe1\x06\x01\n\x18\x00\x00\x00\x00'
p935
tp936
Rp937
sg23
S'0-1'
p938
sba(iopmop.models.task
HaulageTask
p939
(dp940
g72
Nsg50
I353
sg68
I32
sg69
g70
sg71
Nsg94
g31
sg73
g878
sg74
g6
(S'\x07\xe1\x06\x01\x0b\x00\x00\x00\x00\x00'
p941
tp942
Rp943
sg78
g6
(S'\x07\xe1\x06\x01\x0b\x0c\x00\x00\x00\x00'
p944
tp945
Rp946
sg23
S'0-1'
p947
sba(iopmop.models.task
HaulageTask
p948
(dp949
g72
Nsg50
I399
sg68
I31
sg69
g70
sg71
Nsg94
g31
sg73
g878
sg74
g6
(S'\x07\xe1\x06\x01\x0b$\x00\x00\x00\x00'
p950
tp951
Rp952
sg78
g6
(S'\x07\xe1\x06\x01\x0b0\x00\x00\x00\x00'
p953
tp954
Rp955
sg23
S'0-1'
p956
sba(iopmop.models.task
HaulageTask
p957
(dp958
g72
Nsg50
I384
sg68
I24
sg69
g70
sg71
Nsg94
g31
sg73
g878
sg74
g6
(S'\x07\xe1\x06\x01\x0c\x18\x00\x00\x00\x00'
p959
tp960
Rp961
sg78
g6
(S'\x07\xe1\x06\x01\x0c$\x00\x00\x00\x00'
p962
tp963
Rp964
sg23
S'0-1'
p965
sba(iopmop.models.task
HaulageTask
p966
(dp967
g72
Nsg50
I315
sg68
I30
sg69
g70
sg71
Nsg94
g31
sg73
g878
sg74
g6
(S'\x07\xe1\x06\x01\r\x00\x00\x00\x00\x00'
p968
tp969
Rp970
sg78
g6
(S'\x07\xe1\x06\x01\r\x0c\x00\x00\x00\x00'
p971
tp972
Rp973
sg23
S'0-1'
p974
sba(iopmop.models.task
HaulageTask
p975
(dp976
g72
Nsg50
I490
sg68
I35
sg69
g70
sg71
Nsg94
g31
sg73
g878
sg74
g6
(S'\x07\xe1\x06\x01\r0\x00\x00\x00\x00'
p977
tp978
Rp979
sg78
g6
(S'\x07\xe1\x06\x01\x0e\x00\x00\x00\x00\x00'
p980
tp981
Rp982
sg23
S'0-1'
p983
sba(iopmop.models.task
HaulageTask
p984
(dp985
g72
Nsg50
I351
sg68
I41
sg69
g70
sg71
Nsg94
g31
sg73
g878
sg74
g6
(S'\x07\xe1\x06\x01\x0e\x0c\x00\x00\x00\x00'
p986
tp987
Rp988
sg78
g6
(S'\x07\xe1\x06\x01\x0e\x18\x00\x00\x00\x00'
p989
tp990
Rp991
sg23
S'0-1'
p992
sba(iopmop.models.task
HaulageTask
p993
(dp994
g72
Nsg50
I385
sg68
I25
sg69
g70
sg71
Nsg94
g31
sg73
g878
sg74
g6
(S'\x07\xe1\x06\x01\x0e$\x00\x00\x00\x00'
p995
tp996
Rp997
sg78
g6
(S'\x07\xe1\x06\x01\x0e0\x00\x00\x00\x00'
p998
tp999
Rp1000
sg23
S'0-1'
p1001
sba(iopmop.models.task
HaulageTask
p1002
(dp1003
g72
Nsg50
I319
sg68
I43
sg69
g70
sg71
Nsg94
g31
sg73
g878
sg74
g6
(S'\x07\xe1\x06\x01\r\x18\x00\x00\x00\x00'
p1004
tp1005
Rp1006
sg78
g6
(S'\x07\xe1\x06\x01\r$\x00\x00\x00\x00'
p1007
tp1008
Rp1009
sg23
S'0-1'
p1010
sba(iopmop.models.task
HaulageTask
p1011
(dp1012
g72
Nsg50
I303
sg68
I42
sg69
g70
sg71
Nsg94
g31
sg73
g878
sg74
g6
(S'\x07\xe1\x06\x01\x0f\x00\x00\x00\x00\x00'
p1013
tp1014
Rp1015
sg78
g6
(S'\x07\xe1\x06\x01\x0f\x0c\x00\x00\x00\x00'
p1016
tp1017
Rp1018
sg23
S'0-1'
p1019
sba(iopmop.models.task
HaulageTask
p1020
(dp1021
g72
Nsg50
I316
sg68
I36
sg69
g70
sg71
Nsg94
g31
sg73
g878
sg74
g6
(S'\x07\xe1\x06\x01\x0f\x18\x00\x00\x00\x00'
p1022
tp1023
Rp1024
sg78
g6
(S'\x07\xe1\x06\x01\x0f$\x00\x00\x00\x00'
p1025
tp1026
Rp1027
sg23
S'0-1'
p1028
sba(iopmop.models.task
HaulageTask
p1029
(dp1030
g72
Nsg50
I342
sg68
I38
sg69
g70
sg71
Nsg94
g31
sg73
g878
sg74
g6
(S'\x07\xe1\x06\x01\x0f0\x00\x00\x00\x00'
p1031
tp1032
Rp1033
sg78
g6
(S'\x07\xe1\x06\x01\x10\x00\x00\x00\x00\x00'
p1034
tp1035
Rp1036
sg23
S'0-1'
p1037
sba(iopmop.models.task
HaulageTask
p1038
(dp1039
g72
Nsg50
I353
sg68
I32
sg69
g70
sg71
Nsg94
g31
sg73
g878
sg74
g6
(S'\x07\xe1\x06\x01\x10\x0c\x00\x00\x00\x00'
p1040
tp1041
Rp1042
sg78
g6
(S'\x07\xe1\x06\x01\x10\x18\x00\x00\x00\x00'
p1043
tp1044
Rp1045
sg23
S'0-1'
p1046
sba(iopmop.models.task
HaulageTask
p1047
(dp1048
g72
Nsg50
I452
sg68
I47
sg69
g70
sg71
Nsg94
g31
sg73
g878
sg74
g6
(S'\x07\xe1\x06\x01\x10$\x00\x00\x00\x00'
p1049
tp1050
Rp1051
sg78
g6
(S'\x07\xe1\x06\x01\x100\x00\x00\x00\x00'
p1052
tp1053
Rp1054
sg23
S'0-1'
p1055
sbasg50
I5263
sg156
F0.0
sg157
g868
sg158
F-670.0
sg159
g6
(S'\x07\xe1\x06\x01\x00\x00\x00\x00\x00\x00'
p1056
tp1057
Rp1058
sg163
I01
sg164
F-144.0
sg23
I0
sba(iopmop.models.schedule
Schedule
p1059
(dp1060
g64
(lp1061
(iopmop.models.task
DigTask
p1062
(dp1063
g50
F2320.0
sg68
I8
sg69
g481
sg71
Nsg72
Nsg73
g878
sg74
g6
(S'\x07\xe1\x06\x02\t\x00\x00\x00\x00\x00'
p1064
tp1065
Rp1066
sg78
g6
(S'\x07\xe1\x06\x02\x11\x039\x08(\xe3'
p1067
tp1068
Rp1069
sg23
S'1-0'
p1070
sba(iopmop.models.task
DigTask
p1071
(dp1072
g50
F2943.0
sg68
I1
sg69
g481
sg71
Nsg72
Nsg73
g878
sg74
g6
(S'\x07\xe1\x06\x02\t\x00\x00\x00\x00\x00'
p1073
tp1074
Rp1075
sg78
g6
(S'\x07\xe1\x06\x02\x10.,\n\xc9y'
p1076
tp1077
Rp1078
sg23
S'1-0'
p1079
sba(iopmop.models.task
LoadTask
p1080
(dp1081
g50
F4410.0
sg68
I13
sg69
g481
sg71
Nsg72
Nsg73
g878
sg74
g6
(S'\x07\xe1\x06\x02\t\x00\x00\x00\x00\x00'
p1082
tp1083
Rp1084
sg78
g6
(S'\x07\xe1\x06\x02\x11\x00\x00\x00\x00\x00'
p1085
tp1086
Rp1087
sg23
S'1-0'
p1088
sba(iopmop.models.task
LoadTask
p1089
(dp1090
g50
F1523.0
sg68
I15
sg69
g481
sg71
Nsg72
Nsg73
g878
sg74
g6
(S'\x07\xe1\x06\x02\x0f\x158\x06`v'
p1091
tp1092
Rp1093
sg78
g6
(S'\x07\xe1\x06\x02\x10&\x13\n\xb44'
p1094
tp1095
Rp1096
sg23
S'1-0'
p1097
sba(iopmop.models.task
HaulageTask
p1098
(dp1099
g72
Nsg50
I252
sg68
I37
sg69
g481
sg71
Nsg94
g31
sg73
g878
sg74
g6
(S'\x07\xe1\x06\x02\t$\x00\x00\x00\x00'
p1100
tp1101
Rp1102
sg78
g6
(S'\x07\xe1\x06\x02\t0\x00\x00\x00\x00'
p1103
tp1104
Rp1105
sg23
S'1-1'
p1106
sba(iopmop.models.task
HaulageTask
p1107
(dp1108
g72
Nsg50
I257
sg68
I20
sg69
g481
sg71
Nsg94
g31
sg73
g878
sg74
g6
(S'\x07\xe1\x06\x02\n\x00\x00\x00\x00\x00'
p1109
tp1110
Rp1111
sg78
g6
(S'\x07\xe1\x06\x02\n\x0c\x00\x00\x00\x00'
p1112
tp1113
Rp1114
sg23
S'1-1'
p1115
sba(iopmop.models.task
HaulageTask
p1116
(dp1117
g72
Nsg50
I319
sg68
I43
sg69
g481
sg71
Nsg94
g31
sg73
g878
sg74
g6
(S'\x07\xe1\x06\x02\n$\x00\x00\x00\x00'
p1118
tp1119
Rp1120
sg78
g6
(S'\x07\xe1\x06\x02\n0\x00\x00\x00\x00'
p1121
tp1122
Rp1123
sg23
S'1-1'
p1124
sba(iopmop.models.task
HaulageTask
p1125
(dp1126
g72
Nsg50
I303
sg68
I42
sg69
g481
sg71
Nsg94
g31
sg73
g878
sg74
g6
(S'\x07\xe1\x06\x02\x0b\x0c\x00\x00\x00\x00'
p1127
tp1128
Rp1129
sg78
g6
(S'\x07\xe1\x06\x02\x0b\x18\x00\x00\x00\x00'
p1130
tp1131
Rp1132
sg23
S'1-1'
p1133
sba(iopmop.models.task
HaulageTask
p1134
(dp1135
g72
Nsg50
I316
sg68
I36
sg69
g481
sg71
Nsg94
g31
sg73
g878
sg74
g6
(S'\x07\xe1\x06\x02\x0b0\x00\x00\x00\x00'
p1136
tp1137
Rp1138
sg78
g6
(S'\x07\xe1\x06\x02\x0c\x00\x00\x00\x00\x00'
p1139
tp1140
Rp1141
sg23
S'1-1'
p1142
sba(iopmop.models.task
HaulageTask
p1143
(dp1144
g72
Nsg50
I342
sg68
I38
sg69
g481
sg71
Nsg94
g31
sg73
g878
sg74
g6
(S'\x07\xe1\x06\x02\x0c\x18\x00\x00\x00\x00'
p1145
tp1146
Rp1147
sg78
g6
(S'\x07\xe1\x06\x02\x0c$\x00\x00\x00\x00'
p1148
tp1149
Rp1150
sg23
S'1-1'
p1151
sba(iopmop.models.task
HaulageTask
p1152
(dp1153
g72
Nsg50
I353
sg68
I32
sg69
g481
sg71
Nsg94
g31
sg73
g878
sg74
g6
(S'\x07\xe1\x06\x02\r\x00\x00\x00\x00\x00'
p1154
tp1155
Rp1156
sg78
g6
(S'\x07\xe1\x06\x02\r\x0c\x00\x00\x00\x00'
p1157
tp1158
Rp1159
sg23
S'1-1'
p1160
sba(iopmop.models.task
HaulageTask
p1161
(dp1162
g72
Nsg50
I452
sg68
I47
sg69
g481
sg71
Nsg94
g31
sg73
g878
sg74
g6
(S'\x07\xe1\x06\x02\r0\x00\x00\x00\x00'
p1163
tp1164
Rp1165
sg78
g6
(S'\x07\xe1\x06\x02\x0e\x00\x00\x00\x00\x00'
p1166
tp1167
Rp1168
sg23
S'1-1'
p1169
sba(iopmop.models.task
HaulageTask
p1170
(dp1171
g72
Nsg50
I399
sg68
I31
sg69
g481
sg71
Nsg94
g31
sg73
g878
sg74
g6
(S'\x07\xe1\x06\x02\x0e$\x00\x00\x00\x00'
p1172
tp1173
Rp1174
sg78
g6
(S'\x07\xe1\x06\x02\x0e0\x00\x00\x00\x00'
p1175
tp1176
Rp1177
sg23
S'1-1'
p1178
sba(iopmop.models.task
HaulageTask
p1179
(dp1180
g72
Nsg50
I384
sg68
I24
sg69
g481
sg71
Nsg94
g31
sg73
g878
sg74
g6
(S'\x07\xe1\x06\x02\x0f\x0c\x00\x00\x00\x00'
p1181
tp1182
Rp1183
sg78
g6
(S'\x07\xe1\x06\x02\x0f\x18\x00\x00\x00\x00'
p1184
tp1185
Rp1186
sg23
S'1-1'
p1187
sba(iopmop.models.task
HaulageTask
p1188
(dp1189
g72
Nsg50
I356
sg68
I29
sg69
g481
sg71
Nsg94
g31
sg73
g878
sg74
g6
(S'\x07\xe1\x06\x02\x0f$\x00\x00\x00\x00'
p1190
tp1191
Rp1192
sg78
g6
(S'\x07\xe1\x06\x02\x0f0\x00\x00\x00\x00'
p1193
tp1194
Rp1195
sg23
S'1-1'
p1196
sba(iopmop.models.task
HaulageTask
p1197
(dp1198
g72
Nsg50
I334
sg68
I44
sg69
g481
sg71
Nsg94
g31
sg73
g878
sg74
g6
(S'\x07\xe1\x06\x02\x10\x00\x00\x00\x00\x00'
p1199
tp1200
Rp1201
sg78
g6
(S'\x07\xe1\x06\x02\x10\x0c\x00\x00\x00\x00'
p1202
tp1203
Rp1204
sg23
S'1-1'
p1205
sba(iopmop.models.task
HaulageTask
p1206
(dp1207
g72
Nsg50
I292
sg68
I49
sg69
g481
sg71
Nsg94
g31
sg73
g878
sg74
g6
(S'\x07\xe1\x06\x02\x10\x18\x00\x00\x00\x00'
p1208
tp1209
Rp1210
sg78
g6
(S'\x07\xe1\x06\x02\x10$\x00\x00\x00\x00'
p1211
tp1212
Rp1213
sg23
S'1-1'
p1214
sba(iopmop.models.task
HaulageTask
p1215
(dp1216
g72
Nsg50
I315
sg68
I30
sg69
g481
sg71
Nsg94
g31
sg73
g878
sg74
g6
(S'\x07\xe1\x06\x02\x100\x00\x00\x00\x00'
p1217
tp1218
Rp1219
sg78
g6
(S'\x07\xe1\x06\x02\x11\x00\x00\x00\x00\x00'
p1220
tp1221
Rp1222
sg23
S'1-1'
p1223
sba(iopmop.models.task
HaulageTask
p1224
(dp1225
g72
Nsg50
I490
sg68
I35
sg69
g481
sg71
Nsg94
g31
sg73
g878
sg74
g6
(S'\x07\xe1\x06\x02\x11\x0c\x00\x00\x00\x00'
p1226
tp1227
Rp1228
sg78
g6
(S'\x07\xe1\x06\x02\x11\x18\x00\x00\x00\x00'
p1229
tp1230
Rp1231
sg23
S'1-1'
p1232
sba(iopmop.models.task
HaulageTask
p1233
(dp1234
g72
Nsg50
I351
sg68
I41
sg69
g481
sg71
Nsg94
g31
sg73
g878
sg74
g6
(S'\x07\xe1\x06\x02\x11$\x00\x00\x00\x00'
p1235
tp1236
Rp1237
sg78
g6
(S'\x07\xe1\x06\x02\x110\x00\x00\x00\x00'
p1238
tp1239
Rp1240
sg23
S'1-1'
p1241
sbasg50
I5263
sg156
F0.0
sg157
g868
sg158
F-670.0
sg159
g6
(S'\x07\xe1\x06\x02\x00\x00\x00\x00\x00\x00'
p1242
tp1243
Rp1244
sg163
I01
sg164
F-252.0
sg23
I1
sba(iopmop.models.schedule
Schedule
p1245
(dp1246
g64
(lp1247
sg50
I5263
sg156
I5263
sg157
g868
sg158
I5263
sg159
g6
(S'\x07\xe1\x06\x03\x00\x00\x00\x00\x00\x00'
p1248
tp1249
Rp1250
sg163
I00
sg164
I5263
sg23
I2
sba(iopmop.models.schedule
Schedule
p1251
(dp1252
g64
(lp1253
sg50
I5263
sg156
I5263
sg157
g868
sg158
I5263
sg159
g6
(S'\x07\xe1\x06\x04\x00\x00\x00\x00\x00\x00'
p1254
tp1255
Rp1256
sg163
I00
sg164
I5263
sg23
I3
sba(iopmop.models.schedule
Schedule
p1257
(dp1258
g64
(lp1259
sg50
I5263
sg156
I5263
sg157
g868
sg158
I5263
sg159
g6
(S'\x07\xe1\x06\x05\x00\x00\x00\x00\x00\x00'
p1260
tp1261
Rp1262
sg163
I00
sg164
I5263
sg23
I4
sba(iopmop.models.schedule
Schedule
p1263
(dp1264
g64
(lp1265
sg50
I5263
sg156
I5263
sg157
g868
sg158
I5263
sg159
g6
(S'\x07\xe1\x06\x06\x00\x00\x00\x00\x00\x00'
p1266
tp1267
Rp1268
sg163
I00
sg164
I5263
sg23
I5
sba(iopmop.models.schedule
Schedule
p1269
(dp1270
g64
(lp1271
sg50
I5263
sg156
I5263
sg157
g868
sg158
I5263
sg159
g6
(S'\x07\xe1\x06\x07\x00\x00\x00\x00\x00\x00'
p1272
tp1273
Rp1274
sg163
I00
sg164
I5263
sg23
I6
sba(iopmop.models.schedule
Schedule
p1275
(dp1276
g64
(lp1277
sg50
I5263
sg156
I5263
sg157
g868
sg158
I5263
sg159
g6
(S'\x07\xe1\x06\x08\x00\x00\x00\x00\x00\x00'
p1278
tp1279
Rp1280
sg163
I00
sg164
I5263
sg23
I7
sba(iopmop.models.schedule
Schedule
p1281
(dp1282
g64
(lp1283
(iopmop.models.task
DigTask
p1284
(dp1285
g50
F4280.0
sg68
I9
sg69
g481
sg71
Nsg72
Nsg73
g878
sg74
g6
(S'\x07\xe1\x06\t\t\x00\x00\x00\x00\x00'
p1286
tp1287
Rp1288
sg78
g6
(S'\x07\xe1\x06\t\x11\x00\x05\x0c\x8f\x93'
p1289
tp1290
Rp1291
sg23
S'8-0'
p1292
sba(iopmop.models.task
DigTask
p1293
(dp1294
g50
F983.0000000000002
sg68
I7
sg69
g481
sg71
Nsg72
Nsg73
g878
sg74
g6
(S'\x07\xe1\x06\t\t\x00\x00\x00\x00\x00'
p1295
tp1296
Rp1297
sg78
g6
(S'\x07\xe1\x06\t\x0b,\x02\x02\xc3\x1a'
p1298
tp1299
Rp1300
sg23
S'8-0'
p1301
sba(iopmop.models.task
LoadTask
p1302
(dp1303
g50
F5896.0
sg68
I15
sg69
g481
sg71
Nsg72
Nsg73
g878
sg74
g6
(S'\x07\xe1\x06\t\t\x00\x00\x00\x00\x00'
p1304
tp1305
Rp1306
sg78
g6
(S'\x07\xe1\x06\t\x100\x00\x00\x00\x00'
p1307
tp1308
Rp1309
sg23
S'8-0'
p1310
sba(iopmop.models.task
HaulageTask
p1311
(dp1312
g72
Nsg50
I292
sg68
I49
sg69
g481
sg71
Nsg94
g31
sg73
g878
sg74
g6
(S'\x07\xe1\x06\t\t\x18\x00\x00\x00\x00'
p1313
tp1314
Rp1315
sg78
g6
(S'\x07\xe1\x06\t\t$\x00\x00\x00\x00'
p1316
tp1317
Rp1318
sg23
S'8-1'
p1319
sba(iopmop.models.task
HaulageTask
p1320
(dp1321
g72
Nsg50
I296
sg68
I23
sg69
g481
sg71
Nsg94
g31
sg73
g878
sg74
g6
(S'\x07\xe1\x06\t\t0\x00\x00\x00\x00'
p1322
tp1323
Rp1324
sg78
g6
(S'\x07\xe1\x06\t\n\x00\x00\x00\x00\x00'
p1325
tp1326
Rp1327
sg23
S'8-1'
p1328
sba(iopmop.models.task
HaulageTask
p1329
(dp1330
g72
Nsg50
I252
sg68
I37
sg69
g481
sg71
Nsg94
g31
sg73
g878
sg74
g6
(S'\x07\xe1\x06\t\n\x0c\x00\x00\x00\x00'
p1331
tp1332
Rp1333
sg78
g6
(S'\x07\xe1\x06\t\n\x18\x00\x00\x00\x00'
p1334
tp1335
Rp1336
sg23
S'8-1'
p1337
sba(iopmop.models.task
HaulageTask
p1338
(dp1339
g72
Nsg50
I257
sg68
I20
sg69
g481
sg71
Nsg94
g31
sg73
g878
sg74
g6
(S'\x07\xe1\x06\t\n$\x00\x00\x00\x00'
p1340
tp1341
Rp1342
sg78
g6
(S'\x07\xe1\x06\t\n0\x00\x00\x00\x00'
p1343
tp1344
Rp1345
sg23
S'8-1'
p1346
sba(iopmop.models.task
HaulageTask
p1347
(dp1348
g72
Nsg50
I303
sg68
I42
sg69
g481
sg71
Nsg94
g31
sg73
g878
sg74
g6
(S'\x07\xe1\x06\t\x0b\x00\x00\x00\x00\x00'
p1349
tp1350
Rp1351
sg78
g6
(S'\x07\xe1\x06\t\x0b\x0c\x00\x00\x00\x00'
p1352
tp1353
Rp1354
sg23
S'8-1'
p1355
sba(iopmop.models.task
HaulageTask
p1356
(dp1357
g72
Nsg50
I316
sg68
I36
sg69
g481
sg71
Nsg94
g31
sg73
g878
sg74
g6
(S'\x07\xe1\x06\t\x0b\x18\x00\x00\x00\x00'
p1358
tp1359
Rp1360
sg78
g6
(S'\x07\xe1\x06\t\x0b$\x00\x00\x00\x00'
p1361
tp1362
Rp1363
sg23
S'8-1'
p1364
sba(iopmop.models.task
HaulageTask
p1365
(dp1366
g72
Nsg50
I342
sg68
I38
sg69
g481
sg71
Nsg94
g31
sg73
g878
sg74
g6
(S'\x07\xe1\x06\t\x0b0\x00\x00\x00\x00'
p1367
tp1368
Rp1369
sg78
g6
(S'\x07\xe1\x06\t\x0c\x00\x00\x00\x00\x00'
p1370
tp1371
Rp1372
sg23
S'8-1'
p1373
sba(iopmop.models.task
HaulageTask
p1374
(dp1375
g72
Nsg50
I353
sg68
I32
sg69
g481
sg71
Nsg94
g31
sg73
g878
sg74
g6
(S'\x07\xe1\x06\t\x0c\x0c\x00\x00\x00\x00'
p1376
tp1377
Rp1378
sg78
g6
(S'\x07\xe1\x06\t\x0c\x18\x00\x00\x00\x00'
p1379
tp1380
Rp1381
sg23
S'8-1'
p1382
sba(iopmop.models.task
HaulageTask
p1383
(dp1384
g72
Nsg50
I399
sg68
I31
sg69
g481
sg71
Nsg94
g31
sg73
g878
sg74
g6
(S'\x07\xe1\x06\t\x0c0\x00\x00\x00\x00'
p1385
tp1386
Rp1387
sg78
g6
(S'\x07\xe1\x06\t\r\x00\x00\x00\x00\x00'
p1388
tp1389
Rp1390
sg23
S'8-1'
p1391
sba(iopmop.models.task
HaulageTask
p1392
(dp1393
g72
Nsg50
I384
sg68
I24
sg69
g481
sg71
Nsg94
g31
sg73
g878
sg74
g6
(S'\x07\xe1\x06\t\r\x18\x00\x00\x00\x00'
p1394
tp1395
Rp1396
sg78
g6
(S'\x07\xe1\x06\t\r$\x00\x00\x00\x00'
p1397
tp1398
Rp1399
sg23
S'8-1'
p1400
sba(iopmop.models.task
HaulageTask
p1401
(dp1402
g72
Nsg50
I356
sg68
I29
sg69
g481
sg71
Nsg94
g31
sg73
g878
sg74
g6
(S'\x07\xe1\x06\t\r0\x00\x00\x00\x00'
p1403
tp1404
Rp1405
sg78
g6
(S'\x07\xe1\x06\t\x0e\x00\x00\x00\x00\x00'
p1406
tp1407
Rp1408
sg23
S'8-1'
p1409
sba(iopmop.models.task
HaulageTask
p1410
(dp1411
g72
Nsg50
I334
sg68
I44
sg69
g481
sg71
Nsg94
g31
sg73
g878
sg74
g6
(S'\x07\xe1\x06\t\x0e\x0c\x00\x00\x00\x00'
p1412
tp1413
Rp1414
sg78
g6
(S'\x07\xe1\x06\t\x0e\x18\x00\x00\x00\x00'
p1415
tp1416
Rp1417
sg23
S'8-1'
p1418
sba(iopmop.models.task
HaulageTask
p1419
(dp1420
g72
Nsg50
I292
sg68
I49
sg69
g481
sg71
Nsg94
g31
sg73
g878
sg74
g6
(S'\x07\xe1\x06\t\x0e$\x00\x00\x00\x00'
p1421
tp1422
Rp1423
sg78
g6
(S'\x07\xe1\x06\t\x0e0\x00\x00\x00\x00'
p1424
tp1425
Rp1426
sg23
S'8-1'
p1427
sba(iopmop.models.task
HaulageTask
p1428
(dp1429
g72
Nsg50
I315
sg68
I30
sg69
g481
sg71
Nsg94
g31
sg73
g878
sg74
g6
(S'\x07\xe1\x06\t\x0f\x00\x00\x00\x00\x00'
p1430
tp1431
Rp1432
sg78
g6
(S'\x07\xe1\x06\t\x0f\x0c\x00\x00\x00\x00'
p1433
tp1434
Rp1435
sg23
S'8-1'
p1436
sba(iopmop.models.task
HaulageTask
p1437
(dp1438
g72
Nsg50
I490
sg68
I35
sg69
g481
sg71
Nsg94
g31
sg73
g878
sg74
g6
(S'\x07\xe1\x06\t\x0f$\x00\x00\x00\x00'
p1439
tp1440
Rp1441
sg78
g6
(S'\x07\xe1\x06\t\x0f0\x00\x00\x00\x00'
p1442
tp1443
Rp1444
sg23
S'8-1'
p1445
sba(iopmop.models.task
HaulageTask
p1446
(dp1447
g72
Nsg50
I296
sg68
I23
sg69
g481
sg71
Nsg94
g31
sg73
g878
sg74
g6
(S'\x07\xe1\x06\t\x10\x00\x00\x00\x00\x00'
p1448
tp1449
Rp1450
sg78
g6
(S'\x07\xe1\x06\t\x10\x0c\x00\x00\x00\x00'
p1451
tp1452
Rp1453
sg23
S'8-1'
p1454
sbasg50
I5263
sg156
F-2.2737367544323206e-13
sg157
g868
sg158
F-633.0
sg159
g6
(S'\x07\xe1\x06\t\x00\x00\x00\x00\x00\x00'
p1455
tp1456
Rp1457
sg163
I01
sg164
F-13.999999999999773
sg23
I8
sba(iopmop.models.schedule
Schedule
p1458
(dp1459
g64
(lp1460
sg50
I5263
sg156
I5263
sg157
g868
sg158
I5263
sg159
g6
(S'\x07\xe1\x06\n\x00\x00\x00\x00\x00\x00'
p1461
tp1462
Rp1463
sg163
I00
sg164
I5263
sg23
I9
sba(iopmop.models.schedule
Schedule
p1464
(dp1465
g64
(lp1466
sg50
I5263
sg156
I5263
sg157
g868
sg158
I5263
sg159
g6
(S'\x07\xe1\x06\x0b\x00\x00\x00\x00\x00\x00'
p1467
tp1468
Rp1469
sg163
I00
sg164
I5263
sg23
I10
sba(iopmop.models.schedule
Schedule
p1470
(dp1471
g64
(lp1472
sg50
I5263
sg156
I5263
sg157
g868
sg158
I5263
sg159
g6
(S'\x07\xe1\x06\x0c\x00\x00\x00\x00\x00\x00'
p1473
tp1474
Rp1475
sg163
I00
sg164
I5263
sg23
I11
sba(iopmop.models.schedule
Schedule
p1476
(dp1477
g64
(lp1478
sg50
I5263
sg156
I5263
sg157
g868
sg158
I5263
sg159
g6
(S'\x07\xe1\x06\r\x00\x00\x00\x00\x00\x00'
p1479
tp1480
Rp1481
sg163
I00
sg164
I5263
sg23
I12
sba(iopmop.models.schedule
Schedule
p1482
(dp1483
g64
(lp1484
sg50
I5263
sg156
I5263
sg157
g868
sg158
I5263
sg159
g6
(S'\x07\xe1\x06\x0e\x00\x00\x00\x00\x00\x00'
p1485
tp1486
Rp1487
sg163
I00
sg164
I5263
sg23
I13
sba(iopmop.models.schedule
Schedule
p1488
(dp1489
g64
(lp1490
sg50
I5263
sg156
I5263
sg157
g868
sg158
I5263
sg159
g6
(S'\x07\xe1\x06\x0f\x00\x00\x00\x00\x00\x00'
p1491
tp1492
Rp1493
sg163
I00
sg164
I5263
sg23
I14
sba(iopmop.models.schedule
Schedule
p1494
(dp1495
g64
(lp1496
sg50
I5263
sg156
I5263
sg157
g868
sg158
I5263
sg159
g6
(S'\x07\xe1\x06\x10\x00\x00\x00\x00\x00\x00'
p1497
tp1498
Rp1499
sg163
I00
sg164
I5263
sg23
I15
sba(iopmop.models.schedule
Schedule
p1500
(dp1501
g64
(lp1502
sg50
I5263
sg156
I5263
sg157
g868
sg158
I5263
sg159
g6
(S'\x07\xe1\x06\x11\x00\x00\x00\x00\x00\x00'
p1503
tp1504
Rp1505
sg163
I00
sg164
I5263
sg23
I16
sba(iopmop.models.schedule
Schedule
p1506
(dp1507
g64
(lp1508
sg50
I5263
sg156
I5263
sg157
g868
sg158
I5263
sg159
g6
(S'\x07\xe1\x06\x12\x00\x00\x00\x00\x00\x00'
p1509
tp1510
Rp1511
sg163
I00
sg164
I5263
sg23
I17
sba(iopmop.models.schedule
Schedule
p1512
(dp1513
g64
(lp1514
sg50
I5263
sg156
I5263
sg157
g868
sg158
I5263
sg159
g6
(S'\x07\xe1\x06\x13\x00\x00\x00\x00\x00\x00'
p1515
tp1516
Rp1517
sg163
I00
sg164
I5263
sg23
I18
sbasg23
I2
sg867
I19
sba(iopmop.models.mission
Mission
p1518
(dp1519
g5
g6
(S'\x07\xe1\x06\x01\x00\x00\x00\x00\x00\x00'
p1520
tp1521
Rp1522
sg10
(lp1523
g12
ag26
ag31
ag36
ag41
asg46
g6
(S'\x07\xe1\x06\x14\x00\x00\x00\x00\x00\x00'
p1524
tp1525
Rp1526
sg50
I90000
sg51
S'Metal june'
p1527
sg53
(iopmop.models.location
Location
p1528
(dp1529
g14
(iopmop.models.point
Point
p1530
(dp1531
g17
F40.52144455481663
sg18
I4
sg19
F-112.14980874008938
sg20
I88
sbsg21
g58
sg23
I3
sg24
S'Site3'
p1532
sbsg60
(lp1533
(iopmop.models.schedule
Schedule
p1534
(dp1535
g64
(lp1536
(iopmop.models.task
DigTask
p1537
(dp1538
g50
F1120.0
sg68
I3
sg69
g70
sg71
Nsg72
Nsg73
g1528
sg74
g6
(S'\x07\xe1\x06\x01\t\x00\x00\x00\x00\x00'
p1539
tp1540
Rp1541
sg78
g6
(S'\x07\xe1\x06\x01\x10\x00\x00\x00\x00\x00'
p1542
tp1543
Rp1544
sg23
S'0-0'
p1545
sba(iopmop.models.task
DigTask
p1546
(dp1547
g50
F3616.0
sg68
I5
sg69
g70
sg71
Nsg72
Nsg73
g1528
sg74
g6
(S'\x07\xe1\x06\x01\t\x00\x00\x00\x00\x00'
p1548
tp1549
Rp1550
sg78
g6
(S'\x07\xe1\x06\x01\x0e\x1e7\x02\x0f\xdf'
p1551
tp1552
Rp1553
sg23
S'0-0'
p1554
sba(iopmop.models.task
LoadTask
p1555
(dp1556
g50
F4140.0
sg68
I11
sg69
g70
sg71
Nsg72
Nsg73
g1528
sg74
g6
(S'\x07\xe1\x06\x01\t\x00\x00\x00\x00\x00'
p1557
tp1558
Rp1559
sg78
g6
(S'\x07\xe1\x06\x01\x11\x00\x00\x00\x00\x00'
p1560
tp1561
Rp1562
sg23
S'0-0'
p1563
sba(iopmop.models.task
LoadTask
p1564
(dp1565
g50
F1340.0
sg68
I15
sg69
g70
sg71
Nsg72
Nsg73
g1528
sg74
g6
(S'\x07\xe1\x06\x01\x10\x00\x00\x00\x00\x00'
p1566
tp1567
Rp1568
sg78
g6
(S'\x07\xe1\x06\x01\x11\x00\x00\x00\x00\x00'
p1569
tp1570
Rp1571
sg23
S'0-0'
p1572
sbasg50
I4736
sg156
F0.0
sg157
g1518
sg158
F-744.0
sg159
g6
(S'\x07\xe1\x06\x01\x00\x00\x00\x00\x00\x00'
p1573
tp1574
Rp1575
sg163
I01
sg164
F4736.0
sg23
I0
sba(iopmop.models.schedule
Schedule
p1576
(dp1577
g64
(lp1578
(iopmop.models.task
DigTask
p1579
(dp1580
g50
F1120.0
sg68
I3
sg69
g70
sg71
Nsg72
Nsg73
g1528
sg74
g6
(S'\x07\xe1\x06\x02\t\x00\x00\x00\x00\x00'
p1581
tp1582
Rp1583
sg78
g6
(S'\x07\xe1\x06\x02\x10\x00\x00\x00\x00\x00'
p1584
tp1585
Rp1586
sg23
S'1-0'
p1587
sba(iopmop.models.task
DigTask
p1588
(dp1589
g50
F3616.0
sg68
I5
sg69
g70
sg71
Nsg72
Nsg73
g1528
sg74
g6
(S'\x07\xe1\x06\x02\t\x00\x00\x00\x00\x00'
p1590
tp1591
Rp1592
sg78
g6
(S'\x07\xe1\x06\x02\x0e\x1e7\x02\x0f\xdf'
p1593
tp1594
Rp1595
sg23
S'1-0'
p1596
sba(iopmop.models.task
LoadTask
p1597
(dp1598
g50
F4140.0
sg68
I11
sg69
g70
sg71
Nsg72
Nsg73
g1528
sg74
g6
(S'\x07\xe1\x06\x02\t\x00\x00\x00\x00\x00'
p1599
tp1600
Rp1601
sg78
g6
(S'\x07\xe1\x06\x02\x11\x00\x00\x00\x00\x00'
p1602
tp1603
Rp1604
sg23
S'1-0'
p1605
sba(iopmop.models.task
LoadTask
p1606
(dp1607
g50
F1340.0
sg68
I15
sg69
g70
sg71
Nsg72
Nsg73
g1528
sg74
g6
(S'\x07\xe1\x06\x02\x0e\x00\x00\x00\x00\x00'
p1608
tp1609
Rp1610
sg78
g6
(S'\x07\xe1\x06\x02\x0f\x00\x00\x00\x00\x00'
p1611
tp1612
Rp1613
sg23
S'1-0'
p1614
sbasg50
I4736
sg156
F0.0
sg157
g1518
sg158
F-744.0
sg159
g6
(S'\x07\xe1\x06\x02\x00\x00\x00\x00\x00\x00'
p1615
tp1616
Rp1617
sg163
I01
sg164
F4736.0
sg23
I1
sba(iopmop.models.schedule
Schedule
p1618
(dp1619
g64
(lp1620
(iopmop.models.task
DigTask
p1621
(dp1622
g50
F1120.0
sg68
I3
sg69
g70
sg71
Nsg72
Nsg73
g1528
sg74
g6
(S'\x07\xe1\x06\x03\t\x00\x00\x00\x00\x00'
p1623
tp1624
Rp1625
sg78
g6
(S'\x07\xe1\x06\x03\x10\x00\x00\x00\x00\x00'
p1626
tp1627
Rp1628
sg23
S'2-0'
p1629
sba(iopmop.models.task
DigTask
p1630
(dp1631
g50
F3616.0
sg68
I5
sg69
g70
sg71
Nsg72
Nsg73
g1528
sg74
g6
(S'\x07\xe1\x06\x03\t\x00\x00\x00\x00\x00'
p1632
tp1633
Rp1634
sg78
g6
(S'\x07\xe1\x06\x03\x0e\x1e7\x02\x0f\xdf'
p1635
tp1636
Rp1637
sg23
S'2-0'
p1638
sba(iopmop.models.task
LoadTask
p1639
(dp1640
g50
F5360.0
sg68
I15
sg69
g70
sg71
Nsg72
Nsg73
g1528
sg74
g6
(S'\x07\xe1\x06\x03\t\x00\x00\x00\x00\x00'
p1641
tp1642
Rp1643
sg78
g6
(S'\x07\xe1\x06\x03\x10\x00\x00\x00\x00\x00'
p1644
tp1645
Rp1646
sg23
S'2-0'
p1647
sbasg50
I4736
sg156
F0.0
sg157
g1518
sg158
F-624.0
sg159
g6
(S'\x07\xe1\x06\x03\x00\x00\x00\x00\x00\x00'
p1648
tp1649
Rp1650
sg163
I01
sg164
F4736.0
sg23
I2
sba(iopmop.models.schedule
Schedule
p1651
(dp1652
g64
(lp1653
sg50
I4736
sg156
I4736
sg157
g1518
sg158
I4736
sg159
g6
(S'\x07\xe1\x06\x04\x00\x00\x00\x00\x00\x00'
p1654
tp1655
Rp1656
sg163
I00
sg164
I4736
sg23
I3
sba(iopmop.models.schedule
Schedule
p1657
(dp1658
g64
(lp1659
sg50
I4736
sg156
I4736
sg157
g1518
sg158
I4736
sg159
g6
(S'\x07\xe1\x06\x05\x00\x00\x00\x00\x00\x00'
p1660
tp1661
Rp1662
sg163
I00
sg164
I4736
sg23
I4
sba(iopmop.models.schedule
Schedule
p1663
(dp1664
g64
(lp1665
sg50
I4736
sg156
I4736
sg157
g1518
sg158
I4736
sg159
g6
(S'\x07\xe1\x06\x06\x00\x00\x00\x00\x00\x00'
p1666
tp1667
Rp1668
sg163
I00
sg164
I4736
sg23
I5
sba(iopmop.models.schedule
Schedule
p1669
(dp1670
g64
(lp1671
sg50
I4736
sg156
I4736
sg157
g1518
sg158
I4736
sg159
g6
(S'\x07\xe1\x06\x07\x00\x00\x00\x00\x00\x00'
p1672
tp1673
Rp1674
sg163
I00
sg164
I4736
sg23
I6
sba(iopmop.models.schedule
Schedule
p1675
(dp1676
g64
(lp1677
sg50
I4736
sg156
I4736
sg157
g1518
sg158
I4736
sg159
g6
(S'\x07\xe1\x06\x08\x00\x00\x00\x00\x00\x00'
p1678
tp1679
Rp1680
sg163
I00
sg164
I4736
sg23
I7
sba(iopmop.models.schedule
Schedule
p1681
(dp1682
g64
(lp1683
sg50
I4736
sg156
I4736
sg157
g1518
sg158
I4736
sg159
g6
(S'\x07\xe1\x06\t\x00\x00\x00\x00\x00\x00'
p1684
tp1685
Rp1686
sg163
I00
sg164
I4736
sg23
I8
sba(iopmop.models.schedule
Schedule
p1687
(dp1688
g64
(lp1689
sg50
I4736
sg156
I4736
sg157
g1518
sg158
I4736
sg159
g6
(S'\x07\xe1\x06\n\x00\x00\x00\x00\x00\x00'
p1690
tp1691
Rp1692
sg163
I00
sg164
I4736
sg23
I9
sba(iopmop.models.schedule
Schedule
p1693
(dp1694
g64
(lp1695
sg50
I4736
sg156
I4736
sg157
g1518
sg158
I4736
sg159
g6
(S'\x07\xe1\x06\x0b\x00\x00\x00\x00\x00\x00'
p1696
tp1697
Rp1698
sg163
I00
sg164
I4736
sg23
I10
sba(iopmop.models.schedule
Schedule
p1699
(dp1700
g64
(lp1701
sg50
I4736
sg156
I4736
sg157
g1518
sg158
I4736
sg159
g6
(S'\x07\xe1\x06\x0c\x00\x00\x00\x00\x00\x00'
p1702
tp1703
Rp1704
sg163
I00
sg164
I4736
sg23
I11
sba(iopmop.models.schedule
Schedule
p1705
(dp1706
g64
(lp1707
sg50
I4736
sg156
I4736
sg157
g1518
sg158
I4736
sg159
g6
(S'\x07\xe1\x06\r\x00\x00\x00\x00\x00\x00'
p1708
tp1709
Rp1710
sg163
I00
sg164
I4736
sg23
I12
sba(iopmop.models.schedule
Schedule
p1711
(dp1712
g64
(lp1713
sg50
I4736
sg156
I4736
sg157
g1518
sg158
I4736
sg159
g6
(S'\x07\xe1\x06\x0e\x00\x00\x00\x00\x00\x00'
p1714
tp1715
Rp1716
sg163
I00
sg164
I4736
sg23
I13
sba(iopmop.models.schedule
Schedule
p1717
(dp1718
g64
(lp1719
sg50
I4736
sg156
I4736
sg157
g1518
sg158
I4736
sg159
g6
(S'\x07\xe1\x06\x0f\x00\x00\x00\x00\x00\x00'
p1720
tp1721
Rp1722
sg163
I00
sg164
I4736
sg23
I14
sba(iopmop.models.schedule
Schedule
p1723
(dp1724
g64
(lp1725
sg50
I4736
sg156
I4736
sg157
g1518
sg158
I4736
sg159
g6
(S'\x07\xe1\x06\x10\x00\x00\x00\x00\x00\x00'
p1726
tp1727
Rp1728
sg163
I00
sg164
I4736
sg23
I15
sba(iopmop.models.schedule
Schedule
p1729
(dp1730
g64
(lp1731
sg50
I4736
sg156
I4736
sg157
g1518
sg158
I4736
sg159
g6
(S'\x07\xe1\x06\x11\x00\x00\x00\x00\x00\x00'
p1732
tp1733
Rp1734
sg163
I00
sg164
I4736
sg23
I16
sba(iopmop.models.schedule
Schedule
p1735
(dp1736
g64
(lp1737
sg50
I4736
sg156
I4736
sg157
g1518
sg158
I4736
sg159
g6
(S'\x07\xe1\x06\x12\x00\x00\x00\x00\x00\x00'
p1738
tp1739
Rp1740
sg163
I00
sg164
I4736
sg23
I17
sba(iopmop.models.schedule
Schedule
p1741
(dp1742
g64
(lp1743
sg50
I4736
sg156
I4736
sg157
g1518
sg158
I4736
sg159
g6
(S'\x07\xe1\x06\x13\x00\x00\x00\x00\x00\x00'
p1744
tp1745
Rp1746
sg163
I00
sg164
I4736
sg23
I18
sbasg23
I3
sg867
I19
sba(iopmop.models.mission
Mission
p1747
(dp1748
g5
g6
(S'\x07\xe1\x06\x01\x00\x00\x00\x00\x00\x00'
p1749
tp1750
Rp1751
sg10
(lp1752
g12
ag26
ag31
ag36
ag41
asg46
g6
(S'\x07\xe1\x06\x1e\x00\x00\x00\x00\x00\x00'
p1753
tp1754
Rp1755
sg50
I50000
sg51
S'Gold rush'
p1756
sg53
(iopmop.models.location
Location
p1757
(dp1758
g14
(iopmop.models.point
Point
p1759
(dp1760
g17
F40.518862269185945
sg18
I3
sg19
F-112.14784948551801
sg20
I125
sbsg21
g58
sg23
I4
sg24
S'Site4'
p1761
sbsg60
(lp1762
(iopmop.models.schedule
Schedule
p1763
(dp1764
g64
(lp1765
(iopmop.models.task
DigTask
p1766
(dp1767
g50
F1724.0
sg68
I7
sg69
g70
sg71
Nsg72
Nsg73
g1757
sg74
g6
(S'\x07\xe1\x06\x01\t\x00\x00\x00\x00\x00'
p1768
tp1769
Rp1770
sg78
g6
(S'\x07\xe1\x06\x01\r2\x04\x00\xf4\xd2'
p1771
tp1772
Rp1773
sg23
S'0-0'
p1774
sba(iopmop.models.task
LoadTask
p1775
(dp1776
g50
F2226.0
sg68
I14
sg69
g70
sg71
Nsg72
Nsg73
g1757
sg74
g6
(S'\x07\xe1\x06\x01\t\x00\x00\x00\x00\x00'
p1777
tp1778
Rp1779
sg78
g6
(S'\x07\xe1\x06\x01\x0c\x0c\x00\x00\x00\x00'
p1780
tp1781
Rp1782
sg23
S'0-0'
p1783
sba(iopmop.models.task
HaulageTask
p1784
(dp1785
g72
Nsg50
I351
sg68
I41
sg69
g70
sg71
Nsg94
g31
sg73
g1757
sg74
g6
(S'\x07\xe1\x06\x01\t&8\x0b\xc2\xe8'
p1786
tp1787
Rp1788
sg78
g6
(S'\x07\xe1\x06\x01\t:\x19\x02b\x1c'
p1789
tp1790
Rp1791
sg23
S'0-1'
p1792
sba(iopmop.models.task
HaulageTask
p1793
(dp1794
g72
Nsg50
I385
sg68
I25
sg69
g70
sg71
Nsg94
g31
sg73
g1757
sg74
g6
(S'\x07\xe1\x06\x01\n\x12\x05\x01b\x84'
p1795
tp1796
Rp1797
sg78
g6
(S'\x07\xe1\x06\x01\n%$\x05\x8b\xb5'
p1798
tp1799
Rp1800
sg23
S'0-1'
p1801
sba(iopmop.models.task
HaulageTask
p1802
(dp1803
g72
Nsg50
I452
sg68
I47
sg69
g70
sg71
Nsg94
g31
sg73
g1757
sg74
g6
(S'\x07\xe1\x06\x01\n54\x00~\xc8'
p1804
tp1805
Rp1806
sg78
g6
(S'\x07\xe1\x06\x01\x0b\x0c2\n\xc0\x14'
p1807
tp1808
Rp1809
sg23
S'0-1'
p1810
sba(iopmop.models.task
HaulageTask
p1811
(dp1812
g72
Nsg50
I356
sg68
I29
sg69
g70
sg71
Nsg94
g31
sg73
g1757
sg74
g6
(S'\x07\xe1\x06\x01\x0b\x15\x18\x08\xe3\xcb'
p1813
tp1814
Rp1815
sg78
g6
(S'\x07\xe1\x06\x01\x0b)$\n(\xe8'
p1816
tp1817
Rp1818
sg23
S'0-1'
p1819
sba(iopmop.models.task
HaulageTask
p1820
(dp1821
g72
Nsg50
I384
sg68
I24
sg69
g70
sg71
Nsg94
g31
sg73
g1757
sg74
g6
(S'\x07\xe1\x06\x01\x0c\x03\x10\x08\x12?'
p1822
tp1823
Rp1824
sg78
g6
(S'\x07\xe1\x06\x01\x0c\x17&\x05\x93\xc6'
p1825
tp1826
Rp1827
sg23
S'0-1'
p1828
sbasg50
I1724
sg156
F0.0
sg157
g1747
sg158
F-502.0
sg159
g6
(S'\x07\xe1\x06\x01\x00\x00\x00\x00\x00\x00'
p1829
tp1830
Rp1831
sg163
I01
sg164
F-204.0
sg23
I0
sba(iopmop.models.schedule
Schedule
p1832
(dp1833
g64
(lp1834
sg50
I1724
sg156
I1724
sg157
g1747
sg158
I1724
sg159
g6
(S'\x07\xe1\x06\x02\x00\x00\x00\x00\x00\x00'
p1835
tp1836
Rp1837
sg163
I00
sg164
I1724
sg23
I1
sba(iopmop.models.schedule
Schedule
p1838
(dp1839
g64
(lp1840
sg50
I1724
sg156
I1724
sg157
g1747
sg158
I1724
sg159
g6
(S'\x07\xe1\x06\x03\x00\x00\x00\x00\x00\x00'
p1841
tp1842
Rp1843
sg163
I00
sg164
I1724
sg23
I2
sba(iopmop.models.schedule
Schedule
p1844
(dp1845
g64
(lp1846
sg50
I1724
sg156
I1724
sg157
g1747
sg158
I1724
sg159
g6
(S'\x07\xe1\x06\x04\x00\x00\x00\x00\x00\x00'
p1847
tp1848
Rp1849
sg163
I00
sg164
I1724
sg23
I3
sba(iopmop.models.schedule
Schedule
p1850
(dp1851
g64
(lp1852
sg50
I1724
sg156
I1724
sg157
g1747
sg158
I1724
sg159
g6
(S'\x07\xe1\x06\x05\x00\x00\x00\x00\x00\x00'
p1853
tp1854
Rp1855
sg163
I00
sg164
I1724
sg23
I4
sba(iopmop.models.schedule
Schedule
p1856
(dp1857
g64
(lp1858
sg50
I1724
sg156
I1724
sg157
g1747
sg158
I1724
sg159
g6
(S'\x07\xe1\x06\x06\x00\x00\x00\x00\x00\x00'
p1859
tp1860
Rp1861
sg163
I00
sg164
I1724
sg23
I5
sba(iopmop.models.schedule
Schedule
p1862
(dp1863
g64
(lp1864
sg50
I1724
sg156
I1724
sg157
g1747
sg158
I1724
sg159
g6
(S'\x07\xe1\x06\x07\x00\x00\x00\x00\x00\x00'
p1865
tp1866
Rp1867
sg163
I00
sg164
I1724
sg23
I6
sba(iopmop.models.schedule
Schedule
p1868
(dp1869
g64
(lp1870
sg50
I1724
sg156
I1724
sg157
g1747
sg158
I1724
sg159
g6
(S'\x07\xe1\x06\x08\x00\x00\x00\x00\x00\x00'
p1871
tp1872
Rp1873
sg163
I00
sg164
I1724
sg23
I7
sba(iopmop.models.schedule
Schedule
p1874
(dp1875
g64
(lp1876
sg50
I1724
sg156
I1724
sg157
g1747
sg158
I1724
sg159
g6
(S'\x07\xe1\x06\t\x00\x00\x00\x00\x00\x00'
p1877
tp1878
Rp1879
sg163
I00
sg164
I1724
sg23
I8
sba(iopmop.models.schedule
Schedule
p1880
(dp1881
g64
(lp1882
sg50
I1724
sg156
I1724
sg157
g1747
sg158
I1724
sg159
g6
(S'\x07\xe1\x06\n\x00\x00\x00\x00\x00\x00'
p1883
tp1884
Rp1885
sg163
I00
sg164
I1724
sg23
I9
sba(iopmop.models.schedule
Schedule
p1886
(dp1887
g64
(lp1888
sg50
I1724
sg156
I1724
sg157
g1747
sg158
I1724
sg159
g6
(S'\x07\xe1\x06\x0b\x00\x00\x00\x00\x00\x00'
p1889
tp1890
Rp1891
sg163
I00
sg164
I1724
sg23
I10
sba(iopmop.models.schedule
Schedule
p1892
(dp1893
g64
(lp1894
sg50
I1724
sg156
I1724
sg157
g1747
sg158
I1724
sg159
g6
(S'\x07\xe1\x06\x0c\x00\x00\x00\x00\x00\x00'
p1895
tp1896
Rp1897
sg163
I00
sg164
I1724
sg23
I11
sba(iopmop.models.schedule
Schedule
p1898
(dp1899
g64
(lp1900
sg50
I1724
sg156
I1724
sg157
g1747
sg158
I1724
sg159
g6
(S'\x07\xe1\x06\r\x00\x00\x00\x00\x00\x00'
p1901
tp1902
Rp1903
sg163
I00
sg164
I1724
sg23
I12
sba(iopmop.models.schedule
Schedule
p1904
(dp1905
g64
(lp1906
sg50
I1724
sg156
I1724
sg157
g1747
sg158
I1724
sg159
g6
(S'\x07\xe1\x06\x0e\x00\x00\x00\x00\x00\x00'
p1907
tp1908
Rp1909
sg163
I00
sg164
I1724
sg23
I13
sba(iopmop.models.schedule
Schedule
p1910
(dp1911
g64
(lp1912
sg50
I1724
sg156
I1724
sg157
g1747
sg158
I1724
sg159
g6
(S'\x07\xe1\x06\x0f\x00\x00\x00\x00\x00\x00'
p1913
tp1914
Rp1915
sg163
I00
sg164
I1724
sg23
I14
sba(iopmop.models.schedule
Schedule
p1916
(dp1917
g64
(lp1918
sg50
I1724
sg156
I1724
sg157
g1747
sg158
I1724
sg159
g6
(S'\x07\xe1\x06\x10\x00\x00\x00\x00\x00\x00'
p1919
tp1920
Rp1921
sg163
I00
sg164
I1724
sg23
I15
sba(iopmop.models.schedule
Schedule
p1922
(dp1923
g64
(lp1924
sg50
I1724
sg156
I1724
sg157
g1747
sg158
I1724
sg159
g6
(S'\x07\xe1\x06\x11\x00\x00\x00\x00\x00\x00'
p1925
tp1926
Rp1927
sg163
I00
sg164
I1724
sg23
I16
sba(iopmop.models.schedule
Schedule
p1928
(dp1929
g64
(lp1930
sg50
I1724
sg156
I1724
sg157
g1747
sg158
I1724
sg159
g6
(S'\x07\xe1\x06\x12\x00\x00\x00\x00\x00\x00'
p1931
tp1932
Rp1933
sg163
I00
sg164
I1724
sg23
I17
sba(iopmop.models.schedule
Schedule
p1934
(dp1935
g64
(lp1936
sg50
I1724
sg156
I1724
sg157
g1747
sg158
I1724
sg159
g6
(S'\x07\xe1\x06\x13\x00\x00\x00\x00\x00\x00'
p1937
tp1938
Rp1939
sg163
I00
sg164
I1724
sg23
I18
sba(iopmop.models.schedule
Schedule
p1940
(dp1941
g64
(lp1942
sg50
I1724
sg156
I1724
sg157
g1747
sg158
I1724
sg159
g6
(S'\x07\xe1\x06\x14\x00\x00\x00\x00\x00\x00'
p1943
tp1944
Rp1945
sg163
I00
sg164
I1724
sg23
I19
sba(iopmop.models.schedule
Schedule
p1946
(dp1947
g64
(lp1948
sg50
I1724
sg156
I1724
sg157
g1747
sg158
I1724
sg159
g6
(S'\x07\xe1\x06\x15\x00\x00\x00\x00\x00\x00'
p1949
tp1950
Rp1951
sg163
I00
sg164
I1724
sg23
I20
sba(iopmop.models.schedule
Schedule
p1952
(dp1953
g64
(lp1954
sg50
I1724
sg156
I1724
sg157
g1747
sg158
I1724
sg159
g6
(S'\x07\xe1\x06\x16\x00\x00\x00\x00\x00\x00'
p1955
tp1956
Rp1957
sg163
I00
sg164
I1724
sg23
I21
sba(iopmop.models.schedule
Schedule
p1958
(dp1959
g64
(lp1960
sg50
I1724
sg156
I1724
sg157
g1747
sg158
I1724
sg159
g6
(S'\x07\xe1\x06\x17\x00\x00\x00\x00\x00\x00'
p1961
tp1962
Rp1963
sg163
I00
sg164
I1724
sg23
I22
sba(iopmop.models.schedule
Schedule
p1964
(dp1965
g64
(lp1966
sg50
I1724
sg156
I1724
sg157
g1747
sg158
I1724
sg159
g6
(S'\x07\xe1\x06\x18\x00\x00\x00\x00\x00\x00'
p1967
tp1968
Rp1969
sg163
I00
sg164
I1724
sg23
I23
sba(iopmop.models.schedule
Schedule
p1970
(dp1971
g64
(lp1972
sg50
I1724
sg156
I1724
sg157
g1747
sg158
I1724
sg159
g6
(S'\x07\xe1\x06\x19\x00\x00\x00\x00\x00\x00'
p1973
tp1974
Rp1975
sg163
I00
sg164
I1724
sg23
I24
sba(iopmop.models.schedule
Schedule
p1976
(dp1977
g64
(lp1978
(iopmop.models.task
DigTask
p1979
(dp1980
g50
F1724.0
sg68
I9
sg69
g481
sg71
Nsg72
Nsg73
g1757
sg74
g6
(S'\x07\xe1\x06\x1a\t\x00\x00\x00\x00\x00'
p1981
tp1982
Rp1983
sg78
g6
(S'\x07\xe1\x06\x1a\x0c\x0f\x15\x07\x83\xeb'
p1984
tp1985
Rp1986
sg23
S'25-0'
p1987
sba(iopmop.models.task
LoadTask
p1988
(dp1989
g50
F2345.0
sg68
I15
sg69
g481
sg71
Nsg72
Nsg73
g1757
sg74
g6
(S'\x07\xe1\x06\x1a\t\x00\x00\x00\x00\x00'
p1990
tp1991
Rp1992
sg78
g6
(S'\x07\xe1\x06\x1a\x0b\x1e\x00\x00\x00\x00'
p1993
tp1994
Rp1995
sg23
S'25-0'
p1996
sba(iopmop.models.task
HaulageTask
p1997
(dp1998
g72
Nsg50
I351
sg68
I41
sg69
g481
sg71
Nsg94
g31
sg73
g1757
sg74
g6
(S'\x07\xe1\x06\x1a\t&8\x0b\xc2\xe8'
p1999
tp2000
Rp2001
sg78
g6
(S'\x07\xe1\x06\x1a\t:\x19\x02b\x1c'
p2002
tp2003
Rp2004
sg23
S'25-1'
p2005
sba(iopmop.models.task
HaulageTask
p2006
(dp2007
g72
Nsg50
I385
sg68
I25
sg69
g481
sg71
Nsg94
g31
sg73
g1757
sg74
g6
(S'\x07\xe1\x06\x1a\t:!\x0c{\x93'
p2008
tp2009
Rp2010
sg78
g6
(S'\x07\xe1\x06\x1a\n\x12\x05\x01b\x84'
p2011
tp2012
Rp2013
sg23
S'25-1'
p2014
sba(iopmop.models.task
HaulageTask
p2015
(dp2016
g72
Nsg50
I452
sg68
I47
sg69
g481
sg71
Nsg94
g31
sg73
g1757
sg74
g6
(S'\x07\xe1\x06\x1a\n"5\x05\x7f\xbc'
p2017
tp2018
Rp2019
sg78
g6
(S'\x07\xe1\x06\x1a\n54\x00~\xc8'
p2020
tp2021
Rp2022
sg23
S'25-1'
p2023
sba(iopmop.models.task
HaulageTask
p2024
(dp2025
g72
Nsg50
I351
sg68
I41
sg69
g481
sg71
Nsg94
g31
sg73
g1757
sg74
g6
(S'\x07\xe1\x06\x1a\n82\x04\xc48'
p2026
tp2027
Rp2028
sg78
g6
(S'\x07\xe1\x06\x1a\x0b\x10\x12\n\xa5\xac'
p2029
tp2030
Rp2031
sg23
S'25-1'
p2032
sba(iopmop.models.task
HaulageTask
p2033
(dp2034
g72
Nsg50
I385
sg68
I25
sg69
g481
sg71
Nsg94
g31
sg73
g1757
sg74
g6
(S'\x07\xe1\x06\x1a\x0b\x10&\r\xde\x17'
p2035
tp2036
Rp2037
sg78
g6
(S'\x07\xe1\x06\x1a\x0b$\n\x02\xc5\x08'
p2038
tp2039
Rp2040
sg23
S'25-1'
p2041
sbasg50
I1724
sg156
F0.0
sg157
g1747
sg158
F-621.0
sg159
g6
(S'\x07\xe1\x06\x1a\x00\x00\x00\x00\x00\x00'
p2042
tp2043
Rp2044
sg163
I01
sg164
F-200.0
sg23
I25
sba(iopmop.models.schedule
Schedule
p2045
(dp2046
g64
(lp2047
sg50
I1724
sg156
I1724
sg157
g1747
sg158
I1724
sg159
g6
(S'\x07\xe1\x06\x1b\x00\x00\x00\x00\x00\x00'
p2048
tp2049
Rp2050
sg163
I00
sg164
I1724
sg23
I26
sba(iopmop.models.schedule
Schedule
p2051
(dp2052
g64
(lp2053
sg50
I1724
sg156
I1724
sg157
g1747
sg158
I1724
sg159
g6
(S'\x07\xe1\x06\x1c\x00\x00\x00\x00\x00\x00'
p2054
tp2055
Rp2056
sg163
I00
sg164
I1724
sg23
I27
sba(iopmop.models.schedule
Schedule
p2057
(dp2058
g64
(lp2059
sg50
I1724
sg156
I1724
sg157
g1747
sg158
I1724
sg159
g6
(S'\x07\xe1\x06\x1d\x00\x00\x00\x00\x00\x00'
p2060
tp2061
Rp2062
sg163
I00
sg164
I1724
sg23
I28
sbasg23
I4
sg867
I29
sbasS'machines'
p2063
(lp2064
(iopmop.models.machine
Shovel
p2065
(dp2066
S'weightCapacity'
p2067
I95
sS'weight'
p2068
I1158
sg14
(iopmop.models.point
Point
p2069
(dp2070
g17
F40.5174143845541
sg18
I17
sg19
F-112.1200861232387
sg20
I225
sbsS'speed'
p2071
I15
sS'staticFuelConsumption'
p2072
I109
sS'isAvailable'
p2073
I01
sS'fuelConsumption'
p2074
I187
sS'model'
p2075
S'SHV0'
p2076
sS'fuelCapacity'
p2077
I10186
sg23
I0
sba(iopmop.models.machine
Shovel
p2078
(dp2079
g2067
I76
sg2068
I1973
sg14
(iopmop.models.point
Point
p2080
(dp2081
g17
F40.51952590776382
sg18
I1
sg19
F-112.14713725991055
sg20
I123
sbsg2071
I16
sg2072
I93
sg2073
I01
sg2074
I178
sg2075
S'SHV1'
p2082
sg2077
I9966
sg23
I1
sba(iopmop.models.machine
Shovel
p2083
(dp2084
g2067
I41
sg2068
I1403
sg14
(iopmop.models.point
Point
p2085
(dp2086
g17
F40.519889282781556
sg18
I7
sg19
F-112.1570778643424
sg20
I111
sbsg2071
I16
sg2072
I120
sg2073
I01
sg2074
I197
sg2075
S'SHV2'
p2087
sg2077
I8832
sg23
I2
sba(iopmop.models.machine
Shovel
p2088
(dp2089
g2067
I28
sg2068
I1825
sg14
(iopmop.models.point
Point
p2090
(dp2091
g17
F40.51674876769078
sg18
I4
sg19
F-112.13403198666379
sg20
I233
sbsg2071
I12
sg2072
I81
sg2073
I01
sg2074
I176
sg2075
S'SHV3'
p2092
sg2077
I10439
sg23
I3
sba(iopmop.models.machine
Shovel
p2093
(dp2094
g2067
I85
sg2068
I1433
sg14
g15
sg2071
I19
sg2072
I86
sg2073
I01
sg2074
I173
sg2075
S'SHV4'
p2095
sg2077
I11404
sg23
I4
sba(iopmop.models.machine
Shovel
p2096
(dp2097
g2067
I111
sg2068
I1174
sg14
(iopmop.models.point
Point
p2098
(dp2099
g17
F40.528067561722764
sg18
I2
sg19
F-112.14214828710544
sg20
I132
sbsg2071
I12
sg2072
I95
sg2073
I01
sg2074
I193
sg2075
S'SHV5'
p2100
sg2077
I8187
sg23
I5
sba(iopmop.models.machine
Shovel
p2101
(dp2102
g2067
I60
sg2068
I1046
sg14
g56
sg2071
I14
sg2072
I107
sg2073
I01
sg2074
I173
sg2075
S'SHV6'
p2103
sg2077
I8790
sg23
I6
sba(iopmop.models.machine
Shovel
p2104
(dp2105
g2067
I72
sg2068
I1475
sg14
(iopmop.models.point
Point
p2106
(dp2107
g17
F40.51967883063745
sg18
I1
sg19
F-112.14999783582493
sg20
I138
sbsg2071
I15
sg2072
I106
sg2073
I01
sg2074
I155
sg2075
S'SHV7'
p2108
sg2077
I8645
sg23
I7
sba(iopmop.models.machine
Shovel
p2109
(dp2110
g2067
I58
sg2068
I1619
sg14
(iopmop.models.point
Point
p2111
(dp2112
g17
F40.53127343080907
sg18
I3
sg19
F-112.15153489693762
sg20
I76
sbsg2071
I13
sg2072
I85
sg2073
I01
sg2074
I176
sg2075
S'SHV8'
p2113
sg2077
I9867
sg23
I8
sba(iopmop.models.machine
Shovel
p2114
(dp2115
g2067
I107
sg2068
I1060
sg14
(iopmop.models.point
Point
p2116
(dp2117
g17
F40.519089564731466
sg18
I4
sg19
F-112.15094331622777
sg20
I141
sbsg2071
I18
sg2072
I99
sg2073
I01
sg2074
I192
sg2075
S'SHV9'
p2118
sg2077
I10367
sg23
I9
sba(iopmop.models.machine
Loader
p2119
(dp2120
g2067
I48
sg2068
I356673
sg14
(iopmop.models.point
Point
p2121
(dp2122
g17
F40.52033422442912
sg18
I11
sg19
F-112.15743158337494
sg20
I115
sbsg2071
I41
sg2072
I99
sg2073
I01
sg2074
I178
sg2075
S'LOD10'
p2123
sg2077
I9925
sg23
I10
sba(iopmop.models.machine
Loader
p2124
(dp2125
g2067
I46
sg2068
I383859
sg14
(iopmop.models.point
Point
p2126
(dp2127
g17
F40.519089564731466
sg18
I3
sg19
F-112.15094331622777
sg20
I147
sbsg2071
I41
sg2072
I84
sg2073
I01
sg2074
I192
sg2075
S'LOD11'
p2128
sg2077
I11320
sg23
I11
sba(iopmop.models.machine
Loader
p2129
(dp2130
g2067
I65
sg2068
I328484
sg14
(iopmop.models.point
Point
p2131
(dp2132
g17
F40.519697181358865
sg18
I3
sg19
F-112.15714458174511
sg20
I122
sbsg2071
I44
sg2072
I113
sg2073
I01
sg2074
I189
sg2075
S'LOD12'
p2133
sg2077
I11208
sg23
I12
sba(iopmop.models.machine
Loader
p2134
(dp2135
g2067
I49
sg2068
I278766
sg14
g1530
sg2071
I40
sg2072
I84
sg2073
I01
sg2074
I155
sg2075
S'LOD13'
p2136
sg2077
I11339
sg23
I13
sba(iopmop.models.machine
Loader
p2137
(dp2138
g2067
I53
sg2068
I300604
sg14
(iopmop.models.point
Point
p2139
(dp2140
g17
F40.52199302087392
sg18
I1
sg19
F-112.1485695595245
sg20
I64
sbsg2071
I50
sg2072
I92
sg2073
I01
sg2074
I153
sg2075
S'LOD14'
p2141
sg2077
I8448
sg23
I14
sba(iopmop.models.machine
Loader
p2142
(dp2143
g2067
I67
sg2068
I265172
sg14
g2139
sg2071
I48
sg2072
I83
sg2073
I01
sg2074
I195
sg2075
S'LOD15'
p2144
sg2077
I8543
sg23
I15
sba(iopmop.models.machine
Loader
p2145
(dp2146
g2067
I54
sg2068
I259558
sg14
(iopmop.models.point
Point
p2147
(dp2148
g17
F40.51674367004452
sg18
I8
sg19
F-112.15372610635563
sg20
I130
sbsg2071
I47
sg2072
I90
sg2073
I01
sg2074
I198
sg2075
S'LOD16'
p2149
sg2077
I11881
sg23
I16
sba(iopmop.models.machine
Loader
p2150
(dp2151
g2067
I65
sg2068
I336589
sg14
g15
sg2071
I47
sg2072
I118
sg2073
I01
sg2074
I163
sg2075
S'LOD17'
p2152
sg2077
I10457
sg23
I17
sba(iopmop.models.machine
Loader
p2153
(dp2154
g2067
I46
sg2068
I275050
sg14
(iopmop.models.point
Point
p2155
(dp2156
g17
F40.52196651518252
sg18
I10
sg19
F-112.15500686116025
sg20
I10
sbsg2071
I43
sg2072
I89
sg2073
I01
sg2074
I177
sg2075
S'LOD18'
p2157
sg2077
I10208
sg23
I18
sba(iopmop.models.machine
Loader
p2158
(dp2159
g2067
I61
sg2068
I369300
sg14
(iopmop.models.point
Point
p2160
(dp2161
g17
F40.51802910641094
sg18
I16
sg19
F-112.1605648358053
sg20
I16
sbsg2071
I40
sg2072
I119
sg2073
I01
sg2074
I191
sg2075
S'LOD19'
p2162
sg2077
I11274
sg23
I19
sba(iopmop.models.machine
Truck
p2163
(dp2164
g2067
I257
sg2068
I358
sg14
g43
sg2071
I46
sg2072
I90
sg2073
I01
sg2074
I199
sg2075
S'TRK20'
p2165
sg2077
I9978
sg23
I20
sba(iopmop.models.machine
Truck
p2166
(dp2167
g2067
I478
sg2068
I335
sg14
(iopmop.models.point
Point
p2168
(dp2169
g17
F40.51722613443143
sg18
I3
sg19
F-112.13269675223654
sg20
I200
sbsg2071
I49
sg2072
I118
sg2073
I01
sg2074
I185
sg2075
S'TRK21'
p2170
sg2077
I11376
sg23
I21
sba(iopmop.models.machine
Truck
p2171
(dp2172
g2067
I474
sg2068
I282
sg14
(iopmop.models.point
Point
p2173
(dp2174
g17
F40.53002936641421
sg18
I2
sg19
F-112.14985069036732
sg20
I97
sbsg2071
I48
sg2072
I88
sg2073
I01
sg2074
I200
sg2075
S'TRK22'
p2175
sg2077
I11535
sg23
I22
sba(iopmop.models.machine
Truck
p2176
(dp2177
g2067
I296
sg2068
I273
sg14
(iopmop.models.point
Point
p2178
(dp2179
g17
F40.52595648401059
sg18
I5
sg19
F-112.1545160579335
sg20
I78
sbsg2071
I46
sg2072
I83
sg2073
I01
sg2074
I161
sg2075
S'TRK23'
p2180
sg2077
I11499
sg23
I23
sba(iopmop.models.machine
Truck
p2181
(dp2182
g2067
I384
sg2068
I381
sg14
(iopmop.models.point
Point
p2183
(dp2184
g17
F40.51882860152375
sg18
I2
sg19
F-112.15250166522429
sg20
I121
sbsg2071
I43
sg2072
I88
sg2073
I01
sg2074
I165
sg2075
S'TRK24'
p2185
sg2077
I8138
sg23
I24
sba(iopmop.models.machine
Truck
p2186
(dp2187
g2067
I385
sg2068
I283
sg14
(iopmop.models.point
Point
p2188
(dp2189
g17
F40.52222904690337
sg18
I2
sg19
F-112.15097983410101
sg20
I86
sbsg2071
I47
sg2072
I105
sg2073
I01
sg2074
I159
sg2075
S'TRK25'
p2190
sg2077
I9777
sg23
I25
sba(iopmop.models.machine
Truck
p2191
(dp2192
g2067
I466
sg2068
I291
sg14
(iopmop.models.point
Point
p2193
(dp2194
g17
F40.52196333372621
sg18
I7
sg19
F-112.13930995935533
sg20
I195
sbsg2071
I41
sg2072
I82
sg2073
I01
sg2074
I184
sg2075
S'TRK26'
p2195
sg2077
I9709
sg23
I26
sba(iopmop.models.machine
Truck
p2196
(dp2197
g2067
I441
sg2068
I295
sg14
(iopmop.models.point
Point
p2198
(dp2199
g17
F40.52178811121781
sg18
I28
sg19
F-112.12502244658276
sg20
I177
sbsg2071
I44
sg2072
I82
sg2073
I01
sg2074
I185
sg2075
S'TRK27'
p2200
sg2077
I10801
sg23
I27
sba(iopmop.models.machine
Truck
p2201
(dp2202
g2067
I442
sg2068
I280
sg14
(iopmop.models.point
Point
p2203
(dp2204
g17
F40.52505944774498
sg18
I5
sg19
F-112.1482852548599
sg20
I93
sbsg2071
I42
sg2072
I91
sg2073
I01
sg2074
I188
sg2075
S'TRK28'
p2205
sg2077
I9000
sg23
I28
sba(iopmop.models.machine
Truck
p2206
(dp2207
g2067
I356
sg2068
I254
sg14
g43
sg2071
I42
sg2072
I85
sg2073
I01
sg2074
I153
sg2075
S'TRK29'
p2208
sg2077
I9566
sg23
I29
sba(iopmop.models.machine
Truck
p2209
(dp2210
g2067
I315
sg2068
I259
sg14
(iopmop.models.point
Point
p2211
(dp2212
g17
F40.5226281282086
sg18
I2
sg19
F-112.15311724145829
sg20
I68
sbsg2071
I43
sg2072
I93
sg2073
I01
sg2074
I152
sg2075
S'TRK30'
p2213
sg2077
I10678
sg23
I30
sba(iopmop.models.machine
Truck
p2214
(dp2215
g2067
I399
sg2068
I279
sg14
(iopmop.models.point
Point
p2216
(dp2217
g17
F40.5198868051858
sg18
I1
sg19
F-112.15163398332402
sg20
I145
sbsg2071
I40
sg2072
I81
sg2073
I01
sg2074
I164
sg2075
S'TRK31'
p2218
sg2077
I9054
sg23
I31
sba(iopmop.models.machine
Truck
p2219
(dp2220
g2067
I353
sg2068
I344
sg14
g2106
sg2071
I45
sg2072
I91
sg2073
I01
sg2074
I192
sg2075
S'TRK32'
p2221
sg2077
I11359
sg23
I32
sba(iopmop.models.machine
Truck
p2222
(dp2223
g2067
I459
sg2068
I256
sg14
g2090
sg2071
I49
sg2072
I82
sg2073
I01
sg2074
I166
sg2075
S'TRK33'
p2224
sg2077
I8612
sg23
I33
sba(iopmop.models.machine
Truck
p2225
(dp2226
g2067
I382
sg2068
I337
sg14
(iopmop.models.point
Point
p2227
(dp2228
g17
F40.52154760144885
sg18
I16
sg19
F-112.14969724194981
sg20
I49
sbsg2071
I40
sg2072
I116
sg2073
I01
sg2074
I184
sg2075
S'TRK34'
p2229
sg2077
I10270
sg23
I34
sba(iopmop.models.machine
Truck
p2230
(dp2231
g2067
I490
sg2068
I309
sg14
(iopmop.models.point
Point
p2232
(dp2233
g17
F40.52204811588998
sg18
I25
sg19
F-112.15288531678806
sg20
I58
sbsg2071
I43
sg2072
I120
sg2073
I01
sg2074
I171
sg2075
S'TRK35'
p2234
sg2077
I8602
sg23
I35
sba(iopmop.models.machine
Truck
p2235
(dp2236
g2067
I316
sg2068
I295
sg14
(iopmop.models.point
Point
p2237
(dp2238
g17
F40.5224649901301
sg18
I5
sg19
F-112.15391785781912
sg20
I71
sbsg2071
I43
sg2072
I113
sg2073
I01
sg2074
I186
sg2075
S'TRK36'
p2239
sg2077
I9483
sg23
I36
sba(iopmop.models.machine
Truck
p2240
(dp2241
g2067
I252
sg2068
I339
sg14
g2131
sg2071
I46
sg2072
I105
sg2073
I01
sg2074
I181
sg2075
S'TRK37'
p2242
sg2077
I8283
sg23
I37
sba(iopmop.models.machine
Truck
p2243
(dp2244
g2067
I342
sg2068
I324
sg14
(iopmop.models.point
Point
p2245
(dp2246
g17
F40.51964416685738
sg18
I2
sg19
F-112.15076226431802
sg20
I146
sbsg2071
I49
sg2072
I118
sg2073
I01
sg2074
I183
sg2075
S'TRK38'
p2247
sg2077
I8057
sg23
I38
sba(iopmop.models.machine
Truck
p2248
(dp2249
g2067
I401
sg2068
I390
sg14
(iopmop.models.point
Point
p2250
(dp2251
g17
F40.51290707153489
sg18
I1
sg19
F-112.14024398274228
sg20
I230
sbsg2071
I43
sg2072
I110
sg2073
I01
sg2074
I170
sg2075
S'TRK39'
p2252
sg2077
I8189
sg23
I39
sba(iopmop.models.machine
Truck
p2253
(dp2254
g2067
I295
sg2068
I363
sg14
(iopmop.models.point
Point
p2255
(dp2256
g17
F40.52451305258641
sg18
I1
sg19
F-112.10572931713864
sg20
I209
sbsg2071
I47
sg2072
I91
sg2073
I01
sg2074
I158
sg2075
S'TRK40'
p2257
sg2077
I8767
sg23
I40
sba(iopmop.models.machine
Truck
p2258
(dp2259
g2067
I351
sg2068
I250
sg14
(iopmop.models.point
Point
p2260
(dp2261
g17
F40.521600289092895
sg18
I3
sg19
F-112.15016361369356
sg20
I87
sbsg2071
I46
sg2072
I87
sg2073
I01
sg2074
I160
sg2075
S'TRK41'
p2262
sg2077
I10670
sg23
I41
sba(iopmop.models.machine
Truck
p2263
(dp2264
g2067
I303
sg2068
I398
sg14
g2245
sg2071
I47
sg2072
I101
sg2073
I01
sg2074
I171
sg2075
S'TRK42'
p2265
sg2077
I8109
sg23
I42
sba(iopmop.models.machine
Truck
p2266
(dp2267
g2067
I319
sg2068
I349
sg14
(iopmop.models.point
Point
p2268
(dp2269
g17
F40.523840237856376
sg18
I22
sg19
F-112.15156826920315
sg20
I55
sbsg2071
I40
sg2072
I120
sg2073
I01
sg2074
I167
sg2075
S'TRK43'
p2270
sg2077
I10096
sg23
I43
sba(iopmop.models.machine
Truck
p2271
(dp2272
g2067
I334
sg2068
I262
sg14
(iopmop.models.point
Point
p2273
(dp2274
g17
F40.530417151348395
sg18
I4
sg19
F-112.15297189238458
sg20
I77
sbsg2071
I41
sg2072
I87
sg2073
I01
sg2074
I177
sg2075
S'TRK44'
p2275
sg2077
I8580
sg23
I44
sba(iopmop.models.machine
Truck
p2276
(dp2277
g2067
I322
sg2068
I391
sg14
(iopmop.models.point
Point
p2278
(dp2279
g17
F40.52456587015929
sg18
I4
sg19
F-112.13865073597219
sg20
I192
sbsg2071
I44
sg2072
I91
sg2073
I01
sg2074
I174
sg2075
S'TRK45'
p2280
sg2077
I8088
sg23
I45
sba(iopmop.models.machine
Truck
p2281
(dp2282
g2067
I324
sg2068
I292
sg14
(iopmop.models.point
Point
p2283
(dp2284
g17
F40.51543389498886
sg18
I4
sg19
F-112.13385560637846
sg20
I201
sbsg2071
I41
sg2072
I83
sg2073
I01
sg2074
I188
sg2075
S'TRK46'
p2285
sg2077
I10598
sg23
I46
sba(iopmop.models.machine
Truck
p2286
(dp2287
g2067
I452
sg2068
I366
sg14
g28
sg2071
I50
sg2072
I104
sg2073
I01
sg2074
I181
sg2075
S'TRK47'
p2288
sg2077
I10582
sg23
I47
sba(iopmop.models.machine
Truck
p2289
(dp2290
g2067
I461
sg2068
I299
sg14
(iopmop.models.point
Point
p2291
(dp2292
g17
F40.529357119273065
sg18
I1
sg19
F-112.14197132534787
sg20
I189
sbsg2071
I49
sg2072
I117
sg2073
I01
sg2074
I175
sg2075
S'TRK48'
p2293
sg2077
I8868
sg23
I48
sba(iopmop.models.machine
Truck
p2294
(dp2295
g2067
I292
sg2068
I368
sg14
(iopmop.models.point
Point
p2296
(dp2297
g17
F40.52022072529596
sg18
I5
sg19
F-112.1557085714515
sg20
I109
sbsg2071
I49
sg2072
I81
sg2073
I01
sg2074
I193
sg2075
S'TRK49'
p2298
sg2077
I9283
sg23
I49
sbasS'locations'
p2299
(lp2300
(iopmop.models.location
Location
p2301
(dp2302
g14
(iopmop.models.point
Point
p2303
(dp2304
g17
F40.51919151519808
sg18
I9
sg19
F-112.14201155848309
sg20
I197
sbsg21
g58
sg23
I0
sg24
S'Site0'
p2305
sbag54
ag878
ag1528
ag1757
ag12
ag26
ag31
ag36
ag41
a(iopmop.models.location
Location
p2306
(dp2307
g14
(iopmop.models.point
Point
p2308
(dp2309
g17
F40.528875990263
sg18
I8
sg19
F-112.13703606076047
sg20
I245
sbsg21
S'fuel'
p2310
sg23
I10
sg24
S'Fuel10'
p2311
sba(iopmop.models.location
Location
p2312
(dp2313
g14
g2260
sg21
g2310
sg23
I11
sg24
S'Fuel11'
p2314
sbas.