(dp0
S'missions'
p1
(lp2
(iopmop.models.mission
Mission
p3
(dp4
S'startDate'
p5
cdatetime
datetime
p6
(S'\x07\xe1\x07\x01\x00\x00\x00\x00\x00\x00'
p7
tp8
Rp9
sS'dumpLocations'
p10
(lp11
(iopmop.models.location
Location
p12
(dp13
S'point'
p14
(iopmop.models.point
Point
p15
(dp16
S'lat'
p17
F40.526362112063275
sS'index'
p18
I2
sS'lng'
p19
F-112.14034315782186
sS'nid'
p20
I190
sbsS'type'
p21
S'dump'
p22
sS'id'
p23
I5
sS'name'
p24
S'Dump5'
p25
sba(iopmop.models.location
Location
p26
(dp27
g14
(iopmop.models.point
Point
p28
(dp29
g17
F40.527597683697266
sg18
I3
sg19
F-112.15038007082154
sg20
I83
sbsg21
S'fuel'
p30
sg23
I6
sg24
S'Fuel6'
p31
sba(iopmop.models.location
Location
p32
(dp33
g14
(iopmop.models.point
Point
p34
(dp35
g17
F40.50912571625677
sg18
I8
sg19
F-112.14476031939245
sg20
I205
sbsg21
g30
sg23
I7
sg24
S'Fuel7'
p36
sbasS'endDate'
p37
g6
(S'\x07\xe1\x07\x1e\x00\x00\x00\x00\x00\x00'
p38
tp39
Rp40
sS'target'
p41
I80000
sS'title'
p42
S'Iron min'
p43
sS'digLocation'
p44
(iopmop.models.location
Location
p45
(dp46
g14
g15
sg21
S'dig'
p47
sg23
I1
sg24
S'Site1'
p48
sbsS'schedules'
p49
(lp50
(iopmop.models.schedule
Schedule
p51
(dp52
S'tasks'
p53
(lp54
sg41
I2758
sS'remainingDig'
p55
I2758
sS'mission'
p56
g3
sS'remainingLoad'
p57
I2758
sS'date'
p58
g6
(S'\x07\xe1\x07\x01\x00\x00\x00\x00\x00\x00'
p59
tp60
Rp61
sS'allocated'
p62
I00
sS'remainingHaulage'
p63
I2758
sg23
I0
sba(iopmop.models.schedule
Schedule
p64
(dp65
g53
(lp66
(iopmop.models.task
DigTask
p67
(dp68
g41
F2758.0
sS'machineId'
p69
I3
sS'comments'
p70
S'None'
p71
sS'actualTarget'
p72
NsS'cost'
p73
NsS'location'
p74
g45
sS'startTime'
p75
g6
(S'\x07\xe1\x07\x02\t\x00\x00\x00\x00\x00'
p76
tp77
Rp78
sS'endTime'
p79
g6
(S'\x07\xe1\x07\x02\x0f7\x1b\x0e\xa5\xb4'
p80
tp81
Rp82
sg23
S'1-0'
p83
sba(iopmop.models.task
LoadTask
p84
(dp85
g41
F3250.0
sg69
I7
sg70
g71
sg72
Nsg73
Nsg74
g45
sg75
g6
(S'\x07\xe1\x07\x02\t\x00\x00\x00\x00\x00'
p86
tp87
Rp88
sg79
g6
(S'\x07\xe1\x07\x02\x0e\x1e\x00\x00\x00\x00'
p89
tp90
Rp91
sg23
S'1-0'
p92
sba(iopmop.models.task
HaulageTask
p93
(dp94
g41
I471
sg69
I14
sg70
g71
sS'dumpLocation'
p95
g12
sg72
Nsg73
Nsg74
g45
sg75
g6
(S'\x07\xe1\x07\x02\t0\x00\x00\x00\x00'
p96
tp97
Rp98
sg79
g6
(S'\x07\xe1\x07\x02\n\x00\x00\x00\x00\x00'
p99
tp100
Rp101
sg23
S'1-1'
p102
sba(iopmop.models.task
HaulageTask
p103
(dp104
g41
I471
sg69
I14
sg70
g71
sg95
g12
sg72
Nsg73
Nsg74
g45
sg75
g6
(S'\x07\xe1\x07\x02\n$\x00\x00\x00\x00'
p105
tp106
Rp107
sg79
g6
(S'\x07\xe1\x07\x02\n0\x00\x00\x00\x00'
p108
tp109
Rp110
sg23
S'1-1'
p111
sba(iopmop.models.task
HaulageTask
p112
(dp113
g41
I471
sg69
I14
sg70
g71
sg95
g12
sg72
Nsg73
Nsg74
g45
sg75
g6
(S'\x07\xe1\x07\x02\x0b\x18\x00\x00\x00\x00'
p114
tp115
Rp116
sg79
g6
(S'\x07\xe1\x07\x02\x0b$\x00\x00\x00\x00'
p117
tp118
Rp119
sg23
S'1-1'
p120
sba(iopmop.models.task
HaulageTask
p121
(dp122
g41
I417
sg69
I11
sg70
g71
sg95
g12
sg72
Nsg73
Nsg74
g45
sg75
g6
(S'\x07\xe1\x07\x02\x0c\x0c\x00\x00\x00\x00'
p123
tp124
Rp125
sg79
g6
(S'\x07\xe1\x07\x02\x0c\x18\x00\x00\x00\x00'
p126
tp127
Rp128
sg23
S'1-1'
p129
sba(iopmop.models.task
HaulageTask
p130
(dp131
g41
I471
sg69
I14
sg70
g71
sg95
g12
sg72
Nsg73
Nsg74
g45
sg75
g6
(S'\x07\xe1\x07\x02\r\x00\x00\x00\x00\x00'
p132
tp133
Rp134
sg79
g6
(S'\x07\xe1\x07\x02\r\x0c\x00\x00\x00\x00'
p135
tp136
Rp137
sg23
S'1-1'
p138
sba(iopmop.models.task
HaulageTask
p139
(dp140
g41
I417
sg69
I11
sg70
g71
sg95
g12
sg72
Nsg73
Nsg74
g45
sg75
g6
(S'\x07\xe1\x07\x02\r0\x00\x00\x00\x00'
p141
tp142
Rp143
sg79
g6
(S'\x07\xe1\x07\x02\x0e\x00\x00\x00\x00\x00'
p144
tp145
Rp146
sg23
S'1-1'
p147
sba(iopmop.models.task
HaulageTask
p148
(dp149
g41
I364
sg69
I12
sg70
g71
sg95
g12
sg72
Nsg73
Nsg74
g45
sg75
g6
(S'\x07\xe1\x07\x02\x0e\x18\x00\x00\x00\x00'
p150
tp151
Rp152
sg79
g6
(S'\x07\xe1\x07\x02\x0e$\x00\x00\x00\x00'
p153
tp154
Rp155
sg23
S'1-1'
p156
sbasg41
I2758
sg55
F0.0
sg56
g3
sg57
F-492.0
sg58
g6
(S'\x07\xe1\x07\x02\x00\x00\x00\x00\x00\x00'
p157
tp158
Rp159
sg62
I01
sg63
F-324.0
sg23
I1
sba(iopmop.models.schedule
Schedule
p160
(dp161
g53
(lp162
sg41
I2758
sg55
I2758
sg56
g3
sg57
I2758
sg58
g6
(S'\x07\xe1\x07\x03\x00\x00\x00\x00\x00\x00'
p163
tp164
Rp165
sg62
I00
sg63
I2758
sg23
I2
sba(iopmop.models.schedule
Schedule
p166
(dp167
g53
(lp168
sg41
I2758
sg55
I2758
sg56
g3
sg57
I2758
sg58
g6
(S'\x07\xe1\x07\x04\x00\x00\x00\x00\x00\x00'
p169
tp170
Rp171
sg62
I00
sg63
I2758
sg23
I3
sba(iopmop.models.schedule
Schedule
p172
(dp173
g53
(lp174
sg41
I2758
sg55
I2758
sg56
g3
sg57
I2758
sg58
g6
(S'\x07\xe1\x07\x05\x00\x00\x00\x00\x00\x00'
p175
tp176
Rp177
sg62
I00
sg63
I2758
sg23
I4
sba(iopmop.models.schedule
Schedule
p178
(dp179
g53
(lp180
sg41
I2758
sg55
I2758
sg56
g3
sg57
I2758
sg58
g6
(S'\x07\xe1\x07\x06\x00\x00\x00\x00\x00\x00'
p181
tp182
Rp183
sg62
I00
sg63
I2758
sg23
I5
sba(iopmop.models.schedule
Schedule
p184
(dp185
g53
(lp186
sg41
I2758
sg55
I2758
sg56
g3
sg57
I2758
sg58
g6
(S'\x07\xe1\x07\x07\x00\x00\x00\x00\x00\x00'
p187
tp188
Rp189
sg62
I00
sg63
I2758
sg23
I6
sba(iopmop.models.schedule
Schedule
p190
(dp191
g53
(lp192
sg41
I2758
sg55
I2758
sg56
g3
sg57
I2758
sg58
g6
(S'\x07\xe1\x07\x08\x00\x00\x00\x00\x00\x00'
p193
tp194
Rp195
sg62
I00
sg63
I2758
sg23
I7
sba(iopmop.models.schedule
Schedule
p196
(dp197
g53
(lp198
sg41
I2758
sg55
I2758
sg56
g3
sg57
I2758
sg58
g6
(S'\x07\xe1\x07\t\x00\x00\x00\x00\x00\x00'
p199
tp200
Rp201
sg62
I00
sg63
I2758
sg23
I8
sba(iopmop.models.schedule
Schedule
p202
(dp203
g53
(lp204
sg41
I2758
sg55
I2758
sg56
g3
sg57
I2758
sg58
g6
(S'\x07\xe1\x07\n\x00\x00\x00\x00\x00\x00'
p205
tp206
Rp207
sg62
I00
sg63
I2758
sg23
I9
sba(iopmop.models.schedule
Schedule
p208
(dp209
g53
(lp210
sg41
I2758
sg55
I2758
sg56
g3
sg57
I2758
sg58
g6
(S'\x07\xe1\x07\x0b\x00\x00\x00\x00\x00\x00'
p211
tp212
Rp213
sg62
I00
sg63
I2758
sg23
I10
sba(iopmop.models.schedule
Schedule
p214
(dp215
g53
(lp216
sg41
I2758
sg55
I2758
sg56
g3
sg57
I2758
sg58
g6
(S'\x07\xe1\x07\x0c\x00\x00\x00\x00\x00\x00'
p217
tp218
Rp219
sg62
I00
sg63
I2758
sg23
I11
sba(iopmop.models.schedule
Schedule
p220
(dp221
g53
(lp222
sg41
I2758
sg55
I2758
sg56
g3
sg57
I2758
sg58
g6
(S'\x07\xe1\x07\r\x00\x00\x00\x00\x00\x00'
p223
tp224
Rp225
sg62
I00
sg63
I2758
sg23
I12
sba(iopmop.models.schedule
Schedule
p226
(dp227
g53
(lp228
sg41
I2758
sg55
I2758
sg56
g3
sg57
I2758
sg58
g6
(S'\x07\xe1\x07\x0e\x00\x00\x00\x00\x00\x00'
p229
tp230
Rp231
sg62
I00
sg63
I2758
sg23
I13
sba(iopmop.models.schedule
Schedule
p232
(dp233
g53
(lp234
sg41
I2758
sg55
I2758
sg56
g3
sg57
I2758
sg58
g6
(S'\x07\xe1\x07\x0f\x00\x00\x00\x00\x00\x00'
p235
tp236
Rp237
sg62
I00
sg63
I2758
sg23
I14
sba(iopmop.models.schedule
Schedule
p238
(dp239
g53
(lp240
sg41
I2758
sg55
I2758
sg56
g3
sg57
I2758
sg58
g6
(S'\x07\xe1\x07\x10\x00\x00\x00\x00\x00\x00'
p241
tp242
Rp243
sg62
I00
sg63
I2758
sg23
I15
sba(iopmop.models.schedule
Schedule
p244
(dp245
g53
(lp246
sg41
I2758
sg55
I2758
sg56
g3
sg57
I2758
sg58
g6
(S'\x07\xe1\x07\x11\x00\x00\x00\x00\x00\x00'
p247
tp248
Rp249
sg62
I00
sg63
I2758
sg23
I16
sba(iopmop.models.schedule
Schedule
p250
(dp251
g53
(lp252
sg41
I2758
sg55
I2758
sg56
g3
sg57
I2758
sg58
g6
(S'\x07\xe1\x07\x12\x00\x00\x00\x00\x00\x00'
p253
tp254
Rp255
sg62
I00
sg63
I2758
sg23
I17
sba(iopmop.models.schedule
Schedule
p256
(dp257
g53
(lp258
sg41
I2758
sg55
I2758
sg56
g3
sg57
I2758
sg58
g6
(S'\x07\xe1\x07\x13\x00\x00\x00\x00\x00\x00'
p259
tp260
Rp261
sg62
I00
sg63
I2758
sg23
I18
sba(iopmop.models.schedule
Schedule
p262
(dp263
g53
(lp264
sg41
I2758
sg55
I2758
sg56
g3
sg57
I2758
sg58
g6
(S'\x07\xe1\x07\x14\x00\x00\x00\x00\x00\x00'
p265
tp266
Rp267
sg62
I00
sg63
I2758
sg23
I19
sba(iopmop.models.schedule
Schedule
p268
(dp269
g53
(lp270
sg41
I2758
sg55
I2758
sg56
g3
sg57
I2758
sg58
g6
(S'\x07\xe1\x07\x15\x00\x00\x00\x00\x00\x00'
p271
tp272
Rp273
sg62
I00
sg63
I2758
sg23
I20
sba(iopmop.models.schedule
Schedule
p274
(dp275
g53
(lp276
sg41
I2758
sg55
I2758
sg56
g3
sg57
I2758
sg58
g6
(S'\x07\xe1\x07\x16\x00\x00\x00\x00\x00\x00'
p277
tp278
Rp279
sg62
I00
sg63
I2758
sg23
I21
sba(iopmop.models.schedule
Schedule
p280
(dp281
g53
(lp282
sg41
I2758
sg55
I2758
sg56
g3
sg57
I2758
sg58
g6
(S'\x07\xe1\x07\x17\x00\x00\x00\x00\x00\x00'
p283
tp284
Rp285
sg62
I00
sg63
I2758
sg23
I22
sba(iopmop.models.schedule
Schedule
p286
(dp287
g53
(lp288
sg41
I2758
sg55
I2758
sg56
g3
sg57
I2758
sg58
g6
(S'\x07\xe1\x07\x18\x00\x00\x00\x00\x00\x00'
p289
tp290
Rp291
sg62
I00
sg63
I2758
sg23
I23
sba(iopmop.models.schedule
Schedule
p292
(dp293
g53
(lp294
sg41
I2758
sg55
I2758
sg56
g3
sg57
I2758
sg58
g6
(S'\x07\xe1\x07\x19\x00\x00\x00\x00\x00\x00'
p295
tp296
Rp297
sg62
I00
sg63
I2758
sg23
I24
sba(iopmop.models.schedule
Schedule
p298
(dp299
g53
(lp300
sg41
I2758
sg55
I2758
sg56
g3
sg57
I2758
sg58
g6
(S'\x07\xe1\x07\x1a\x00\x00\x00\x00\x00\x00'
p301
tp302
Rp303
sg62
I00
sg63
I2758
sg23
I25
sba(iopmop.models.schedule
Schedule
p304
(dp305
g53
(lp306
sg41
I2758
sg55
I2758
sg56
g3
sg57
I2758
sg58
g6
(S'\x07\xe1\x07\x1b\x00\x00\x00\x00\x00\x00'
p307
tp308
Rp309
sg62
I00
sg63
I2758
sg23
I26
sba(iopmop.models.schedule
Schedule
p310
(dp311
g53
(lp312
sg41
I2758
sg55
I2758
sg56
g3
sg57
I2758
sg58
g6
(S'\x07\xe1\x07\x1c\x00\x00\x00\x00\x00\x00'
p313
tp314
Rp315
sg62
I00
sg63
I2758
sg23
I27
sba(iopmop.models.schedule
Schedule
p316
(dp317
g53
(lp318
sg41
I2758
sg55
I2758
sg56
g3
sg57
I2758
sg58
g6
(S'\x07\xe1\x07\x1d\x00\x00\x00\x00\x00\x00'
p319
tp320
Rp321
sg62
I00
sg63
I2758
sg23
I28
sbasg23
I1
sS'numDays'
p322
I29
sba(iopmop.models.mission
Mission
p323
(dp324
g5
g6
(S'\x07\xe1\x07\x01\x00\x00\x00\x00\x00\x00'
p325
tp326
Rp327
sg10
(lp328
g12
ag26
ag32
asg37
g6
(S'\x07\xe1\x07\x14\x00\x00\x00\x00\x00\x00'
p329
tp330
Rp331
sg41
I100000
sg42
S'Coal june'
p332
sg44
(iopmop.models.location
Location
p333
(dp334
g14
(iopmop.models.point
Point
p335
(dp336
g17
F40.52430101473363
sg18
I1
sg19
F-112.13355991787716
sg20
I234
sbsg21
g47
sg23
I2
sg24
S'Site2'
p337
sbsg49
(lp338
(iopmop.models.schedule
Schedule
p339
(dp340
g53
(lp341
sg41
I5263
sg55
I5263
sg56
g323
sg57
I5263
sg58
g6
(S'\x07\xe1\x07\x01\x00\x00\x00\x00\x00\x00'
p342
tp343
Rp344
sg62
I00
sg63
I5263
sg23
I0
sba(iopmop.models.schedule
Schedule
p345
(dp346
g53
(lp347
sg41
I5263
sg55
I5263
sg56
g323
sg57
I5263
sg58
g6
(S'\x07\xe1\x07\x02\x00\x00\x00\x00\x00\x00'
p348
tp349
Rp350
sg62
I00
sg63
I5263
sg23
I1
sba(iopmop.models.schedule
Schedule
p351
(dp352
g53
(lp353
sg41
I5263
sg55
I5263
sg56
g323
sg57
I5263
sg58
g6
(S'\x07\xe1\x07\x03\x00\x00\x00\x00\x00\x00'
p354
tp355
Rp356
sg62
I00
sg63
I5263
sg23
I2
sba(iopmop.models.schedule
Schedule
p357
(dp358
g53
(lp359
sg41
I5263
sg55
I5263
sg56
g323
sg57
I5263
sg58
g6
(S'\x07\xe1\x07\x04\x00\x00\x00\x00\x00\x00'
p360
tp361
Rp362
sg62
I00
sg63
I5263
sg23
I3
sba(iopmop.models.schedule
Schedule
p363
(dp364
g53
(lp365
sg41
I5263
sg55
I5263
sg56
g323
sg57
I5263
sg58
g6
(S'\x07\xe1\x07\x05\x00\x00\x00\x00\x00\x00'
p366
tp367
Rp368
sg62
I00
sg63
I5263
sg23
I4
sba(iopmop.models.schedule
Schedule
p369
(dp370
g53
(lp371
sg41
I5263
sg55
I5263
sg56
g323
sg57
I5263
sg58
g6
(S'\x07\xe1\x07\x06\x00\x00\x00\x00\x00\x00'
p372
tp373
Rp374
sg62
I00
sg63
I5263
sg23
I5
sba(iopmop.models.schedule
Schedule
p375
(dp376
g53
(lp377
sg41
I5263
sg55
I5263
sg56
g323
sg57
I5263
sg58
g6
(S'\x07\xe1\x07\x07\x00\x00\x00\x00\x00\x00'
p378
tp379
Rp380
sg62
I00
sg63
I5263
sg23
I6
sba(iopmop.models.schedule
Schedule
p381
(dp382
g53
(lp383
sg41
I5263
sg55
I5263
sg56
g323
sg57
I5263
sg58
g6
(S'\x07\xe1\x07\x08\x00\x00\x00\x00\x00\x00'
p384
tp385
Rp386
sg62
I00
sg63
I5263
sg23
I7
sba(iopmop.models.schedule
Schedule
p387
(dp388
g53
(lp389
sg41
I5263
sg55
I5263
sg56
g323
sg57
I5263
sg58
g6
(S'\x07\xe1\x07\t\x00\x00\x00\x00\x00\x00'
p390
tp391
Rp392
sg62
I00
sg63
I5263
sg23
I8
sba(iopmop.models.schedule
Schedule
p393
(dp394
g53
(lp395
sg41
I5263
sg55
I5263
sg56
g323
sg57
I5263
sg58
g6
(S'\x07\xe1\x07\n\x00\x00\x00\x00\x00\x00'
p396
tp397
Rp398
sg62
I00
sg63
I5263
sg23
I9
sba(iopmop.models.schedule
Schedule
p399
(dp400
g53
(lp401
sg41
I5263
sg55
I5263
sg56
g323
sg57
I5263
sg58
g6
(S'\x07\xe1\x07\x0b\x00\x00\x00\x00\x00\x00'
p402
tp403
Rp404
sg62
I00
sg63
I5263
sg23
I10
sba(iopmop.models.schedule
Schedule
p405
(dp406
g53
(lp407
sg41
I5263
sg55
I5263
sg56
g323
sg57
I5263
sg58
g6
(S'\x07\xe1\x07\x0c\x00\x00\x00\x00\x00\x00'
p408
tp409
Rp410
sg62
I00
sg63
I5263
sg23
I11
sba(iopmop.models.schedule
Schedule
p411
(dp412
g53
(lp413
sg41
I5263
sg55
I5263
sg56
g323
sg57
I5263
sg58
g6
(S'\x07\xe1\x07\r\x00\x00\x00\x00\x00\x00'
p414
tp415
Rp416
sg62
I00
sg63
I5263
sg23
I12
sba(iopmop.models.schedule
Schedule
p417
(dp418
g53
(lp419
sg41
I5263
sg55
I5263
sg56
g323
sg57
I5263
sg58
g6
(S'\x07\xe1\x07\x0e\x00\x00\x00\x00\x00\x00'
p420
tp421
Rp422
sg62
I00
sg63
I5263
sg23
I13
sba(iopmop.models.schedule
Schedule
p423
(dp424
g53
(lp425
sg41
I5263
sg55
I5263
sg56
g323
sg57
I5263
sg58
g6
(S'\x07\xe1\x07\x0f\x00\x00\x00\x00\x00\x00'
p426
tp427
Rp428
sg62
I00
sg63
I5263
sg23
I14
sba(iopmop.models.schedule
Schedule
p429
(dp430
g53
(lp431
sg41
I5263
sg55
I5263
sg56
g323
sg57
I5263
sg58
g6
(S'\x07\xe1\x07\x10\x00\x00\x00\x00\x00\x00'
p432
tp433
Rp434
sg62
I00
sg63
I5263
sg23
I15
sba(iopmop.models.schedule
Schedule
p435
(dp436
g53
(lp437
sg41
I5263
sg55
I5263
sg56
g323
sg57
I5263
sg58
g6
(S'\x07\xe1\x07\x11\x00\x00\x00\x00\x00\x00'
p438
tp439
Rp440
sg62
I00
sg63
I5263
sg23
I16
sba(iopmop.models.schedule
Schedule
p441
(dp442
g53
(lp443
sg41
I5263
sg55
I5263
sg56
g323
sg57
I5263
sg58
g6
(S'\x07\xe1\x07\x12\x00\x00\x00\x00\x00\x00'
p444
tp445
Rp446
sg62
I00
sg63
I5263
sg23
I17
sba(iopmop.models.schedule
Schedule
p447
(dp448
g53
(lp449
sg41
I5263
sg55
I5263
sg56
g323
sg57
I5263
sg58
g6
(S'\x07\xe1\x07\x13\x00\x00\x00\x00\x00\x00'
p450
tp451
Rp452
sg62
I00
sg63
I5263
sg23
I18
sbasg23
I2
sg322
I19
sbasS'machines'
p453
(lp454
(iopmop.models.machine
Shovel
p455
(dp456
S'model'
p457
S'SHV0'
p458
sS'weightCapacity'
p459
I53
sS'weight'
p460
I1833
sg14
(iopmop.models.point
Point
p461
(dp462
g17
F40.53105432014323
sg18
I2
sg19
F-112.14738744003029
sg20
I75
sbsS'speed'
p463
I16
sS'staticFuelConsumption'
p464
I117
sS'fuelConsumption'
p465
I190
sS'isAvailable'
p466
I01
sS'fuelCapacity'
p467
I9864
sg23
I0
sba(iopmop.models.machine
Shovel
p468
(dp469
g457
S'SHV1'
p470
sg459
I75
sg460
I1953
sg14
(iopmop.models.point
Point
p471
(dp472
g17
F40.52503778607846
sg18
I2
sg19
F-112.14760965944618
sg20
I90
sbsg463
I16
sg464
I110
sg465
I159
sg466
I01
sg467
I9875
sg23
I1
sba(iopmop.models.machine
Shovel
p473
(dp474
g457
S'SHV2'
p475
sg459
I58
sg460
I1802
sg14
(iopmop.models.point
Point
p476
(dp477
g17
F40.522690798635296
sg18
I8
sg19
F-112.14660088663788
sg20
I41
sbsg463
I18
sg464
I113
sg465
I187
sg466
I01
sg467
I10233
sg23
I2
sba(iopmop.models.machine
Shovel
p478
(dp479
g457
S'SHV3'
p480
sg459
I80
sg460
I1823
sg14
(iopmop.models.point
Point
p481
(dp482
g17
F40.51802580379146
sg18
I23
sg19
F-112.14339068607933
sg20
I23
sbsg463
I20
sg464
I87
sg465
I196
sg466
I01
sg467
I11265
sg23
I3
sba(iopmop.models.machine
Loader
p483
(dp484
g457
S'LOD4'
p485
sg459
I60
sg460
I329523
sg14
(iopmop.models.point
Point
p486
(dp487
g17
F40.52505944774498
sg18
I5
sg19
F-112.1482852548599
sg20
I93
sbsg463
I50
sg464
I110
sg465
I158
sg466
I01
sg467
I8371
sg23
I4
sba(iopmop.models.machine
Loader
p488
(dp489
g457
S'LOD5'
p490
sg459
I49
sg460
I384523
sg14
(iopmop.models.point
Point
p491
(dp492
g17
F40.51952590776382
sg18
I1
sg19
F-112.14713725991055
sg20
I123
sbsg463
I48
sg464
I100
sg465
I191
sg466
I01
sg467
I9566
sg23
I5
sba(iopmop.models.machine
Loader
p493
(dp494
g457
S'LOD6'
p495
sg459
I58
sg460
I387863
sg14
(iopmop.models.point
Point
p496
(dp497
g17
F40.519030435813804
sg18
I3
sg19
F-112.15059865197139
sg20
I140
sbsg463
I48
sg464
I99
sg465
I187
sg466
I01
sg467
I8796
sg23
I6
sba(iopmop.models.machine
Loader
p498
(dp499
g457
S'LOD7'
p500
sg459
I50
sg460
I344942
sg14
(iopmop.models.point
Point
p501
(dp502
g17
F40.52345285661486
sg18
I3
sg19
F-112.14888069577023
sg20
I66
sbsg463
I46
sg464
I104
sg465
I152
sg466
I01
sg467
I10166
sg23
I7
sba(iopmop.models.machine
Truck
p503
(dp504
g457
S'TRK8'
p505
sg459
I467
sg460
I299
sg14
(iopmop.models.point
Point
p506
(dp507
g17
F40.5224649901301
sg18
I5
sg19
F-112.15391785781912
sg20
I71
sbsg463
I43
sg464
I112
sg465
I157
sg466
I01
sg467
I9977
sg23
I8
sba(iopmop.models.machine
Truck
p508
(dp509
g457
S'TRK9'
p510
sg459
I362
sg460
I341
sg14
(iopmop.models.point
Point
p511
(dp512
g17
F40.51002629012335
sg18
I6
sg19
F-112.14165802303148
sg20
I203
sbsg463
I43
sg464
I111
sg465
I196
sg466
I01
sg467
I9664
sg23
I9
sba(iopmop.models.machine
Truck
p513
(dp514
g457
S'TRK10'
p515
sg459
I458
sg460
I308
sg14
(iopmop.models.point
Point
p516
(dp517
g17
F40.523754599861704
sg18
I3
sg19
F-112.15259822802483
sg20
I69
sbsg463
I43
sg464
I95
sg465
I195
sg466
I01
sg467
I8573
sg23
I10
sba(iopmop.models.machine
Truck
p518
(dp519
g457
S'TRK11'
p520
sg459
I417
sg460
I314
sg14
(iopmop.models.point
Point
p521
(dp522
g17
F40.528067561722764
sg18
I2
sg19
F-112.14214828710544
sg20
I132
sbsg463
I46
sg464
I83
sg465
I181
sg466
I01
sg467
I11919
sg23
I11
sba(iopmop.models.machine
Truck
p523
(dp524
g457
S'TRK12'
p525
sg459
I364
sg460
I368
sg14
(iopmop.models.point
Point
p526
(dp527
g17
F40.528626439476795
sg18
I7
sg19
F-112.1374677219352
sg20
I244
sbsg463
I45
sg464
I111
sg465
I170
sg466
I01
sg467
I9979
sg23
I12
sba(iopmop.models.machine
Truck
p528
(dp529
g457
S'TRK13'
p530
sg459
I436
sg460
I365
sg14
(iopmop.models.point
Point
p531
(dp532
g17
F40.53012926029443
sg18
I4
sg19
F-112.13780178348395
sg20
I241
sbsg463
I44
sg464
I113
sg465
I184
sg466
I01
sg467
I10012
sg23
I13
sba(iopmop.models.machine
Truck
p533
(dp534
g457
S'TRK14'
p535
sg459
I471
sg460
I281
sg14
(iopmop.models.point
Point
p536
(dp537
g17
F40.52547622695672
sg18
I3
sg19
F-112.13941646928743
sg20
I191
sbsg463
I43
sg464
I119
sg465
I182
sg466
I01
sg467
I8442
sg23
I14
sba(iopmop.models.machine
Truck
p538
(dp539
g457
S'TRK15'
p540
sg459
I497
sg460
I282
sg14
(iopmop.models.point
Point
p541
(dp542
g17
F40.51855129581975
sg18
I5
sg19
F-112.15113909219804
sg20
I5
sbsg463
I41
sg464
I113
sg465
I150
sg466
I01
sg467
I8154
sg23
I15
sba(iopmop.models.machine
Truck
p543
(dp544
g457
S'TRK16'
p545
sg459
I379
sg460
I395
sg14
g486
sg463
I41
sg464
I120
sg465
I166
sg466
I01
sg467
I10491
sg23
I16
sba(iopmop.models.machine
Truck
p546
(dp547
g457
S'TRK17'
p548
sg459
I451
sg460
I363
sg14
(iopmop.models.point
Point
p549
(dp550
g17
F40.51674367004452
sg18
I8
sg19
F-112.15372610635563
sg20
I130
sbsg463
I50
sg464
I91
sg465
I195
sg466
I01
sg467
I9485
sg23
I17
sba(iopmop.models.machine
Truck
p551
(dp552
g457
S'TRK18'
p553
sg459
I430
sg460
I307
sg14
(iopmop.models.point
Point
p554
(dp555
g17
F40.523840237856376
sg18
I4
sg19
F-112.15156826920315
sg20
I84
sbsg463
I49
sg464
I104
sg465
I179
sg466
I01
sg467
I11940
sg23
I18
sba(iopmop.models.machine
Truck
p556
(dp557
g457
S'TRK19'
p558
sg459
I480
sg460
I363
sg14
(iopmop.models.point
Point
p559
(dp560
g17
F40.52359965398034
sg18
I1
sg19
F-112.1546206230621
sg20
I142
sbsg463
I47
sg464
I99
sg465
I161
sg466
I01
sg467
I8738
sg23
I19
sbasS'locations'
p561
(lp562
(iopmop.models.location
Location
p563
(dp564
g14
g471
sg21
g47
sg23
I0
sg24
S'Site0'
p565
sbag45
ag333
a(iopmop.models.location
Location
p566
(dp567
g14
g471
sg21
g22
sg23
I3
sg24
S'Dump3'
p568
sba(iopmop.models.location
Location
p569
(dp570
g14
(iopmop.models.point
Point
p571
(dp572
g17
F40.525849994573086
sg18
I3
sg19
F-112.1480257423629
sg20
I91
sbsg21
g22
sg23
I4
sg24
S'Dump4'
p573
sbag12
ag26
ag32
as.