(dp0
S'missions'
p1
(lp2
(iopmop.models.mission
Mission
p3
(dp4
S'startDate'
p5
cdatetime
datetime
p6
(S'\x07\xe1\x07\x01\x00\x00\x00\x00\x00\x00'
p7
tp8
Rp9
sS'dumpLocations'
p10
(lp11
(iopmop.models.location
Location
p12
(dp13
S'point'
p14
(iopmop.models.point
Point
p15
(dp16
S'lat'
p17
F40.524449849065824
sS'index'
p18
I6
sS'lng'
p19
F-112.15532470292851
sS'nid'
p20
I79
sbsS'type'
p21
S'dump'
p22
sS'id'
p23
I5
sS'name'
p24
S'Dump5'
p25
sba(iopmop.models.location
Location
p26
(dp27
g14
(iopmop.models.point
Point
p28
(dp29
g17
F40.52430101473363
sg18
I1
sg19
F-112.13355991787716
sg20
I234
sbsg21
g22
sg23
I6
sg24
S'Dump6'
p30
sba(iopmop.models.location
Location
p31
(dp32
g14
(iopmop.models.point
Point
p33
(dp34
g17
F40.52144455481663
sg18
I4
sg19
F-112.14980874008938
sg20
I88
sbsg21
g22
sg23
I7
sg24
S'Dump7'
p35
sba(iopmop.models.location
Location
p36
(dp37
g14
g15
sg21
g22
sg23
I8
sg24
S'Dump8'
p38
sba(iopmop.models.location
Location
p39
(dp40
g14
(iopmop.models.point
Point
p41
(dp42
g17
F40.527179779080214
sg18
I1
sg19
F-112.14562985844418
sg20
I1
sbsg21
g22
sg23
I9
sg24
S'Dump9'
p43
sbasS'endDate'
p44
g6
(S'\x07\xe1\x07\x1e\x00\x00\x00\x00\x00\x00'
p45
tp46
Rp47
sS'target'
p48
I80000
sS'title'
p49
S'Iron min'
p50
sS'digLocation'
p51
(iopmop.models.location
Location
p52
(dp53
g14
(iopmop.models.point
Point
p54
(dp55
g17
F40.5213016346787
sg18
I18
sg19
F-112.15028519197688
sg20
I51
sbsg21
S'dig'
p56
sg23
I1
sg24
S'Site1'
p57
sbsS'schedules'
p58
(lp59
(iopmop.models.schedule
Schedule
p60
(dp61
S'tasks'
p62
(lp63
(iopmop.models.task
DigTask
p64
(dp65
g48
F2758.0
sS'machineId'
p66
I8
sS'comments'
p67
S'None'
p68
sS'actualTarget'
p69
NsS'cost'
p70
NsS'location'
p71
g52
sS'startTime'
p72
g6
(S'\x07\xe1\x07\x01\t\x00\x00\x00\x00\x00'
p73
tp74
Rp75
sS'endTime'
p76
g6
(S'\x07\xe1\x07\x01\x0f\x0f\x1c\x06l\xbd'
p77
tp78
Rp79
sg23
S'0-0'
p80
sba(iopmop.models.task
LoadTask
p81
(dp82
g48
F2709.4356102689485
sg66
I13
sg67
g68
sg69
Nsg70
Nsg71
g52
sg72
g6
(S'\x07\xe1\x07\x01\t\x00\x00\x00\x00\x00'
p83
tp84
Rp85
sg76
g6
(S'\x07\xe1\x07\x01\r$\x00\x00\x00\x00'
p86
tp87
Rp88
sg23
S'0-0'
p89
sba(iopmop.models.task
LoadTask
p90
(dp91
g48
F278.0718032388757
sg66
I12
sg67
g68
sg69
Nsg70
Nsg71
g52
sg72
g6
(S'\x07\xe1\x07\x01\t\x00\x00\x00\x00\x00'
p92
tp93
Rp94
sg76
g6
(S'\x07\xe1\x07\x01\n\x00\x00\x00\x00\x00'
p95
tp96
Rp97
sg23
S'0-0'
p98
sba(iopmop.models.task
HaulageTask
p99
(dp100
g48
I411
sg66
I49
sg67
g68
sS'dumpLocation'
p101
g12
sg69
Nsg70
Nsg71
g52
sg72
g6
(S'\x07\xe1\x07\x01\t+\x07\n\xecV'
p102
tp103
Rp104
sg76
g6
(S'\x07\xe1\x07\x01\n\x04)\x08\xc1a'
p105
tp106
Rp107
sg23
S'0-1'
p108
sba(iopmop.models.task
HaulageTask
p109
(dp110
g48
I461
sg66
I41
sg67
g68
sg101
g12
sg69
Nsg70
Nsg71
g52
sg72
g6
(S'\x07\xe1\x07\x01\n\x05\r\x0eN\x99'
p111
tp112
Rp113
sg76
g6
(S'\x07\xe1\x07\x01\n\x1a:\x08\xe7L'
p114
tp115
Rp116
sg23
S'0-1'
p117
sba(iopmop.models.task
HaulageTask
p118
(dp119
g48
I423
sg66
I37
sg67
g68
sg101
g12
sg69
Nsg70
Nsg71
g52
sg72
g6
(S'\x07\xe1\x07\x01\n!\x07\x02\x05\x94'
p120
tp121
Rp122
sg76
g6
(S'\x07\xe1\x07\x01\n8\x17\r\xf8\xa9'
p123
tp124
Rp125
sg23
S'0-1'
p126
sba(iopmop.models.task
HaulageTask
p127
(dp128
g48
I466
sg66
I44
sg67
g68
sg101
g12
sg69
Nsg70
Nsg71
g52
sg72
g6
(S'\x07\xe1\x07\x01\x0b\x085\r\xaft'
p129
tp130
Rp131
sg76
g6
(S'\x07\xe1\x07\x01\x0b\x1e\x16\rlR'
p132
tp133
Rp134
sg23
S'0-1'
p135
sba(iopmop.models.task
HaulageTask
p136
(dp137
g48
I429
sg66
I38
sg67
g68
sg101
g12
sg69
Nsg70
Nsg71
g52
sg72
g6
(S'\x07\xe1\x07\x01\x0b-\x07\x06@\x88'
p138
tp139
Rp140
sg76
g6
(S'\x07\xe1\x07\x01\x0c\x08*\x0b\x81@'
p141
tp142
Rp143
sg23
S'0-1'
p144
sba(iopmop.models.task
HaulageTask
p145
(dp146
g48
I389
sg66
I32
sg67
g68
sg101
g12
sg69
Nsg70
Nsg71
g52
sg72
g6
(S'\x07\xe1\x07\x01\x0c\x16\x10\x07\xea\xe2'
p147
tp148
Rp149
sg76
g6
(S'\x07\xe1\x07\x01\x0c,-\x00Q\xf4'
p150
tp151
Rp152
sg23
S'0-1'
p153
sba(iopmop.models.task
HaulageTask
p154
(dp155
g48
I403
sg66
I42
sg67
g68
sg101
g12
sg69
Nsg70
Nsg71
g52
sg72
g6
(S'\x07\xe1\x07\x01\x0c9,\x08\xa2\xcc'
p156
tp157
Rp158
sg76
g6
(S'\x07\xe1\x07\x01\r\x13\x15\x05Bp'
p159
tp160
Rp161
sg23
S'0-1'
p162
sbasg48
I2758
sS'remainingDig'
p163
F0.0
sS'mission'
p164
g3
sS'remainingLoad'
p165
F-229.5074135078242
sS'date'
p166
g6
(S'\x07\xe1\x07\x01\x00\x00\x00\x00\x00\x00'
p167
tp168
Rp169
sS'allocated'
p170
I01
sS'remainingHaulage'
p171
F-224.0
sg23
I0
sba(iopmop.models.schedule
Schedule
p172
(dp173
g62
(lp174
sg48
I2758
sg163
I2758
sg164
g3
sg165
I2758
sg166
g6
(S'\x07\xe1\x07\x02\x00\x00\x00\x00\x00\x00'
p175
tp176
Rp177
sg170
I00
sg171
I2758
sg23
I1
sba(iopmop.models.schedule
Schedule
p178
(dp179
g62
(lp180
sg48
I2758
sg163
I2758
sg164
g3
sg165
I2758
sg166
g6
(S'\x07\xe1\x07\x03\x00\x00\x00\x00\x00\x00'
p181
tp182
Rp183
sg170
I00
sg171
I2758
sg23
I2
sba(iopmop.models.schedule
Schedule
p184
(dp185
g62
(lp186
sg48
I2758
sg163
I2758
sg164
g3
sg165
I2758
sg166
g6
(S'\x07\xe1\x07\x04\x00\x00\x00\x00\x00\x00'
p187
tp188
Rp189
sg170
I00
sg171
I2758
sg23
I3
sba(iopmop.models.schedule
Schedule
p190
(dp191
g62
(lp192
(iopmop.models.task
DigTask
p193
(dp194
g48
F2758.0
sg66
I8
sg67
S'None'
p195
sg69
Nsg70
Nsg71
g52
sg72
g6
(S'\x07\xe1\x07\x05\t\x00\x00\x00\x00\x00'
p196
tp197
Rp198
sg76
g6
(S'\x07\xe1\x07\x05\x0f\x0f\x1c\x06l\xbd'
p199
tp200
Rp201
sg23
S'4-0'
p202
sba(iopmop.models.task
LoadTask
p203
(dp204
g48
F2709.4356102689485
sg66
I13
sg67
g195
sg69
Nsg70
Nsg71
g52
sg72
g6
(S'\x07\xe1\x07\x05\t\x00\x00\x00\x00\x00'
p205
tp206
Rp207
sg76
g6
(S'\x07\xe1\x07\x05\r$\x00\x00\x00\x00'
p208
tp209
Rp210
sg23
S'4-0'
p211
sba(iopmop.models.task
LoadTask
p212
(dp213
g48
F278.0718032388757
sg66
I12
sg67
g195
sg69
Nsg70
Nsg71
g52
sg72
g6
(S'\x07\xe1\x07\x05\t\x00\x00\x00\x00\x00'
p214
tp215
Rp216
sg76
g6
(S'\x07\xe1\x07\x05\n\x00\x00\x00\x00\x00'
p217
tp218
Rp219
sg23
S'4-0'
p220
sba(iopmop.models.task
HaulageTask
p221
(dp222
g70
Nsg48
I420
sg66
I23
sg67
g195
sg69
Nsg101
g12
sg71
g52
sg72
g6
(S"\x07\xe1\x07\x05\t,'\x03A\xd8"
p223
tp224
Rp225
sg76
g6
(S'\x07\xe1\x07\x05\n\x06:\x0c\x83\xe4'
p226
tp227
Rp228
sg23
S'4-1'
p229
sba(iopmop.models.task
HaulageTask
p230
(dp231
g70
Nsg48
I385
sg66
I27
sg67
g195
sg69
Nsg101
g12
sg71
g52
sg72
g6
(S"\x07\xe1\x07\x05\n\x07'\x027\x84"
p232
tp233
Rp234
sg76
g6
(S'\x07\xe1\x07\x05\n\x1e\x0c\x02\xf4\xb0'
p235
tp236
Rp237
sg23
S'4-1'
p238
sba(iopmop.models.task
HaulageTask
p239
(dp240
g70
Nsg48
I435
sg66
I48
sg67
g195
sg69
Nsg101
g12
sg71
g52
sg72
g6
(S'\x07\xe1\x07\x05\n1\x08\x03\x11\x19'
p241
tp242
Rp243
sg76
g6
(S'\x07\xe1\x07\x05\x0b\n9\x0c\xd5\xde'
p244
tp245
Rp246
sg23
S'4-1'
p247
sba(iopmop.models.task
HaulageTask
p248
(dp249
g70
Nsg48
I431
sg66
I46
sg67
g195
sg69
Nsg101
g12
sg71
g52
sg72
g6
(S'\x07\xe1\x07\x05\x0b\x15\x13\x0c\x1e\x08'
p250
tp251
Rp252
sg76
g6
(S'\x07\xe1\x07\x05\x0b,5\x01k\xd4'
p253
tp254
Rp255
sg23
S'4-1'
p256
sba(iopmop.models.task
HaulageTask
p257
(dp258
g70
Nsg48
I482
sg66
I47
sg67
g195
sg69
Nsg101
g12
sg71
g52
sg72
g6
(S'\x07\xe1\x07\x05\x0c\x07\x06\x08\x88\xa8'
p259
tp260
Rp261
sg76
g6
(S'\x07\xe1\x07\x05\x0c\x1e\x1d\rjM'
p262
tp263
Rp264
sg23
S'4-1'
p265
sba(iopmop.models.task
HaulageTask
p266
(dp267
g70
Nsg48
I373
sg66
I35
sg67
g195
sg69
Nsg101
g12
sg71
g52
sg72
g6
(S'\x07\xe1\x07\x05\x0c$+\x02\xc44'
p268
tp269
Rp270
sg76
g6
(S'\x07\xe1\x07\x05\x0c:\x17\x07\x9e\xe6'
p271
tp272
Rp273
sg23
S'4-1'
p274
sba(iopmop.models.task
HaulageTask
p275
(dp276
g70
Nsg48
I397
sg66
I26
sg67
g195
sg69
Nsg101
g12
sg71
g52
sg72
g6
(S'\x07\xe1\x07\x05\r\x11 \x02xm'
p277
tp278
Rp279
sg76
g6
(S'\x07\xe1\x07\x05\r(8\r\xca\xd4'
p280
tp281
Rp282
sg23
S'4-1'
p283
sbasg48
I2758
sg163
F0.0
sg164
g3
sg165
F-229.5074135078242
sg166
g6
(S'\x07\xe1\x07\x05\x00\x00\x00\x00\x00\x00'
p284
tp285
Rp286
sg170
I01
sg171
F-165.0
sg23
I4
sba(iopmop.models.schedule
Schedule
p287
(dp288
g62
(lp289
(iopmop.models.task
DigTask
p290
(dp291
g48
F2758.0
sg66
I8
sg67
g195
sg69
Nsg70
Nsg71
g52
sg72
g6
(S'\x07\xe1\x07\x06\t\x00\x00\x00\x00\x00'
p292
tp293
Rp294
sg76
g6
(S'\x07\xe1\x07\x06\x0f\x0f\x1c\x06l\xbd'
p295
tp296
Rp297
sg23
S'5-0'
p298
sba(iopmop.models.task
LoadTask
p299
(dp300
g48
F2709.4356102689485
sg66
I13
sg67
g195
sg69
Nsg70
Nsg71
g52
sg72
g6
(S'\x07\xe1\x07\x06\t\x00\x00\x00\x00\x00'
p301
tp302
Rp303
sg76
g6
(S'\x07\xe1\x07\x06\r$\x00\x00\x00\x00'
p304
tp305
Rp306
sg23
S'5-0'
p307
sba(iopmop.models.task
LoadTask
p308
(dp309
g48
F278.0718032388757
sg66
I12
sg67
g195
sg69
Nsg70
Nsg71
g52
sg72
g6
(S'\x07\xe1\x07\x06\t\x00\x00\x00\x00\x00'
p310
tp311
Rp312
sg76
g6
(S'\x07\xe1\x07\x06\n\x00\x00\x00\x00\x00'
p313
tp314
Rp315
sg23
S'5-0'
p316
sba(iopmop.models.task
HaulageTask
p317
(dp318
g70
Nsg48
I456
sg66
I22
sg67
g195
sg69
Nsg101
g12
sg71
g52
sg72
g6
(S'\x07\xe1\x07\x06\t,\x1b\x0ek\x86'
p319
tp320
Rp321
sg76
g6
(S'\x07\xe1\x07\x06\n\x06)\x0e\x00)'
p322
tp323
Rp324
sg23
S'5-1'
p325
sba(iopmop.models.task
HaulageTask
p326
(dp327
g70
Nsg48
I435
sg66
I48
sg67
g195
sg69
Nsg101
g12
sg71
g52
sg72
g6
(S'\x07\xe1\x07\x06\n\x1b\x12\x08\x8e\x94'
p328
tp329
Rp330
sg76
g6
(S'\x07\xe1\x07\x06\n1\x08\x03\x11\x19'
p331
tp332
Rp333
sg23
S'5-1'
p334
sba(iopmop.models.task
HaulageTask
p335
(dp336
g70
Nsg48
I466
sg66
I44
sg67
g195
sg69
Nsg101
g12
sg71
g52
sg72
g6
(S'\x07\xe1\x07\x06\x0b\x085\r\xaft'
p337
tp338
Rp339
sg76
g6
(S'\x07\xe1\x07\x06\x0b\x1e\x16\rlR'
p340
tp341
Rp342
sg23
S'5-1'
p343
sba(iopmop.models.task
HaulageTask
p344
(dp345
g70
Nsg48
I456
sg66
I22
sg67
g195
sg69
Nsg101
g12
sg71
g52
sg72
g6
(S'\x07\xe1\x07\x06\x0b#%\x0cR\xb5'
p346
tp347
Rp348
sg76
g6
(S'\x07\xe1\x07\x06\x0b93\x0b\xe7X'
p349
tp350
Rp351
sg23
S'5-1'
p352
sba(iopmop.models.task
HaulageTask
p353
(dp354
g70
Nsg48
I494
sg66
I25
sg67
g195
sg69
Nsg101
g12
sg71
g52
sg72
g6
(S'\x07\xe1\x07\x06\x0c\x07/\n[0'
p355
tp356
Rp357
sg76
g6
(S'\x07\xe1\x07\x06\x0c\x1f\x10\x02\x1d.'
p358
tp359
Rp360
sg23
S'5-1'
p361
sba(iopmop.models.task
HaulageTask
p362
(dp363
g70
Nsg48
I498
sg66
I31
sg67
g195
sg69
Nsg101
g12
sg71
g52
sg72
g6
(S'\x07\xe1\x07\x06\x0c*1\x08\xc2\xa8'
p364
tp365
Rp366
sg76
g6
(S'\x07\xe1\x07\x06\r\x05\x06\x08\x1cL'
p367
tp368
Rp369
sg23
S'5-1'
p370
sbasg48
I2758
sg163
F0.0
sg164
g3
sg165
F-229.5074135078242
sg166
g6
(S'\x07\xe1\x07\x06\x00\x00\x00\x00\x00\x00'
p371
tp372
Rp373
sg170
I01
sg171
F-47.0
sg23
I5
sba(iopmop.models.schedule
Schedule
p374
(dp375
g62
(lp376
sg48
I2758
sg163
I2758
sg164
g3
sg165
I2758
sg166
g6
(S'\x07\xe1\x07\x07\x00\x00\x00\x00\x00\x00'
p377
tp378
Rp379
sg170
I00
sg171
I2758
sg23
I6
sba(iopmop.models.schedule
Schedule
p380
(dp381
g62
(lp382
sg48
I2758
sg163
I2758
sg164
g3
sg165
I2758
sg166
g6
(S'\x07\xe1\x07\x08\x00\x00\x00\x00\x00\x00'
p383
tp384
Rp385
sg170
I00
sg171
I2758
sg23
I7
sba(iopmop.models.schedule
Schedule
p386
(dp387
g62
(lp388
sg48
I2758
sg163
I2758
sg164
g3
sg165
I2758
sg166
g6
(S'\x07\xe1\x07\t\x00\x00\x00\x00\x00\x00'
p389
tp390
Rp391
sg170
I00
sg171
I2758
sg23
I8
sba(iopmop.models.schedule
Schedule
p392
(dp393
g62
(lp394
sg48
I2758
sg163
I2758
sg164
g3
sg165
I2758
sg166
g6
(S'\x07\xe1\x07\n\x00\x00\x00\x00\x00\x00'
p395
tp396
Rp397
sg170
I00
sg171
I2758
sg23
I9
sba(iopmop.models.schedule
Schedule
p398
(dp399
g62
(lp400
sg48
I2758
sg163
I2758
sg164
g3
sg165
I2758
sg166
g6
(S'\x07\xe1\x07\x0b\x00\x00\x00\x00\x00\x00'
p401
tp402
Rp403
sg170
I00
sg171
I2758
sg23
I10
sba(iopmop.models.schedule
Schedule
p404
(dp405
g62
(lp406
sg48
I2758
sg163
I2758
sg164
g3
sg165
I2758
sg166
g6
(S'\x07\xe1\x07\x0c\x00\x00\x00\x00\x00\x00'
p407
tp408
Rp409
sg170
I00
sg171
I2758
sg23
I11
sba(iopmop.models.schedule
Schedule
p410
(dp411
g62
(lp412
sg48
I2758
sg163
I2758
sg164
g3
sg165
I2758
sg166
g6
(S'\x07\xe1\x07\r\x00\x00\x00\x00\x00\x00'
p413
tp414
Rp415
sg170
I00
sg171
I2758
sg23
I12
sba(iopmop.models.schedule
Schedule
p416
(dp417
g62
(lp418
sg48
I2758
sg163
I2758
sg164
g3
sg165
I2758
sg166
g6
(S'\x07\xe1\x07\x0e\x00\x00\x00\x00\x00\x00'
p419
tp420
Rp421
sg170
I00
sg171
I2758
sg23
I13
sba(iopmop.models.schedule
Schedule
p422
(dp423
g62
(lp424
sg48
I2758
sg163
I2758
sg164
g3
sg165
I2758
sg166
g6
(S'\x07\xe1\x07\x0f\x00\x00\x00\x00\x00\x00'
p425
tp426
Rp427
sg170
I00
sg171
I2758
sg23
I14
sba(iopmop.models.schedule
Schedule
p428
(dp429
g62
(lp430
sg48
I2758
sg163
I2758
sg164
g3
sg165
I2758
sg166
g6
(S'\x07\xe1\x07\x10\x00\x00\x00\x00\x00\x00'
p431
tp432
Rp433
sg170
I00
sg171
I2758
sg23
I15
sba(iopmop.models.schedule
Schedule
p434
(dp435
g62
(lp436
sg48
I2758
sg163
I2758
sg164
g3
sg165
I2758
sg166
g6
(S'\x07\xe1\x07\x11\x00\x00\x00\x00\x00\x00'
p437
tp438
Rp439
sg170
I00
sg171
I2758
sg23
I16
sba(iopmop.models.schedule
Schedule
p440
(dp441
g62
(lp442
sg48
I2758
sg163
I2758
sg164
g3
sg165
I2758
sg166
g6
(S'\x07\xe1\x07\x12\x00\x00\x00\x00\x00\x00'
p443
tp444
Rp445
sg170
I00
sg171
I2758
sg23
I17
sba(iopmop.models.schedule
Schedule
p446
(dp447
g62
(lp448
sg48
I2758
sg163
I2758
sg164
g3
sg165
I2758
sg166
g6
(S'\x07\xe1\x07\x13\x00\x00\x00\x00\x00\x00'
p449
tp450
Rp451
sg170
I00
sg171
I2758
sg23
I18
sba(iopmop.models.schedule
Schedule
p452
(dp453
g62
(lp454
sg48
I2758
sg163
I2758
sg164
g3
sg165
I2758
sg166
g6
(S'\x07\xe1\x07\x14\x00\x00\x00\x00\x00\x00'
p455
tp456
Rp457
sg170
I00
sg171
I2758
sg23
I19
sba(iopmop.models.schedule
Schedule
p458
(dp459
g62
(lp460
sg48
I2758
sg163
I2758
sg164
g3
sg165
I2758
sg166
g6
(S'\x07\xe1\x07\x15\x00\x00\x00\x00\x00\x00'
p461
tp462
Rp463
sg170
I00
sg171
I2758
sg23
I20
sba(iopmop.models.schedule
Schedule
p464
(dp465
g62
(lp466
sg48
I2758
sg163
I2758
sg164
g3
sg165
I2758
sg166
g6
(S'\x07\xe1\x07\x16\x00\x00\x00\x00\x00\x00'
p467
tp468
Rp469
sg170
I00
sg171
I2758
sg23
I21
sba(iopmop.models.schedule
Schedule
p470
(dp471
g62
(lp472
sg48
I2758
sg163
I2758
sg164
g3
sg165
I2758
sg166
g6
(S'\x07\xe1\x07\x17\x00\x00\x00\x00\x00\x00'
p473
tp474
Rp475
sg170
I00
sg171
I2758
sg23
I22
sba(iopmop.models.schedule
Schedule
p476
(dp477
g62
(lp478
sg48
I2758
sg163
I2758
sg164
g3
sg165
I2758
sg166
g6
(S'\x07\xe1\x07\x18\x00\x00\x00\x00\x00\x00'
p479
tp480
Rp481
sg170
I00
sg171
I2758
sg23
I23
sba(iopmop.models.schedule
Schedule
p482
(dp483
g62
(lp484
sg48
I2758
sg163
I2758
sg164
g3
sg165
I2758
sg166
g6
(S'\x07\xe1\x07\x19\x00\x00\x00\x00\x00\x00'
p485
tp486
Rp487
sg170
I00
sg171
I2758
sg23
I24
sba(iopmop.models.schedule
Schedule
p488
(dp489
g62
(lp490
sg48
I2758
sg163
I2758
sg164
g3
sg165
I2758
sg166
g6
(S'\x07\xe1\x07\x1a\x00\x00\x00\x00\x00\x00'
p491
tp492
Rp493
sg170
I00
sg171
I2758
sg23
I25
sba(iopmop.models.schedule
Schedule
p494
(dp495
g62
(lp496
sg48
I2758
sg163
I2758
sg164
g3
sg165
I2758
sg166
g6
(S'\x07\xe1\x07\x1b\x00\x00\x00\x00\x00\x00'
p497
tp498
Rp499
sg170
I00
sg171
I2758
sg23
I26
sba(iopmop.models.schedule
Schedule
p500
(dp501
g62
(lp502
sg48
I2758
sg163
I2758
sg164
g3
sg165
I2758
sg166
g6
(S'\x07\xe1\x07\x1c\x00\x00\x00\x00\x00\x00'
p503
tp504
Rp505
sg170
I00
sg171
I2758
sg23
I27
sba(iopmop.models.schedule
Schedule
p506
(dp507
g62
(lp508
sg48
I2758
sg163
I2758
sg164
g3
sg165
I2758
sg166
g6
(S'\x07\xe1\x07\x1d\x00\x00\x00\x00\x00\x00'
p509
tp510
Rp511
sg170
I00
sg171
I2758
sg23
I28
sbasg23
I1
sS'numDays'
p512
I29
sba(iopmop.models.mission
Mission
p513
(dp514
g5
g6
(S'\x07\xe1\x07\x01\x00\x00\x00\x00\x00\x00'
p515
tp516
Rp517
sg10
(lp518
g12
ag26
ag31
ag36
ag39
asg44
g6
(S'\x07\xe1\x07\x14\x00\x00\x00\x00\x00\x00'
p519
tp520
Rp521
sg48
I100000
sg49
S'Coal june'
p522
sg51
(iopmop.models.location
Location
p523
(dp524
g14
(iopmop.models.point
Point
p525
(dp526
g17
F40.52101036609054
sg18
I31
sg19
F-112.12959490597905
sg20
I180
sbsg21
g56
sg23
I2
sg24
S'Site2'
p527
sbsg58
(lp528
(iopmop.models.schedule
Schedule
p529
(dp530
g62
(lp531
sg48
I5263
sg163
I5263
sg164
g513
sg165
I5263
sg166
g6
(S'\x07\xe1\x07\x01\x00\x00\x00\x00\x00\x00'
p532
tp533
Rp534
sg170
I00
sg171
I5263
sg23
I0
sba(iopmop.models.schedule
Schedule
p535
(dp536
g62
(lp537
sg48
I5263
sg163
I5263
sg164
g513
sg165
I5263
sg166
g6
(S'\x07\xe1\x07\x02\x00\x00\x00\x00\x00\x00'
p538
tp539
Rp540
sg170
I00
sg171
I5263
sg23
I1
sba(iopmop.models.schedule
Schedule
p541
(dp542
g62
(lp543
sg48
I5263
sg163
I5263
sg164
g513
sg165
I5263
sg166
g6
(S'\x07\xe1\x07\x03\x00\x00\x00\x00\x00\x00'
p544
tp545
Rp546
sg170
I00
sg171
I5263
sg23
I2
sba(iopmop.models.schedule
Schedule
p547
(dp548
g62
(lp549
sg48
I5263
sg163
I5263
sg164
g513
sg165
I5263
sg166
g6
(S'\x07\xe1\x07\x04\x00\x00\x00\x00\x00\x00'
p550
tp551
Rp552
sg170
I00
sg171
I5263
sg23
I3
sba(iopmop.models.schedule
Schedule
p553
(dp554
g62
(lp555
(iopmop.models.task
DigTask
p556
(dp557
g48
F3200.0
sg66
I2
sg67
g68
sg69
Nsg70
Nsg71
g523
sg72
g6
(S'\x07\xe1\x07\x05\t\x00\x00\x00\x00\x00'
p558
tp559
Rp560
sg76
g6
(S'\x07\xe1\x07\x05\x11\x00\x0f\x04%\xfb'
p561
tp562
Rp563
sg23
S'4-0'
p564
sba(iopmop.models.task
DigTask
p565
(dp566
g48
F2063.0
sg66
I3
sg67
g68
sg69
Nsg70
Nsg71
g523
sg72
g6
(S'\x07\xe1\x07\x05\t\x00\x00\x00\x00\x00'
p567
tp568
Rp569
sg76
g6
(S"\x07\xe1\x07\x05\x0f\x16'\x05YF"
p570
tp571
Rp572
sg23
S'4-0'
p573
sba(iopmop.models.task
LoadTask
p574
(dp575
g48
F4374.432899282202
sg66
I14
sg67
g68
sg69
Nsg70
Nsg71
g523
sg72
g6
(S'\x07\xe1\x07\x05\t\x00\x00\x00\x00\x00'
p576
tp577
Rp578
sg76
g6
(S'\x07\xe1\x07\x05\x11\x00\x00\x00\x00\x00'
p579
tp580
Rp581
sg23
S'4-0'
p582
sba(iopmop.models.task
LoadTask
p583
(dp584
g48
F856.826006199125
sg66
I11
sg67
g68
sg69
Nsg70
Nsg71
g523
sg72
g6
(S'\x07\xe1\x07\x05\t\x00\x00\x00\x00\x00'
p585
tp586
Rp587
sg76
g6
(S'\x07\xe1\x07\x05\n! \x00\n\xb5'
p588
tp589
Rp590
sg23
S'4-0'
p591
sba(iopmop.models.task
LoadTask
p592
(dp593
g48
F410.32683534400076
sg66
I10
sg67
g68
sg69
Nsg70
Nsg71
g523
sg72
g6
(S'\x07\xe1\x07\x05\t\x00\x00\x00\x00\x00'
p594
tp595
Rp596
sg76
g6
(S'\x07\xe1\x07\x05\n\x00\x00\x00\x00\x00'
p597
tp598
Rp599
sg23
S'4-0'
p600
sba(iopmop.models.task
HaulageTask
p601
(dp602
g48
I456
sg66
I22
sg67
g68
sg101
g26
sg69
Nsg70
Nsg71
g523
sg72
g6
(S'\x07\xe1\x07\x05\t-\x1b\x02I\xad'
p603
tp604
Rp605
sg76
g6
(S'\x07\xe1\x07\x05\n\x1e6\x04\x93Z'
p606
tp607
Rp608
sg23
S'4-1'
p609
sba(iopmop.models.task
HaulageTask
p610
(dp611
g48
I435
sg66
I48
sg67
g68
sg101
g26
sg69
Nsg70
Nsg71
g523
sg72
g6
(S'\x07\xe1\x07\x05\x0b\x0c\x16\x0ck\x9f'
p612
tp613
Rp614
sg76
g6
(S'\x07\xe1\x07\x05\x0b8\x1e\x06cT'
p615
tp616
Rp617
sg23
S'4-1'
p618
sba(iopmop.models.task
HaulageTask
p619
(dp620
g48
I459
sg66
I36
sg67
g68
sg101
g26
sg69
Nsg70
Nsg71
g523
sg72
g6
(S'\x07\xe1\x07\x05\x0c\x10\x10\x03\xdd\xdc'
p621
tp622
Rp623
sg76
g6
(S'\x07\xe1\x07\x05\r\x05\x14\x04\xd5S'
p624
tp625
Rp626
sg23
S'4-1'
p627
sba(iopmop.models.task
HaulageTask
p628
(dp629
g48
I456
sg66
I22
sg67
g68
sg101
g26
sg69
Nsg70
Nsg71
g523
sg72
g6
(S'\x07\xe1\x07\x05\r *\r\xba\x0e'
p630
tp631
Rp632
sg76
g6
(S'\x07\xe1\x07\x05\x0e\x12\n\x00\xc1{'
p633
tp634
Rp635
sg23
S'4-1'
p636
sba(iopmop.models.task
HaulageTask
p637
(dp638
g48
I435
sg66
I48
sg67
g68
sg101
g26
sg69
Nsg70
Nsg71
g523
sg72
g6
(S'\x07\xe1\x07\x05\x0e5\x00\x0c\xc6\xa8'
p639
tp640
Rp641
sg76
g6
(S'\x07\xe1\x07\x05\x0f%\x08\x06\xbe]'
p642
tp643
Rp644
sg23
S'4-1'
p645
sba(iopmop.models.task
HaulageTask
p646
(dp647
g48
I459
sg66
I36
sg67
g68
sg101
g26
sg69
Nsg70
Nsg71
g523
sg72
g6
(S'\x07\xe1\x07\x05\x10\x15$\x08\xb3/'
p648
tp649
Rp650
sg76
g6
(S'\x07\xe1\x07\x05\x11\n(\t\xaa\xa6'
p651
tp652
Rp653
sg23
S'4-1'
p654
sbasg48
I5263
sg163
F0.0
sg164
g513
sg165
F-378.5857408253278
sg166
g6
(S'\x07\xe1\x07\x05\x00\x00\x00\x00\x00\x00'
p655
tp656
Rp657
sg170
I01
sg171
F2563.0
sg23
I4
sba(iopmop.models.schedule
Schedule
p658
(dp659
g62
(lp660
(iopmop.models.task
DigTask
p661
(dp662
g48
F3200.0
sg66
I2
sg67
g68
sg69
Nsg70
Nsg71
g523
sg72
g6
(S'\x07\xe1\x07\x06\t\x00\x00\x00\x00\x00'
p663
tp664
Rp665
sg76
g6
(S'\x07\xe1\x07\x06\x11\x00\x0f\x04%\xfb'
p666
tp667
Rp668
sg23
S'5-0'
p669
sba(iopmop.models.task
DigTask
p670
(dp671
g48
F2063.0
sg66
I3
sg67
g68
sg69
Nsg70
Nsg71
g523
sg72
g6
(S'\x07\xe1\x07\x06\t\x00\x00\x00\x00\x00'
p672
tp673
Rp674
sg76
g6
(S"\x07\xe1\x07\x06\x0f\x16'\x05YF"
p675
tp676
Rp677
sg23
S'5-0'
p678
sba(iopmop.models.task
LoadTask
p679
(dp680
g48
F4374.432899282202
sg66
I14
sg67
g68
sg69
Nsg70
Nsg71
g523
sg72
g6
(S'\x07\xe1\x07\x06\t\x00\x00\x00\x00\x00'
p681
tp682
Rp683
sg76
g6
(S'\x07\xe1\x07\x06\x11\x00\x00\x00\x00\x00'
p684
tp685
Rp686
sg23
S'5-0'
p687
sba(iopmop.models.task
LoadTask
p688
(dp689
g48
F856.826006199125
sg66
I11
sg67
g68
sg69
Nsg70
Nsg71
g523
sg72
g6
(S'\x07\xe1\x07\x06\t\x00\x00\x00\x00\x00'
p690
tp691
Rp692
sg76
g6
(S'\x07\xe1\x07\x06\n! \x00\n\xb5'
p693
tp694
Rp695
sg23
S'5-0'
p696
sba(iopmop.models.task
LoadTask
p697
(dp698
g48
F410.32683534400076
sg66
I10
sg67
g68
sg69
Nsg70
Nsg71
g523
sg72
g6
(S'\x07\xe1\x07\x06\t\x00\x00\x00\x00\x00'
p699
tp700
Rp701
sg76
g6
(S'\x07\xe1\x07\x06\n\x00\x00\x00\x00\x00'
p702
tp703
Rp704
sg23
S'5-0'
p705
sba(iopmop.models.task
HaulageTask
p706
(dp707
g48
I456
sg66
I22
sg67
g68
sg101
g26
sg69
Nsg70
Nsg71
g523
sg72
g6
(S'\x07\xe1\x07\x06\n\x1e6\x04\x93Z'
p708
tp709
Rp710
sg76
g6
(S'\x07\xe1\x07\x06\x0b\x10\x15\x06\xdd\x07'
p711
tp712
Rp713
sg23
S'5-1'
p714
sba(iopmop.models.task
HaulageTask
p715
(dp716
g48
I435
sg66
I48
sg67
g68
sg101
g26
sg69
Nsg70
Nsg71
g523
sg72
g6
(S'\x07\xe1\x07\x06\x0b8\x1e\x06cT'
p717
tp718
Rp719
sg76
g6
(S'\x07\xe1\x07\x06\x0c(&\x00[\t'
p720
tp721
Rp722
sg23
S'5-1'
p723
sba(iopmop.models.task
HaulageTask
p724
(dp725
g48
I459
sg66
I36
sg67
g68
sg101
g26
sg69
Nsg70
Nsg71
g523
sg72
g6
(S'\x07\xe1\x07\x06\r\x05\x14\x04\xd5S'
p726
tp727
Rp728
sg76
g6
(S'\x07\xe1\x07\x06\r6\x18\x05\xcc\xca'
p729
tp730
Rp731
sg23
S'5-1'
p732
sba(iopmop.models.task
HaulageTask
p733
(dp734
g48
I456
sg66
I22
sg67
g68
sg101
g26
sg69
Nsg70
Nsg71
g523
sg72
g6
(S'\x07\xe1\x07\x06\x0e\x12\n\x00\xc1{'
p735
tp736
Rp737
sg76
g6
(S'\x07\xe1\x07\x06\x0f\x03%\x03\x0b('
p738
tp739
Rp740
sg23
S'5-1'
p741
sba(iopmop.models.task
HaulageTask
p742
(dp743
g48
I435
sg66
I48
sg67
g68
sg101
g26
sg69
Nsg70
Nsg71
g523
sg72
g6
(S'\x07\xe1\x07\x06\x0f%\x08\x06\xbe]'
p744
tp745
Rp746
sg76
g6
(S'\x07\xe1\x07\x06\x10\x15\x10\x00\xb6\x12'
p747
tp748
Rp749
sg23
S'5-1'
p750
sba(iopmop.models.task
HaulageTask
p751
(dp752
g48
I459
sg66
I36
sg67
g68
sg101
g26
sg69
Nsg70
Nsg71
g523
sg72
g6
(S'\x07\xe1\x07\x06\x10\x15$\x08\xb3/'
p753
tp754
Rp755
sg76
g6
(S'\x07\xe1\x07\x06\x11\n(\t\xaa\xa6'
p756
tp757
Rp758
sg23
S'5-1'
p759
sba(iopmop.models.task
HaulageTask
p760
(dp761
g48
I386
sg66
I34
sg67
g68
sg101
g26
sg69
Nsg70
Nsg71
g523
sg72
g6
(S'\x07\xe1\x07\x06\t*(\x0b_\xfd'
p762
tp763
Rp764
sg76
g6
(S'\x07\xe1\x07\x06\n\x19\x15\x07}\xba'
p765
tp766
Rp767
sg23
S'5-1'
p768
sbasg48
I5263
sg163
F0.0
sg164
g513
sg165
F-378.5857408253278
sg166
g6
(S'\x07\xe1\x07\x06\x00\x00\x00\x00\x00\x00'
p769
tp770
Rp771
sg170
I01
sg171
F2177.0
sg23
I5
sba(iopmop.models.schedule
Schedule
p772
(dp773
g62
(lp774
sg48
I5263
sg163
I5263
sg164
g513
sg165
I5263
sg166
g6
(S'\x07\xe1\x07\x07\x00\x00\x00\x00\x00\x00'
p775
tp776
Rp777
sg170
I00
sg171
I5263
sg23
I6
sba(iopmop.models.schedule
Schedule
p778
(dp779
g62
(lp780
sg48
I5263
sg163
I5263
sg164
g513
sg165
I5263
sg166
g6
(S'\x07\xe1\x07\x08\x00\x00\x00\x00\x00\x00'
p781
tp782
Rp783
sg170
I00
sg171
I5263
sg23
I7
sba(iopmop.models.schedule
Schedule
p784
(dp785
g62
(lp786
sg48
I5263
sg163
I5263
sg164
g513
sg165
I5263
sg166
g6
(S'\x07\xe1\x07\t\x00\x00\x00\x00\x00\x00'
p787
tp788
Rp789
sg170
I00
sg171
I5263
sg23
I8
sba(iopmop.models.schedule
Schedule
p790
(dp791
g62
(lp792
sg48
I5263
sg163
I5263
sg164
g513
sg165
I5263
sg166
g6
(S'\x07\xe1\x07\n\x00\x00\x00\x00\x00\x00'
p793
tp794
Rp795
sg170
I00
sg171
I5263
sg23
I9
sba(iopmop.models.schedule
Schedule
p796
(dp797
g62
(lp798
sg48
I5263
sg163
I5263
sg164
g513
sg165
I5263
sg166
g6
(S'\x07\xe1\x07\x0b\x00\x00\x00\x00\x00\x00'
p799
tp800
Rp801
sg170
I00
sg171
I5263
sg23
I10
sba(iopmop.models.schedule
Schedule
p802
(dp803
g62
(lp804
sg48
I5263
sg163
I5263
sg164
g513
sg165
I5263
sg166
g6
(S'\x07\xe1\x07\x0c\x00\x00\x00\x00\x00\x00'
p805
tp806
Rp807
sg170
I00
sg171
I5263
sg23
I11
sba(iopmop.models.schedule
Schedule
p808
(dp809
g62
(lp810
sg48
I5263
sg163
I5263
sg164
g513
sg165
I5263
sg166
g6
(S'\x07\xe1\x07\r\x00\x00\x00\x00\x00\x00'
p811
tp812
Rp813
sg170
I00
sg171
I5263
sg23
I12
sba(iopmop.models.schedule
Schedule
p814
(dp815
g62
(lp816
sg48
I5263
sg163
I5263
sg164
g513
sg165
I5263
sg166
g6
(S'\x07\xe1\x07\x0e\x00\x00\x00\x00\x00\x00'
p817
tp818
Rp819
sg170
I00
sg171
I5263
sg23
I13
sba(iopmop.models.schedule
Schedule
p820
(dp821
g62
(lp822
sg48
I5263
sg163
I5263
sg164
g513
sg165
I5263
sg166
g6
(S'\x07\xe1\x07\x0f\x00\x00\x00\x00\x00\x00'
p823
tp824
Rp825
sg170
I00
sg171
I5263
sg23
I14
sba(iopmop.models.schedule
Schedule
p826
(dp827
g62
(lp828
sg48
I5263
sg163
I5263
sg164
g513
sg165
I5263
sg166
g6
(S'\x07\xe1\x07\x10\x00\x00\x00\x00\x00\x00'
p829
tp830
Rp831
sg170
I00
sg171
I5263
sg23
I15
sba(iopmop.models.schedule
Schedule
p832
(dp833
g62
(lp834
sg48
I5263
sg163
I5263
sg164
g513
sg165
I5263
sg166
g6
(S'\x07\xe1\x07\x11\x00\x00\x00\x00\x00\x00'
p835
tp836
Rp837
sg170
I00
sg171
I5263
sg23
I16
sba(iopmop.models.schedule
Schedule
p838
(dp839
g62
(lp840
sg48
I5263
sg163
I5263
sg164
g513
sg165
I5263
sg166
g6
(S'\x07\xe1\x07\x12\x00\x00\x00\x00\x00\x00'
p841
tp842
Rp843
sg170
I00
sg171
I5263
sg23
I17
sba(iopmop.models.schedule
Schedule
p844
(dp845
g62
(lp846
sg48
I5263
sg163
I5263
sg164
g513
sg165
I5263
sg166
g6
(S'\x07\xe1\x07\x13\x00\x00\x00\x00\x00\x00'
p847
tp848
Rp849
sg170
I00
sg171
I5263
sg23
I18
sbasg23
I2
sg512
I19
sbasS'machines'
p850
(lp851
(iopmop.models.machine
Shovel
p852
(dp853
S'model'
p854
S'SHV0'
p855
sS'weightCapacity'
p856
I55
sS'weight'
p857
I1867
sg14
(iopmop.models.point
Point
p858
(dp859
g17
F40.519030435813804
sg18
I3
sg19
F-112.15059865197139
sg20
I140
sbsS'speed'
p860
I20
sS'staticFuelConsumption'
p861
I94
sS'fuelConsumption'
p862
I196
sS'isAvailable'
p863
I01
sS'fuelCapacity'
p864
I9683
sg23
I0
sba(iopmop.models.machine
Shovel
p865
(dp866
g854
S'SHV1'
p867
sg856
I57
sg857
I1536
sg14
(iopmop.models.point
Point
p868
(dp869
g17
F40.53019297078088
sg18
I1
sg19
F-112.14367184586331
sg20
I131
sbsg860
I19
sg861
I82
sg862
I195
sg863
I01
sg864
I10944
sg23
I1
sba(iopmop.models.machine
Shovel
p870
(dp871
g854
S'SHV2'
p872
sg856
I80
sg857
I1535
sg14
(iopmop.models.point
Point
p873
(dp874
g17
F40.52138128720112
sg18
I30
sg19
F-112.12869095919694
sg20
I179
sbsg860
I18
sg861
I95
sg862
I171
sg863
I01
sg864
I10332
sg23
I2
sba(iopmop.models.machine
Shovel
p875
(dp876
g854
S'SHV3'
p877
sg856
I67
sg857
I1793
sg14
(iopmop.models.point
Point
p878
(dp879
g17
F40.53168320699514
sg18
I1
sg19
F-112.14108619637295
sg20
I238
sbsg860
I14
sg861
I118
sg862
I191
sg863
I01
sg864
I10593
sg23
I3
sba(iopmop.models.machine
Shovel
p880
(dp881
g854
S'SHV4'
p882
sg856
I68
sg857
I1554
sg14
(iopmop.models.point
Point
p883
(dp884
g17
F40.51674367004452
sg18
I8
sg19
F-112.15372610635563
sg20
I130
sbsg860
I16
sg861
I113
sg862
I180
sg863
I01
sg864
I9876
sg23
I4
sba(iopmop.models.machine
Shovel
p885
(dp886
g854
S'SHV5'
p887
sg856
I71
sg857
I1836
sg14
(iopmop.models.point
Point
p888
(dp889
g17
F40.523770911584855
sg18
I6
sg19
F-112.14899067669228
sg20
I94
sbsg860
I17
sg861
I106
sg862
I174
sg863
I01
sg864
I11166
sg23
I5
sba(iopmop.models.machine
Shovel
p890
(dp891
g854
S'SHV6'
p892
sg856
I59
sg857
I1693
sg14
(iopmop.models.point
Point
p893
(dp894
g17
F40.525151201835214
sg18
I7
sg19
F-112.15401847356003
sg20
I102
sbsg860
I19
sg861
I101
sg862
I154
sg863
I01
sg864
I8085
sg23
I6
sba(iopmop.models.machine
Shovel
p895
(dp896
g854
S'SHV7'
p897
sg856
I53
sg857
I1894
sg14
(iopmop.models.point
Point
p898
(dp899
g17
F40.517122510265644
sg18
I7
sg19
F-112.15331366397902
sg20
I129
sbsg860
I17
sg861
I112
sg862
I172
sg863
I01
sg864
I10352
sg23
I7
sba(iopmop.models.machine
Shovel
p900
(dp901
g854
S'SHV8'
p902
sg856
I76
sg857
I1995
sg14
(iopmop.models.point
Point
p903
(dp904
g17
F40.521600289092895
sg18
I3
sg19
F-112.15016361369356
sg20
I87
sbsg860
I14
sg861
I88
sg862
I170
sg863
I01
sg864
I9852
sg23
I8
sba(iopmop.models.machine
Shovel
p905
(dp906
g854
S'SHV9'
p907
sg856
I63
sg857
I1955
sg14
(iopmop.models.point
Point
p908
(dp909
g17
F40.5224649901301
sg18
I5
sg19
F-112.15391785781912
sg20
I71
sbsg860
I19
sg861
I86
sg862
I174
sg863
I01
sg864
I8842
sg23
I9
sba(iopmop.models.machine
Loader
p910
(dp911
g854
S'LOD10'
p912
sg856
I43
sg857
I321115
sg14
(iopmop.models.point
Point
p913
(dp914
g17
F40.527495276494996
sg18
I9
sg19
F-112.13205314204737
sg20
I158
sbsg860
I50
sg861
I104
sg862
I172
sg863
I01
sg864
I11122
sg23
I10
sba(iopmop.models.machine
Loader
p915
(dp916
g854
S'LOD11'
p917
sg856
I57
sg857
I352205
sg14
(iopmop.models.point
Point
p918
(dp919
g17
F40.527766933963264
sg18
I4
sg19
F-112.13397834248349
sg20
I237
sbsg860
I44
sg861
I106
sg862
I160
sg863
I01
sg864
I9790
sg23
I11
sba(iopmop.models.machine
Loader
p920
(dp921
g854
S'LOD12'
p922
sg856
I28
sg857
I331252
sg14
(iopmop.models.point
Point
p923
(dp924
g17
F40.52239060498719
sg18
I1
sg19
F-112.15284768290326
sg20
I67
sbsg860
I45
sg861
I104
sg862
I154
sg863
I01
sg864
I10737
sg23
I12
sba(iopmop.models.machine
Loader
p925
(dp926
g854
S'LOD13'
p927
sg856
I59
sg857
I303193
sg14
(iopmop.models.point
Point
p928
(dp929
g17
F40.5226281282086
sg18
I2
sg19
F-112.15311724145829
sg20
I68
sbsg860
I43
sg861
I103
sg862
I158
sg863
I01
sg864
I11590
sg23
I13
sba(iopmop.models.machine
Loader
p930
(dp931
g854
S'LOD14'
p932
sg856
I55
sg857
I396824
sg14
(iopmop.models.point
Point
p933
(dp934
g17
F40.51024793425604
sg18
I11
sg19
F-112.15380523152157
sg20
I208
sbsg860
I44
sg861
I81
sg862
I167
sg863
I01
sg864
I11553
sg23
I14
sba(iopmop.models.machine
Loader
p935
(dp936
g854
S'LOD15'
p937
sg856
I48
sg857
I363853
sg14
(iopmop.models.point
Point
p938
(dp939
g17
F40.5198868051858
sg18
I1
sg19
F-112.15163398332402
sg20
I145
sbsg860
I42
sg861
I98
sg862
I189
sg863
I01
sg864
I11868
sg23
I15
sba(iopmop.models.machine
Loader
p940
(dp941
g854
S'LOD16'
p942
sg856
I45
sg857
I391189
sg14
(iopmop.models.point
Point
p943
(dp944
g17
F40.522401756342724
sg18
I9
sg19
F-112.14671092504932
sg20
I42
sbsg860
I47
sg861
I89
sg862
I195
sg863
I01
sg864
I11776
sg23
I16
sba(iopmop.models.machine
Loader
p945
(dp946
g854
S'LOD17'
p947
sg856
I36
sg857
I386999
sg14
g928
sg860
I41
sg861
I98
sg862
I187
sg863
I01
sg864
I11008
sg23
I17
sba(iopmop.models.machine
Loader
p948
(dp949
g854
S'LOD18'
p950
sg856
I27
sg857
I348307
sg14
(iopmop.models.point
Point
p951
(dp952
g17
F40.52006316199804
sg18
I6
sg19
F-112.1561893718432
sg20
I110
sbsg860
I40
sg861
I89
sg862
I185
sg863
I01
sg864
I9441
sg23
I18
sba(iopmop.models.machine
Loader
p953
(dp954
g854
S'LOD19'
p955
sg856
I60
sg857
I319233
sg14
(iopmop.models.point
Point
p956
(dp957
g17
F40.519089564731466
sg18
I3
sg19
F-112.15094331622777
sg20
I147
sbsg860
I44
sg861
I108
sg862
I195
sg863
I01
sg864
I9266
sg23
I19
sba(iopmop.models.machine
Truck
p958
(dp959
g854
S'TRK20'
p960
sg856
I450
sg857
I334
sg14
g28
sg860
I46
sg861
I93
sg862
I192
sg863
I01
sg864
I10116
sg23
I20
sba(iopmop.models.machine
Truck
p961
(dp962
g854
S'TRK21'
p963
sg856
I360
sg857
I282
sg14
(iopmop.models.point
Point
p964
(dp965
g17
F40.53062720171753
sg18
I1
sg19
F-112.14591685480877
sg20
I74
sbsg860
I49
sg861
I105
sg862
I151
sg863
I01
sg864
I8687
sg23
I21
sba(iopmop.models.machine
Truck
p966
(dp967
g854
S'TRK22'
p968
sg856
I456
sg857
I308
sg14
(iopmop.models.point
Point
p969
(dp970
g17
F40.52268929737417
sg18
I2
sg19
F-112.1483978964535
sg20
I65
sbsg860
I46
sg861
I83
sg862
I154
sg863
I01
sg864
I10661
sg23
I22
sba(iopmop.models.machine
Truck
p971
(dp972
g854
S'TRK23'
p973
sg856
I420
sg857
I397
sg14
(iopmop.models.point
Point
p974
(dp975
g17
F40.528383625142695
sg18
I2
sg19
F-112.15034251342354
sg20
I82
sbsg860
I46
sg861
I82
sg862
I161
sg863
I01
sg864
I9910
sg23
I23
sba(iopmop.models.machine
Truck
p976
(dp977
g854
S'TRK24'
p978
sg856
I361
sg857
I268
sg14
(iopmop.models.point
Point
p979
(dp980
g17
F40.52308178440836
sg18
I2
sg19
F-112.15494785501107
sg20
I143
sbsg860
I48
sg861
I100
sg862
I167
sg863
I01
sg864
I10577
sg23
I24
sba(iopmop.models.machine
Truck
p981
(dp982
g854
S'TRK25'
p983
sg856
I494
sg857
I352
sg14
(iopmop.models.point
Point
p984
(dp985
g17
F40.523236476427776
sg18
I11
sg19
F-112.14844135713713
sg20
I44
sbsg860
I42
sg861
I110
sg862
I168
sg863
I01
sg864
I8369
sg23
I25
sba(iopmop.models.machine
Truck
p986
(dp987
g854
S'TRK26'
p988
sg856
I397
sg857
I265
sg14
(iopmop.models.point
Point
p989
(dp990
g17
F40.52876182355014
sg18
I1
sg19
F-112.14954320139691
sg20
I81
sbsg860
I43
sg861
I108
sg862
I161
sg863
I01
sg864
I8525
sg23
I26
sba(iopmop.models.machine
Truck
p991
(dp992
g854
S'TRK27'
p993
sg856
I385
sg857
I311
sg14
(iopmop.models.point
Point
p994
(dp995
g17
F40.525908608790786
sg18
I4
sg19
F-112.14826781586851
sg20
I92
sbsg860
I44
sg861
I105
sg862
I171
sg863
I01
sg864
I8324
sg23
I27
sba(iopmop.models.machine
Truck
p996
(dp997
g854
S'TRK28'
p998
sg856
I414
sg857
I322
sg14
(iopmop.models.point
Point
p999
(dp1000
g17
F40.519697181358865
sg18
I3
sg19
F-112.15714458174511
sg20
I122
sbsg860
I46
sg861
I120
sg862
I173
sg863
I01
sg864
I8128
sg23
I28
sba(iopmop.models.machine
Truck
p1001
(dp1002
g854
S'TRK29'
p1003
sg856
I428
sg857
I391
sg14
g893
sg860
I40
sg861
I104
sg862
I176
sg863
I01
sg864
I9392
sg23
I29
sba(iopmop.models.machine
Truck
p1004
(dp1005
g854
S'TRK30'
p1006
sg856
I435
sg857
I346
sg14
(iopmop.models.point
Point
p1007
(dp1008
g17
F40.5229309078227
sg18
I3
sg19
F-112.15563986248776
sg20
I144
sbsg860
I47
sg861
I110
sg862
I187
sg863
I01
sg864
I10776
sg23
I30
sba(iopmop.models.machine
Truck
p1009
(dp1010
g854
S'TRK31'
p1011
sg856
I498
sg857
I345
sg14
g974
sg860
I47
sg861
I91
sg862
I161
sg863
I01
sg864
I10455
sg23
I31
sba(iopmop.models.machine
Truck
p1012
(dp1013
g854
S'TRK32'
p1014
sg856
I389
sg857
I318
sg14
(iopmop.models.point
Point
p1015
(dp1016
g17
F40.52278077980013
sg18
I4
sg19
F-112.14704006285734
sg20
I37
sbsg860
I46
sg861
I109
sg862
I190
sg863
I01
sg864
I9953
sg23
I32
sba(iopmop.models.machine
Truck
p1017
(dp1018
g854
S'TRK33'
p1019
sg856
I437
sg857
I325
sg14
(iopmop.models.point
Point
p1020
(dp1021
g17
F40.524900429038105
sg18
I8
sg19
F-112.15478156110925
sg20
I103
sbsg860
I41
sg861
I84
sg862
I194
sg863
I01
sg864
I10666
sg23
I33
sba(iopmop.models.machine
Truck
p1022
(dp1023
g854
S'TRK34'
p1024
sg856
I386
sg857
I344
sg14
(iopmop.models.point
Point
p1025
(dp1026
g17
F40.528875990263
sg18
I8
sg19
F-112.13703606076047
sg20
I245
sbsg860
I50
sg861
I84
sg862
I155
sg863
I01
sg864
I11632
sg23
I34
sba(iopmop.models.machine
Truck
p1027
(dp1028
g854
S'TRK35'
p1029
sg856
I373
sg857
I296
sg14
(iopmop.models.point
Point
p1030
(dp1031
g17
F40.52406145192949
sg18
I1
sg19
F-112.14723784274861
sg20
I89
sbsg860
I48
sg861
I111
sg862
I158
sg863
I01
sg864
I8387
sg23
I35
sba(iopmop.models.machine
Truck
p1032
(dp1033
g854
S'TRK36'
p1034
sg856
I459
sg857
I388
sg14
(iopmop.models.point
Point
p1035
(dp1036
g17
F40.51310284647761
sg18
I2
sg19
F-112.1382324030725
sg20
I231
sbsg860
I43
sg861
I87
sg862
I192
sg863
I01
sg864
I10988
sg23
I36
sba(iopmop.models.machine
Truck
p1037
(dp1038
g854
S'TRK37'
p1039
sg856
I423
sg857
I301
sg14
g938
sg860
I40
sg861
I103
sg862
I165
sg863
I01
sg864
I10097
sg23
I37
sba(iopmop.models.machine
Truck
p1040
(dp1041
g854
S'TRK38'
p1042
sg856
I429
sg857
I276
sg14
g1015
sg860
I41
sg861
I112
sg862
I179
sg863
I01
sg864
I8036
sg23
I38
sba(iopmop.models.machine
Truck
p1043
(dp1044
g854
S'TRK39'
p1045
sg856
I493
sg857
I351
sg14
g999
sg860
I46
sg861
I106
sg862
I186
sg863
I01
sg864
I10577
sg23
I39
sba(iopmop.models.machine
Truck
p1046
(dp1047
g854
S'TRK40'
p1048
sg856
I470
sg857
I389
sg14
g979
sg860
I43
sg861
I107
sg862
I185
sg863
I01
sg864
I11457
sg23
I40
sba(iopmop.models.machine
Truck
p1049
(dp1050
g854
S'TRK41'
p1051
sg856
I461
sg857
I266
sg14
(iopmop.models.point
Point
p1052
(dp1053
g17
F40.523754599861704
sg18
I3
sg19
F-112.15259822802483
sg20
I69
sbsg860
I48
sg861
I112
sg862
I173
sg863
I01
sg864
I8555
sg23
I41
sba(iopmop.models.machine
Truck
p1054
(dp1055
g854
S'TRK42'
p1056
sg856
I403
sg857
I389
sg14
(iopmop.models.point
Point
p1057
(dp1058
g17
F40.52108109681687
sg18
I6
sg19
F-112.15296835079641
sg20
I72
sbsg860
I50
sg861
I105
sg862
I173
sg863
I01
sg864
I9770
sg23
I42
sba(iopmop.models.machine
Truck
p1059
(dp1060
g854
S'TRK43'
p1061
sg856
I494
sg857
I375
sg14
(iopmop.models.point
Point
p1062
(dp1063
g17
F40.50937149461206
sg18
I7
sg19
F-112.1428325575697
sg20
I204
sbsg860
I41
sg861
I85
sg862
I177
sg863
I01
sg864
I9339
sg23
I43
sba(iopmop.models.machine
Truck
p1064
(dp1065
g854
S'TRK44'
p1066
sg856
I466
sg857
I382
sg14
(iopmop.models.point
Point
p1067
(dp1068
g17
F40.5223991989187
sg18
I20
sg19
F-112.15192519721535
sg20
I53
sbsg860
I49
sg861
I95
sg862
I152
sg863
I01
sg864
I9990
sg23
I44
sba(iopmop.models.machine
Truck
p1069
(dp1070
g854
S'TRK45'
p1071
sg856
I450
sg857
I322
sg14
(iopmop.models.point
Point
p1072
(dp1073
g17
F40.52196651518252
sg18
I15
sg19
F-112.15500686116025
sg20
I119
sbsg860
I42
sg861
I105
sg862
I170
sg863
I01
sg864
I11080
sg23
I45
sba(iopmop.models.machine
Truck
p1074
(dp1075
g854
S'TRK46'
p1076
sg856
I431
sg857
I294
sg14
g923
sg860
I40
sg861
I95
sg862
I183
sg863
I01
sg864
I8464
sg23
I46
sba(iopmop.models.machine
Truck
p1077
(dp1078
g854
S'TRK47'
p1079
sg856
I482
sg857
I363
sg14
(iopmop.models.point
Point
p1080
(dp1081
g17
F40.52505944774498
sg18
I5
sg19
F-112.1482852548599
sg20
I93
sbsg860
I43
sg861
I94
sg862
I199
sg863
I01
sg864
I10797
sg23
I47
sba(iopmop.models.machine
Truck
p1082
(dp1083
g854
S'TRK48'
p1084
sg856
I435
sg857
I250
sg14
g903
sg860
I48
sg861
I86
sg862
I197
sg863
I01
sg864
I9029
sg23
I48
sba(iopmop.models.machine
Truck
p1085
(dp1086
g854
S'TRK49'
p1087
sg856
I411
sg857
I385
sg14
(iopmop.models.point
Point
p1088
(dp1089
g17
F40.52503778607846
sg18
I2
sg19
F-112.14760965944618
sg20
I90
sbsg860
I49
sg861
I118
sg862
I183
sg863
I01
sg864
I10910
sg23
I49
sbasS'locations'
p1090
(lp1091
(iopmop.models.location
Location
p1092
(dp1093
g14
(iopmop.models.point
Point
p1094
(dp1095
g17
F40.51938419908192
sg18
I2
sg19
F-112.15045850678587
sg20
I139
sbsg21
g56
sg23
I0
sg24
S'Site0'
p1096
sbag52
ag523
a(iopmop.models.location
Location
p1097
(dp1098
g14
g888
sg21
g56
sg23
I3
sg24
S'Site3'
p1099
sba(iopmop.models.location
Location
p1100
(dp1101
g14
g858
sg21
g56
sg23
I4
sg24
S'Site4'
p1102
sbag12
ag26
ag31
ag36
ag39
a(iopmop.models.location
Location
p1103
(dp1104
g14
(iopmop.models.point
Point
p1105
(dp1106
g17
F40.52827708825454
sg18
I4
sg19
F-112.15161898771271
sg20
I99
sbsg21
S'fuel'
p1107
sg23
I10
sg24
S'Fuel10'
p1108
sba(iopmop.models.location
Location
p1109
(dp1110
g14
(iopmop.models.point
Point
p1111
(dp1112
g17
F40.523840237856376
sg18
I4
sg19
F-112.15156826920315
sg20
I84
sbsg21
g1107
sg23
I11
sg24
S'Fuel11'
p1113
sbas.