(dp0
S'missions'
p1
(lp2
(iopmop.models.mission
Mission
p3
(dp4
S'startDate'
p5
cdatetime
datetime
p6
(S'\x07\xe1\x06\x05\x00\x00\x00\x00\x00\x00'
p7
tp8
Rp9
sS'dumpLocations'
p10
(lp11
(iopmop.models.location
Location
p12
(dp13
S'point'
p14
(iopmop.models.point
Point
p15
(dp16
S'lat'
p17
F40.51972136320689
sS'index'
p18
I9
sS'lng'
p19
F-112.15729881121706
sS'nid'
p20
I113
sbsS'type'
p21
S'dump'
p22
sS'id'
p23
I5
sS'name'
p24
S'Dump5'
p25
sba(iopmop.models.location
Location
p26
(dp27
g14
(iopmop.models.point
Point
p28
(dp29
g17
F40.524449849065824
sg18
I6
sg19
F-112.15532470292851
sg20
I79
sbsg21
g22
sg23
I6
sg24
S'Dump6'
p30
sba(iopmop.models.location
Location
p31
(dp32
g14
(iopmop.models.point
Point
p33
(dp34
g17
F40.53168320699514
sg18
I1
sg19
F-112.14108619637295
sg20
I238
sbsg21
g22
sg23
I7
sg24
S'Dump7'
p35
sba(iopmop.models.location
Location
p36
(dp37
g14
(iopmop.models.point
Point
p38
(dp39
g17
F40.52062271585255
sg18
I14
sg19
F-112.15972248580744
sg20
I14
sbsg21
g22
sg23
I8
sg24
S'Dump8'
p40
sba(iopmop.models.location
Location
p41
(dp42
g14
(iopmop.models.point
Point
p43
(dp44
g17
F40.52876182355014
sg18
I1
sg19
F-112.14954320139691
sg20
I81
sbsg21
g22
sg23
I9
sg24
S'Dump9'
p45
sbasS'endDate'
p46
g6
(S'\x07\xe1\x06\x0b\x00\x00\x00\x00\x00\x00'
p47
tp48
Rp49
sS'target'
p50
I500000
sS'title'
p51
S'New mission 1'
p52
sS'digLocation'
p53
(iopmop.models.location
Location
p54
(dp55
g14
(iopmop.models.point
Point
p56
(dp57
g17
F40.517621027480764
sg18
I5
sg19
F-112.11082469316898
sg20
I213
sbsg21
S'dig'
p58
sg23
I2
sg24
S'Site2'
p59
sbsS'schedules'
p60
(lp61
sg23
I1
sS'numDays'
p62
I6
sba(iopmop.models.mission
Mission
p63
(dp64
g5
g6
(S'\x07\xe1\x06\x01\x00\x00\x00\x00\x00\x00'
p65
tp66
Rp67
sg10
(lp68
g12
ag26
ag31
ag36
ag41
asg46
g6
(S'\x07\xe1\x06\x0b\x00\x00\x00\x00\x00\x00'
p69
tp70
Rp71
sg50
I500000
sg51
S'New mission 2'
p72
sg53
(iopmop.models.location
Location
p73
(dp74
g14
(iopmop.models.point
Point
p75
(dp76
g17
F40.520529070040396
sg18
I6
sg19
F-112.14105938451621
sg20
I136
sbsg21
g58
sg23
I4
sg24
S'Site4'
p77
sbsg60
(lp78
sg23
I2
sg62
I10
sbasS'machines'
p79
(lp80
(iopmop.models.machine
Shovel
p81
(dp82
S'weightCapacity'
p83
I69
sS'weight'
p84
I1349
sg14
(iopmop.models.point
Point
p85
(dp86
g17
F40.5198868051858
sg18
I27
sg19
F-112.15163398332402
sg20
I60
sbsS'speed'
p87
I12
sS'staticFuelConsumption'
p88
I109
sS'isAvailable'
p89
I01
sS'fuelConsumption'
p90
I184
sS'model'
p91
S'SHV0'
p92
sS'fuelCapacity'
p93
I11483
sg23
I0
sba(iopmop.models.machine
Shovel
p94
(dp95
g83
I59
sg84
I1779
sg14
(iopmop.models.point
Point
p96
(dp97
g17
F40.52560778799078
sg18
I3
sg19
F-112.14102178593572
sg20
I133
sbsg87
I14
sg88
I84
sg89
I01
sg90
I165
sg91
S'SHV1'
p98
sg93
I11481
sg23
I1
sba(iopmop.models.machine
Shovel
p99
(dp100
g83
I48
sg84
I1807
sg14
(iopmop.models.point
Point
p101
(dp102
g17
F40.52893480762052
sg18
I17
sg19
F-112.12887637205426
sg20
I166
sbsg87
I17
sg88
I85
sg89
I01
sg90
I153
sg91
S'SHV2'
p103
sg93
I11406
sg23
I2
sba(iopmop.models.machine
Shovel
p104
(dp105
g83
I62
sg84
I1939
sg14
(iopmop.models.point
Point
p106
(dp107
g17
F40.528875990263
sg18
I8
sg19
F-112.13703606076047
sg20
I245
sbsg87
I13
sg88
I98
sg89
I01
sg90
I151
sg91
S'SHV3'
p108
sg93
I11624
sg23
I3
sba(iopmop.models.machine
Shovel
p109
(dp110
g83
I68
sg84
I1326
sg14
g33
sg87
I13
sg88
I100
sg89
I01
sg90
I193
sg91
S'SHV4'
p111
sg93
I9268
sg23
I4
sba(iopmop.models.machine
Loader
p112
(dp113
g83
I45
sg84
I341239
sg14
(iopmop.models.point
Point
p114
(dp115
g17
F40.520300713396445
sg18
I7
sg19
F-112.1516675109367
sg20
I73
sbsg87
I43
sg88
I108
sg89
I01
sg90
I154
sg91
S'LOD5'
p116
sg93
I9331
sg23
I5
sba(iopmop.models.machine
Loader
p117
(dp118
g83
I41
sg84
I381936
sg14
(iopmop.models.point
Point
p119
(dp120
g17
F40.519697181358865
sg18
I3
sg19
F-112.15714458174511
sg20
I122
sbsg87
I43
sg88
I100
sg89
I01
sg90
I189
sg91
S'LOD6'
p121
sg93
I8636
sg23
I6
sba(iopmop.models.machine
Loader
p122
(dp123
g83
I58
sg84
I375143
sg14
(iopmop.models.point
Point
p124
(dp125
g17
F40.529357119273065
sg18
I1
sg19
F-112.14197132534787
sg20
I189
sbsg87
I47
sg88
I119
sg89
I01
sg90
I156
sg91
S'LOD7'
p126
sg93
I11329
sg23
I7
sba(iopmop.models.machine
Loader
p127
(dp128
g83
I56
sg84
I353368
sg14
g96
sg87
I43
sg88
I118
sg89
I01
sg90
I172
sg91
S'LOD8'
p129
sg93
I8413
sg23
I8
sba(iopmop.models.machine
Loader
p130
(dp131
g83
I52
sg84
I298462
sg14
(iopmop.models.point
Point
p132
(dp133
g17
F40.53105432014323
sg18
I2
sg19
F-112.14738744003029
sg20
I75
sbsg87
I44
sg88
I81
sg89
I01
sg90
I163
sg91
S'LOD9'
p134
sg93
I11596
sg23
I9
sba(iopmop.models.machine
Truck
p135
(dp136
g83
I374
sg84
I331
sg14
(iopmop.models.point
Point
p137
(dp138
g17
F40.519089564731466
sg18
I4
sg19
F-112.15094331622777
sg20
I141
sbsg87
I50
sg88
I98
sg89
I01
sg90
I151
sg91
S'TRK10'
p139
sg93
I9839
sg23
I10
sba(iopmop.models.machine
Truck
p140
(dp141
g83
I339
sg84
I348
sg14
(iopmop.models.point
Point
p142
(dp143
g17
F40.523840237856376
sg18
I4
sg19
F-112.15156826920315
sg20
I84
sbsg87
I50
sg88
I104
sg89
I01
sg90
I183
sg91
S'TRK11'
p144
sg93
I9142
sg23
I11
sba(iopmop.models.machine
Truck
p145
(dp146
g83
I308
sg84
I395
sg14
(iopmop.models.point
Point
p147
(dp148
g17
F40.52945165509868
sg18
I5
sg19
F-112.13736795724333
sg20
I242
sbsg87
I43
sg88
I105
sg89
I01
sg90
I181
sg91
S'TRK12'
p149
sg93
I9060
sg23
I12
sba(iopmop.models.machine
Truck
p150
(dp151
g83
I338
sg84
I317
sg14
(iopmop.models.point
Point
p152
(dp153
g17
F40.51711290753156
sg18
I6
sg19
F-112.15228565021403
sg20
I128
sbsg87
I50
sg88
I112
sg89
I01
sg90
I200
sg91
S'TRK13'
p154
sg93
I9507
sg23
I13
sba(iopmop.models.machine
Truck
p155
(dp156
g83
I344
sg84
I368
sg14
(iopmop.models.point
Point
p157
(dp158
g17
F40.51543389498886
sg18
I4
sg19
F-112.13385560637846
sg20
I201
sbsg87
I40
sg88
I116
sg89
I01
sg90
I179
sg91
S'TRK14'
p159
sg93
I8024
sg23
I14
sba(iopmop.models.machine
Truck
p160
(dp161
g83
I307
sg84
I336
sg14
(iopmop.models.point
Point
p162
(dp163
g17
F40.52144455481663
sg18
I4
sg19
F-112.14980874008938
sg20
I88
sbsg87
I46
sg88
I105
sg89
I01
sg90
I196
sg91
S'TRK15'
p164
sg93
I11401
sg23
I15
sba(iopmop.models.machine
Truck
p165
(dp166
g83
I398
sg84
I374
sg14
(iopmop.models.point
Point
p167
(dp168
g17
F40.523770911584855
sg18
I6
sg19
F-112.14899067669228
sg20
I94
sbsg87
I44
sg88
I114
sg89
I01
sg90
I154
sg91
S'TRK16'
p169
sg93
I11082
sg23
I16
sba(iopmop.models.machine
Truck
p170
(dp171
g83
I305
sg84
I271
sg14
(iopmop.models.point
Point
p172
(dp173
g17
F40.52199302087392
sg18
I1
sg19
F-112.1485695595245
sg20
I64
sbsg87
I41
sg88
I89
sg89
I01
sg90
I188
sg91
S'TRK17'
p174
sg93
I8560
sg23
I17
sba(iopmop.models.machine
Truck
p175
(dp176
g83
I301
sg84
I384
sg14
(iopmop.models.point
Point
p177
(dp178
g17
F40.52451305258641
sg18
I1
sg19
F-112.10572931713864
sg20
I209
sbsg87
I50
sg88
I80
sg89
I01
sg90
I181
sg91
S'TRK18'
p179
sg93
I11460
sg23
I18
sba(iopmop.models.machine
Truck
p180
(dp181
g83
I312
sg84
I351
sg14
(iopmop.models.point
Point
p182
(dp183
g17
F40.52278077980013
sg18
I5
sg19
F-112.14704006285734
sg20
I38
sbsg87
I45
sg88
I107
sg89
I01
sg90
I196
sg91
S'TRK19'
p184
sg93
I8925
sg23
I19
sbasS'locations'
p185
(lp186
(iopmop.models.location
Location
p187
(dp188
g14
(iopmop.models.point
Point
p189
(dp190
g17
F40.52387895130079
sg18
I4
sg19
F-112.15300591635344
sg20
I70
sbsg21
g58
sg23
I0
sg24
S'Site0'
p191
sba(iopmop.models.location
Location
p192
(dp193
g14
(iopmop.models.point
Point
p194
(dp195
g17
F40.527766933963264
sg18
I4
sg19
F-112.13397834248349
sg20
I237
sbsg21
g58
sg23
I1
sg24
S'Site1'
p196
sbag54
a(iopmop.models.location
Location
p197
(dp198
g14
(iopmop.models.point
Point
p199
(dp200
g17
F40.50912571625677
sg18
I8
sg19
F-112.14476031939245
sg20
I205
sbsg21
g58
sg23
I3
sg24
S'Site3'
p201
sbag73
ag12
ag26
ag31
ag36
ag41
a(iopmop.models.location
Location
p202
(dp203
g14
(iopmop.models.point
Point
p204
(dp205
g17
F40.518862269185945
sg18
I3
sg19
F-112.14784948551801
sg20
I125
sbsg21
S'fuel'
p206
sg23
I10
sg24
S'Fuel10'
p207
sba(iopmop.models.location
Location
p208
(dp209
g14
g96
sg21
g206
sg23
I11
sg24
S'Fuel11'
p210
sbas.