(dp0
S'missions'
p1
(lp2
(iopmop.models.mission
Mission
p3
(dp4
S'startDate'
p5
cdatetime
datetime
p6
(S'\x07\xe1\x06\x01\x00\x00\x00\x00\x00\x00'
p7
tp8
Rp9
sS'dumpLocations'
p10
(lp11
(iopmop.models.location
Location
p12
(dp13
S'point'
p14
(iopmop.models.point
Point
p15
(dp16
S'lat'
p17
F40.520529070040396
sS'index'
p18
I6
sS'lng'
p19
F-112.14105938451621
sS'nid'
p20
I136
sbsS'type'
p21
S'dump'
p22
sS'id'
p23
I5
sS'name'
p24
S'Dump5'
p25
sba(iopmop.models.location
Location
p26
(dp27
g14
(iopmop.models.point
Point
p28
(dp29
g17
F40.52345285661486
sg18
I3
sg19
F-112.14888069577023
sg20
I66
sbsg21
g22
sg23
I6
sg24
S'Dump6'
p30
sba(iopmop.models.location
Location
p31
(dp32
g14
(iopmop.models.point
Point
p33
(dp34
g17
F40.519030435813804
sg18
I3
sg19
F-112.15059865197139
sg20
I140
sbsg21
g22
sg23
I7
sg24
S'Dump7'
p35
sba(iopmop.models.location
Location
p36
(dp37
g14
(iopmop.models.point
Point
p38
(dp39
g17
F40.528013668947594
sg18
I2
sg19
F-112.13682424128115
sg20
I151
sbsg21
g22
sg23
I8
sg24
S'Dump8'
p40
sba(iopmop.models.location
Location
p41
(dp42
g14
(iopmop.models.point
Point
p43
(dp44
g17
F40.52359965398034
sg18
I1
sg19
F-112.1546206230621
sg20
I142
sbsg21
g22
sg23
I9
sg24
S'Dump9'
p45
sbasS'endDate'
p46
g6
(S'\x07\xe1\x06\x1e\x00\x00\x00\x00\x00\x00'
p47
tp48
Rp49
sS'target'
p50
I80000
sS'title'
p51
S'Iron min'
p52
sS'digLocation'
p53
(iopmop.models.location
Location
p54
(dp55
g14
(iopmop.models.point
Point
p56
(dp57
g17
F40.523770911584855
sg18
I6
sg19
F-112.14899067669228
sg20
I94
sbsg21
S'dig'
p58
sg23
I1
sg24
S'Site1'
p59
sbsS'schedules'
p60
(lp61
(iopmop.models.schedule
Schedule
p62
(dp63
S'tasks'
p64
(lp65
(iopmop.models.task
DigTask
p66
(dp67
g50
F2758.0
sS'machineId'
p68
I9
sS'comments'
p69
S'None'
p70
sS'actualTarget'
p71
NsS'cost'
p72
NsS'location'
p73
g54
sS'startTime'
p74
g6
(S'\x07\xe1\x06\x01\t\x00\x00\x00\x00\x00'
p75
tp76
Rp77
sS'endTime'
p78
g6
(S'\x07\xe1\x06\x01\x0e\x0b.\x01r\x15'
p79
tp80
Rp81
sg23
S'0-0'
p82
sba(iopmop.models.task
LoadTask
p83
(dp84
g50
F3417.0
sg68
I15
sg69
g70
sg71
Nsg72
Nsg73
g54
sg74
g6
(S'\x07\xe1\x06\x01\t\x00\x00\x00\x00\x00'
p85
tp86
Rp87
sg78
g6
(S'\x07\xe1\x06\x01\r\x06\x00\x00\x00\x00'
p88
tp89
Rp90
sg23
S'0-0'
p91
sba(iopmop.models.task
HaulageTask
p92
(dp93
g50
I452
sg68
I47
sg69
g70
sS'dumpLocation'
p94
g31
sg71
Nsg72
Nsg73
g54
sg74
g6
(S'\x07\xe1\x06\x01\t(6\x0en\x0c'
p95
tp96
Rp97
sg78
g6
(S'\x07\xe1\x06\x01\n\x01\x16\x06b\xd2'
p98
tp99
Rp100
sg23
S'0-1'
p101
sba(iopmop.models.task
HaulageTask
p102
(dp103
g50
I382
sg68
I34
sg69
g70
sg94
g31
sg71
Nsg72
Nsg73
g54
sg74
g6
(S'\x07\xe1\x06\x01\n\x06\x05\x04a\x8c'
p104
tp105
Rp106
sg78
g6
(S'\x07\xe1\x06\x01\n\x1c\x07\x00\xc1P'
p107
tp108
Rp109
sg23
S'0-1'
p110
sba(iopmop.models.task
HaulageTask
p111
(dp112
g50
I351
sg68
I41
sg69
g70
sg94
g31
sg71
Nsg72
Nsg73
g54
sg74
g6
(S'\x07\xe1\x06\x01\n-\x11\x06\xbe6'
p113
tp114
Rp115
sg78
g6
(S'\x07\xe1\x06\x01\x0b\x06\x14\x0e1\xf4'
p116
tp117
Rp118
sg23
S'0-1'
p119
sba(iopmop.models.task
HaulageTask
p120
(dp121
g50
I385
sg68
I25
sg69
g70
sg94
g31
sg71
Nsg72
Nsg73
g54
sg74
g6
(S'\x07\xe1\x06\x01\x0b\x06)\x0e*\xb0'
p122
tp123
Rp124
sg78
g6
(S'\x07\xe1\x06\x01\x0b\x1b0\r\xfc\x18'
p125
tp126
Rp127
sg23
S'0-1'
p128
sba(iopmop.models.task
HaulageTask
p129
(dp130
g50
I442
sg68
I28
sg69
g70
sg94
g31
sg71
Nsg72
Nsg73
g54
sg74
g6
(S'\x07\xe1\x06\x01\x0b#\t\x0c,\x0b'
p131
tp132
Rp133
sg78
g6
(S'\x07\xe1\x06\x01\x0b9\x13\x0b\xbb('
p134
tp135
Rp136
sg23
S'0-1'
p137
sba(iopmop.models.task
HaulageTask
p138
(dp139
g50
I452
sg68
I47
sg69
g70
sg94
g31
sg71
Nsg72
Nsg73
g54
sg74
g6
(S'\x07\xe1\x06\x01\x0c\x04\x07\x03\xe66'
p140
tp141
Rp142
sg78
g6
(S'\x07\xe1\x06\x01\x0c\x18"\x0b\x1d<'
p143
tp144
Rp145
sg23
S'0-1'
p146
sba(iopmop.models.task
HaulageTask
p147
(dp148
g50
I382
sg68
I34
sg69
g70
sg94
g31
sg71
Nsg72
Nsg73
g54
sg74
g6
(S'\x07\xe1\x06\x01\x0c(\x11\t\x84h'
p149
tp150
Rp151
sg78
g6
(S'\x07\xe1\x06\x01\r\x02\x13\x05\xe4,'
p152
tp153
Rp154
sg23
S'0-1'
p155
sbasg50
I2758
sS'remainingDig'
p156
F0.0
sS'mission'
p157
g3
sS'remainingLoad'
p158
F-659.0
sS'date'
p159
g6
(S'\x07\xe1\x06\x01\x00\x00\x00\x00\x00\x00'
p160
tp161
Rp162
sS'allocated'
p163
I01
sS'remainingHaulage'
p164
F-88.0
sg23
I0
sba(iopmop.models.schedule
Schedule
p165
(dp166
g64
(lp167
(iopmop.models.task
DigTask
p168
(dp169
g50
F2758.0
sg68
I9
sg69
g70
sg71
Nsg72
Nsg73
g54
sg74
g6
(S'\x07\xe1\x06\x02\t\x00\x00\x00\x00\x00'
p170
tp171
Rp172
sg78
g6
(S'\x07\xe1\x06\x02\x0e\x0b.\x01r\x15'
p173
tp174
Rp175
sg23
S'1-0'
p176
sba(iopmop.models.task
LoadTask
p177
(dp178
g50
F3417.0
sg68
I15
sg69
g70
sg71
Nsg72
Nsg73
g54
sg74
g6
(S'\x07\xe1\x06\x02\t\x00\x00\x00\x00\x00'
p179
tp180
Rp181
sg78
g6
(S'\x07\xe1\x06\x02\r\x06\x00\x00\x00\x00'
p182
tp183
Rp184
sg23
S'1-0'
p185
sba(iopmop.models.task
HaulageTask
p186
(dp187
g50
I351
sg68
I41
sg69
g70
sg94
g31
sg71
Nsg72
Nsg73
g54
sg74
g6
(S'\x07\xe1\x06\x02\t*\x06\x0e\xe7|'
p188
tp189
Rp190
sg78
g6
(S'\x07\xe1\x06\x02\n\x03\n\x07\x18\xfa'
p191
tp192
Rp193
sg23
S'1-1'
p194
sba(iopmop.models.task
HaulageTask
p195
(dp196
g50
I385
sg68
I25
sg69
g70
sg94
g31
sg71
Nsg72
Nsg73
g54
sg74
g6
(S'\x07\xe1\x06\x02\n\x03\x14\x0e\xb6x'
p197
tp198
Rp199
sg78
g6
(S'\x07\xe1\x06\x02\n\x18\x1b\x0e\x87\xe0'
p200
tp201
Rp202
sg23
S'1-1'
p203
sba(iopmop.models.task
HaulageTask
p204
(dp205
g50
I452
sg68
I47
sg69
g70
sg94
g31
sg71
Nsg72
Nsg73
g54
sg74
g6
(S'\x07\xe1\x06\x02\n*\x11\x05\x8e\x9e'
p206
tp207
Rp208
sg78
g6
(S'\x07\xe1\x06\x02\x0b\x02,\x0c\xc5\xa4'
p209
tp210
Rp211
sg23
S'1-1'
p212
sba(iopmop.models.task
HaulageTask
p213
(dp214
g50
I351
sg68
I41
sg69
g70
sg94
g31
sg71
Nsg72
Nsg73
g54
sg74
g6
(S'\x07\xe1\x06\x02\x0b\x06\x14\x0e1\xf4'
p215
tp216
Rp217
sg78
g6
(S'\x07\xe1\x06\x02\x0b\x1b\x18\x06cr'
p218
tp219
Rp220
sg23
S'1-1'
p221
sba(iopmop.models.task
HaulageTask
p222
(dp223
g50
I385
sg68
I25
sg69
g70
sg94
g31
sg71
Nsg72
Nsg73
g54
sg74
g6
(S'\x07\xe1\x06\x02\x0b\x1b0\r\xfc\x18'
p224
tp225
Rp226
sg78
g6
(S'\x07\xe1\x06\x02\x0b07\r\xcd\x80'
p227
tp228
Rp229
sg23
S'1-1'
p230
sba(iopmop.models.task
HaulageTask
p231
(dp232
g50
I442
sg68
I28
sg69
g70
sg94
g31
sg71
Nsg72
Nsg73
g54
sg74
g6
(S'\x07\xe1\x06\x02\x0b9\x13\x0b\xbb('
p233
tp234
Rp235
sg78
g6
(S'\x07\xe1\x06\x02\x0c\x13\x1d\x0bJE'
p236
tp237
Rp238
sg23
S'1-1'
p239
sba(iopmop.models.task
HaulageTask
p240
(dp241
g50
I452
sg68
I47
sg69
g70
sg94
g31
sg71
Nsg72
Nsg73
g54
sg74
g6
(S'\x07\xe1\x06\x02\x0c\x18"\x0b\x1d<'
p242
tp243
Rp244
sg78
g6
(S'\x07\xe1\x06\x02\x0c-\x02\x03\x12\x02'
p245
tp246
Rp247
sg23
S'1-1'
p248
sbasg50
I2758
sg156
F0.0
sg157
g3
sg158
F-659.0
sg159
g6
(S'\x07\xe1\x06\x02\x00\x00\x00\x00\x00\x00'
p249
tp250
Rp251
sg163
I01
sg164
F-60.0
sg23
I1
sba(iopmop.models.schedule
Schedule
p252
(dp253
g64
(lp254
sg50
I2758
sg156
I2758
sg157
g3
sg158
I2758
sg159
g6
(S'\x07\xe1\x06\x03\x00\x00\x00\x00\x00\x00'
p255
tp256
Rp257
sg163
I00
sg164
I2758
sg23
I2
sba(iopmop.models.schedule
Schedule
p258
(dp259
g64
(lp260
sg50
I2758
sg156
I2758
sg157
g3
sg158
I2758
sg159
g6
(S'\x07\xe1\x06\x04\x00\x00\x00\x00\x00\x00'
p261
tp262
Rp263
sg163
I00
sg164
I2758
sg23
I3
sba(iopmop.models.schedule
Schedule
p264
(dp265
g64
(lp266
sg50
I2758
sg156
I2758
sg157
g3
sg158
I2758
sg159
g6
(S'\x07\xe1\x06\x05\x00\x00\x00\x00\x00\x00'
p267
tp268
Rp269
sg163
I00
sg164
I2758
sg23
I4
sba(iopmop.models.schedule
Schedule
p270
(dp271
g64
(lp272
sg50
I2758
sg156
I2758
sg157
g3
sg158
I2758
sg159
g6
(S'\x07\xe1\x06\x06\x00\x00\x00\x00\x00\x00'
p273
tp274
Rp275
sg163
I00
sg164
I2758
sg23
I5
sba(iopmop.models.schedule
Schedule
p276
(dp277
g64
(lp278
sg50
I2758
sg156
I2758
sg157
g3
sg158
I2758
sg159
g6
(S'\x07\xe1\x06\x07\x00\x00\x00\x00\x00\x00'
p279
tp280
Rp281
sg163
I00
sg164
I2758
sg23
I6
sba(iopmop.models.schedule
Schedule
p282
(dp283
g64
(lp284
sg50
I2758
sg156
I2758
sg157
g3
sg158
I2758
sg159
g6
(S'\x07\xe1\x06\x08\x00\x00\x00\x00\x00\x00'
p285
tp286
Rp287
sg163
I00
sg164
I2758
sg23
I7
sba(iopmop.models.schedule
Schedule
p288
(dp289
g64
(lp290
sg50
I2758
sg156
I2758
sg157
g3
sg158
I2758
sg159
g6
(S'\x07\xe1\x06\t\x00\x00\x00\x00\x00\x00'
p291
tp292
Rp293
sg163
I00
sg164
I2758
sg23
I8
sba(iopmop.models.schedule
Schedule
p294
(dp295
g64
(lp296
sg50
I2758
sg156
I2758
sg157
g3
sg158
I2758
sg159
g6
(S'\x07\xe1\x06\n\x00\x00\x00\x00\x00\x00'
p297
tp298
Rp299
sg163
I00
sg164
I2758
sg23
I9
sba(iopmop.models.schedule
Schedule
p300
(dp301
g64
(lp302
sg50
I2758
sg156
I2758
sg157
g3
sg158
I2758
sg159
g6
(S'\x07\xe1\x06\x0b\x00\x00\x00\x00\x00\x00'
p303
tp304
Rp305
sg163
I00
sg164
I2758
sg23
I10
sba(iopmop.models.schedule
Schedule
p306
(dp307
g64
(lp308
sg50
I2758
sg156
I2758
sg157
g3
sg158
I2758
sg159
g6
(S'\x07\xe1\x06\x0c\x00\x00\x00\x00\x00\x00'
p309
tp310
Rp311
sg163
I00
sg164
I2758
sg23
I11
sba(iopmop.models.schedule
Schedule
p312
(dp313
g64
(lp314
sg50
I2758
sg156
I2758
sg157
g3
sg158
I2758
sg159
g6
(S'\x07\xe1\x06\r\x00\x00\x00\x00\x00\x00'
p315
tp316
Rp317
sg163
I00
sg164
I2758
sg23
I12
sba(iopmop.models.schedule
Schedule
p318
(dp319
g64
(lp320
sg50
I2758
sg156
I2758
sg157
g3
sg158
I2758
sg159
g6
(S'\x07\xe1\x06\x0e\x00\x00\x00\x00\x00\x00'
p321
tp322
Rp323
sg163
I00
sg164
I2758
sg23
I13
sba(iopmop.models.schedule
Schedule
p324
(dp325
g64
(lp326
sg50
I2758
sg156
I2758
sg157
g3
sg158
I2758
sg159
g6
(S'\x07\xe1\x06\x0f\x00\x00\x00\x00\x00\x00'
p327
tp328
Rp329
sg163
I00
sg164
I2758
sg23
I14
sba(iopmop.models.schedule
Schedule
p330
(dp331
g64
(lp332
sg50
I2758
sg156
I2758
sg157
g3
sg158
I2758
sg159
g6
(S'\x07\xe1\x06\x10\x00\x00\x00\x00\x00\x00'
p333
tp334
Rp335
sg163
I00
sg164
I2758
sg23
I15
sba(iopmop.models.schedule
Schedule
p336
(dp337
g64
(lp338
sg50
I2758
sg156
I2758
sg157
g3
sg158
I2758
sg159
g6
(S'\x07\xe1\x06\x11\x00\x00\x00\x00\x00\x00'
p339
tp340
Rp341
sg163
I00
sg164
I2758
sg23
I16
sba(iopmop.models.schedule
Schedule
p342
(dp343
g64
(lp344
sg50
I2758
sg156
I2758
sg157
g3
sg158
I2758
sg159
g6
(S'\x07\xe1\x06\x12\x00\x00\x00\x00\x00\x00'
p345
tp346
Rp347
sg163
I00
sg164
I2758
sg23
I17
sba(iopmop.models.schedule
Schedule
p348
(dp349
g64
(lp350
sg50
I2758
sg156
I2758
sg157
g3
sg158
I2758
sg159
g6
(S'\x07\xe1\x06\x13\x00\x00\x00\x00\x00\x00'
p351
tp352
Rp353
sg163
I00
sg164
I2758
sg23
I18
sba(iopmop.models.schedule
Schedule
p354
(dp355
g64
(lp356
sg50
I2758
sg156
I2758
sg157
g3
sg158
I2758
sg159
g6
(S'\x07\xe1\x06\x14\x00\x00\x00\x00\x00\x00'
p357
tp358
Rp359
sg163
I00
sg164
I2758
sg23
I19
sba(iopmop.models.schedule
Schedule
p360
(dp361
g64
(lp362
sg50
I2758
sg156
I2758
sg157
g3
sg158
I2758
sg159
g6
(S'\x07\xe1\x06\x15\x00\x00\x00\x00\x00\x00'
p363
tp364
Rp365
sg163
I00
sg164
I2758
sg23
I20
sba(iopmop.models.schedule
Schedule
p366
(dp367
g64
(lp368
sg50
I2758
sg156
I2758
sg157
g3
sg158
I2758
sg159
g6
(S'\x07\xe1\x06\x16\x00\x00\x00\x00\x00\x00'
p369
tp370
Rp371
sg163
I00
sg164
I2758
sg23
I21
sba(iopmop.models.schedule
Schedule
p372
(dp373
g64
(lp374
sg50
I2758
sg156
I2758
sg157
g3
sg158
I2758
sg159
g6
(S'\x07\xe1\x06\x17\x00\x00\x00\x00\x00\x00'
p375
tp376
Rp377
sg163
I00
sg164
I2758
sg23
I22
sba(iopmop.models.schedule
Schedule
p378
(dp379
g64
(lp380
sg50
I2758
sg156
I2758
sg157
g3
sg158
I2758
sg159
g6
(S'\x07\xe1\x06\x18\x00\x00\x00\x00\x00\x00'
p381
tp382
Rp383
sg163
I00
sg164
I2758
sg23
I23
sba(iopmop.models.schedule
Schedule
p384
(dp385
g64
(lp386
sg50
I2758
sg156
I2758
sg157
g3
sg158
I2758
sg159
g6
(S'\x07\xe1\x06\x19\x00\x00\x00\x00\x00\x00'
p387
tp388
Rp389
sg163
I00
sg164
I2758
sg23
I24
sba(iopmop.models.schedule
Schedule
p390
(dp391
g64
(lp392
sg50
I2758
sg156
I2758
sg157
g3
sg158
I2758
sg159
g6
(S'\x07\xe1\x06\x1a\x00\x00\x00\x00\x00\x00'
p393
tp394
Rp395
sg163
I00
sg164
I2758
sg23
I25
sba(iopmop.models.schedule
Schedule
p396
(dp397
g64
(lp398
sg50
I2758
sg156
I2758
sg157
g3
sg158
I2758
sg159
g6
(S'\x07\xe1\x06\x1b\x00\x00\x00\x00\x00\x00'
p399
tp400
Rp401
sg163
I00
sg164
I2758
sg23
I26
sba(iopmop.models.schedule
Schedule
p402
(dp403
g64
(lp404
sg50
I2758
sg156
I2758
sg157
g3
sg158
I2758
sg159
g6
(S'\x07\xe1\x06\x1c\x00\x00\x00\x00\x00\x00'
p405
tp406
Rp407
sg163
I00
sg164
I2758
sg23
I27
sba(iopmop.models.schedule
Schedule
p408
(dp409
g64
(lp410
sg50
I2758
sg156
I2758
sg157
g3
sg158
I2758
sg159
g6
(S'\x07\xe1\x06\x1d\x00\x00\x00\x00\x00\x00'
p411
tp412
Rp413
sg163
I00
sg164
I2758
sg23
I28
sbasg23
I1
sS'numDays'
p414
I29
sba(iopmop.models.mission
Mission
p415
(dp416
g5
g6
(S'\x07\xe1\x06\x01\x00\x00\x00\x00\x00\x00'
p417
tp418
Rp419
sg10
(lp420
g12
ag26
ag31
ag36
ag41
asg46
g6
(S'\x07\xe1\x06\x14\x00\x00\x00\x00\x00\x00'
p421
tp422
Rp423
sg50
I100000
sg51
S'Coal june'
p424
sg53
(iopmop.models.location
Location
p425
(dp426
g14
g33
sg21
g58
sg23
I2
sg24
S'Site2'
p427
sbsg60
(lp428
(iopmop.models.schedule
Schedule
p429
(dp430
g64
(lp431
(iopmop.models.task
DigTask
p432
(dp433
g50
F2320.0
sg68
I8
sg69
g70
sg71
Nsg72
Nsg73
g425
sg74
g6
(S'\x07\xe1\x06\x01\t\x00\x00\x00\x00\x00'
p434
tp435
Rp436
sg78
g6
(S'\x07\xe1\x06\x01\x11\x039\x08(\xe3'
p437
tp438
Rp439
sg23
S'0-0'
p440
sba(iopmop.models.task
DigTask
p441
(dp442
g50
F2943.0
sg68
I1
sg69
g70
sg71
Nsg72
Nsg73
g425
sg74
g6
(S'\x07\xe1\x06\x01\t\x00\x00\x00\x00\x00'
p443
tp444
Rp445
sg78
g6
(S'\x07\xe1\x06\x01\x10.,\n\xc9y'
p446
tp447
Rp448
sg23
S'0-0'
p449
sba(iopmop.models.task
LoadTask
p450
(dp451
g50
F4410.0
sg68
I13
sg69
g70
sg71
Nsg72
Nsg73
g425
sg74
g6
(S'\x07\xe1\x06\x01\t\x00\x00\x00\x00\x00'
p452
tp453
Rp454
sg78
g6
(S'\x07\xe1\x06\x01\x11\x00\x00\x00\x00\x00'
p455
tp456
Rp457
sg23
S'0-0'
p458
sba(iopmop.models.task
LoadTask
p459
(dp460
g50
F1523.0
sg68
I15
sg69
g70
sg71
Nsg72
Nsg73
g425
sg74
g6
(S'\x07\xe1\x06\x01\x0e\x05!\x02\x0c\xb8'
p461
tp462
Rp463
sg78
g6
(S'\x07\xe1\x06\x01\x0f\x158\x06`v'
p464
tp465
Rp466
sg23
S'0-0'
p467
sba(iopmop.models.task
HaulageTask
p468
(dp469
g50
I303
sg68
I42
sg69
g70
sg94
g31
sg71
Nsg72
Nsg73
g425
sg74
g6
(S'\x07\xe1\x06\x01\t$\x00\x00\x00\x00'
p470
tp471
Rp472
sg78
g6
(S'\x07\xe1\x06\x01\t0\x00\x00\x00\x00'
p473
tp474
Rp475
sg23
S'0-1'
p476
sba(iopmop.models.task
HaulageTask
p477
(dp478
g50
I342
sg68
I38
sg69
g70
sg94
g31
sg71
Nsg72
Nsg73
g425
sg74
g6
(S'\x07\xe1\x06\x01\n\x0c\x00\x00\x00\x00'
p479
tp480
Rp481
sg78
g6
(S'\x07\xe1\x06\x01\n\x18\x00\x00\x00\x00'
p482
tp483
Rp484
sg23
S'0-1'
p485
sba(iopmop.models.task
HaulageTask
p486
(dp487
g50
I353
sg68
I32
sg69
g70
sg94
g31
sg71
Nsg72
Nsg73
g425
sg74
g6
(S'\x07\xe1\x06\x01\x0b\x00\x00\x00\x00\x00'
p488
tp489
Rp490
sg78
g6
(S'\x07\xe1\x06\x01\x0b\x0c\x00\x00\x00\x00'
p491
tp492
Rp493
sg23
S'0-1'
p494
sba(iopmop.models.task
HaulageTask
p495
(dp496
g50
I399
sg68
I31
sg69
g70
sg94
g31
sg71
Nsg72
Nsg73
g425
sg74
g6
(S'\x07\xe1\x06\x01\x0b$\x00\x00\x00\x00'
p497
tp498
Rp499
sg78
g6
(S'\x07\xe1\x06\x01\x0b0\x00\x00\x00\x00'
p500
tp501
Rp502
sg23
S'0-1'
p503
sba(iopmop.models.task
HaulageTask
p504
(dp505
g50
I384
sg68
I24
sg69
g70
sg94
g31
sg71
Nsg72
Nsg73
g425
sg74
g6
(S'\x07\xe1\x06\x01\x0c\x18\x00\x00\x00\x00'
p506
tp507
Rp508
sg78
g6
(S'\x07\xe1\x06\x01\x0c$\x00\x00\x00\x00'
p509
tp510
Rp511
sg23
S'0-1'
p512
sba(iopmop.models.task
HaulageTask
p513
(dp514
g50
I315
sg68
I30
sg69
g70
sg94
g31
sg71
Nsg72
Nsg73
g425
sg74
g6
(S'\x07\xe1\x06\x01\r\x00\x00\x00\x00\x00'
p515
tp516
Rp517
sg78
g6
(S'\x07\xe1\x06\x01\r\x0c\x00\x00\x00\x00'
p518
tp519
Rp520
sg23
S'0-1'
p521
sba(iopmop.models.task
HaulageTask
p522
(dp523
g50
I490
sg68
I35
sg69
g70
sg94
g31
sg71
Nsg72
Nsg73
g425
sg74
g6
(S'\x07\xe1\x06\x01\r0\x00\x00\x00\x00'
p524
tp525
Rp526
sg78
g6
(S'\x07\xe1\x06\x01\x0e\x00\x00\x00\x00\x00'
p527
tp528
Rp529
sg23
S'0-1'
p530
sba(iopmop.models.task
HaulageTask
p531
(dp532
g50
I351
sg68
I41
sg69
g70
sg94
g31
sg71
Nsg72
Nsg73
g425
sg74
g6
(S'\x07\xe1\x06\x01\x0e\x0c\x00\x00\x00\x00'
p533
tp534
Rp535
sg78
g6
(S'\x07\xe1\x06\x01\x0e\x18\x00\x00\x00\x00'
p536
tp537
Rp538
sg23
S'0-1'
p539
sba(iopmop.models.task
HaulageTask
p540
(dp541
g50
I385
sg68
I25
sg69
g70
sg94
g31
sg71
Nsg72
Nsg73
g425
sg74
g6
(S'\x07\xe1\x06\x01\x0e$\x00\x00\x00\x00'
p542
tp543
Rp544
sg78
g6
(S'\x07\xe1\x06\x01\x0e0\x00\x00\x00\x00'
p545
tp546
Rp547
sg23
S'0-1'
p548
sba(iopmop.models.task
HaulageTask
p549
(dp550
g50
I319
sg68
I43
sg69
g70
sg94
g31
sg71
Nsg72
Nsg73
g425
sg74
g6
(S'\x07\xe1\x06\x01\r\x18\x00\x00\x00\x00'
p551
tp552
Rp553
sg78
g6
(S'\x07\xe1\x06\x01\r$\x00\x00\x00\x00'
p554
tp555
Rp556
sg23
S'0-1'
p557
sba(iopmop.models.task
HaulageTask
p558
(dp559
g50
I303
sg68
I42
sg69
g70
sg94
g31
sg71
Nsg72
Nsg73
g425
sg74
g6
(S'\x07\xe1\x06\x01\x0f\x00\x00\x00\x00\x00'
p560
tp561
Rp562
sg78
g6
(S'\x07\xe1\x06\x01\x0f\x0c\x00\x00\x00\x00'
p563
tp564
Rp565
sg23
S'0-1'
p566
sba(iopmop.models.task
HaulageTask
p567
(dp568
g50
I316
sg68
I36
sg69
g70
sg94
g31
sg71
Nsg72
Nsg73
g425
sg74
g6
(S'\x07\xe1\x06\x01\x0f\x18\x00\x00\x00\x00'
p569
tp570
Rp571
sg78
g6
(S'\x07\xe1\x06\x01\x0f$\x00\x00\x00\x00'
p572
tp573
Rp574
sg23
S'0-1'
p575
sba(iopmop.models.task
HaulageTask
p576
(dp577
g50
I342
sg68
I38
sg69
g70
sg94
g31
sg71
Nsg72
Nsg73
g425
sg74
g6
(S'\x07\xe1\x06\x01\x0f0\x00\x00\x00\x00'
p578
tp579
Rp580
sg78
g6
(S'\x07\xe1\x06\x01\x10\x00\x00\x00\x00\x00'
p581
tp582
Rp583
sg23
S'0-1'
p584
sba(iopmop.models.task
HaulageTask
p585
(dp586
g50
I353
sg68
I32
sg69
g70
sg94
g31
sg71
Nsg72
Nsg73
g425
sg74
g6
(S'\x07\xe1\x06\x01\x10\x0c\x00\x00\x00\x00'
p587
tp588
Rp589
sg78
g6
(S'\x07\xe1\x06\x01\x10\x18\x00\x00\x00\x00'
p590
tp591
Rp592
sg23
S'0-1'
p593
sba(iopmop.models.task
HaulageTask
p594
(dp595
g50
I452
sg68
I47
sg69
g70
sg94
g31
sg71
Nsg72
Nsg73
g425
sg74
g6
(S'\x07\xe1\x06\x01\x10$\x00\x00\x00\x00'
p596
tp597
Rp598
sg78
g6
(S'\x07\xe1\x06\x01\x100\x00\x00\x00\x00'
p599
tp600
Rp601
sg23
S'0-1'
p602
sbasg50
I5263
sg156
F0.0
sg157
g415
sg158
F-670.0
sg159
g6
(S'\x07\xe1\x06\x01\x00\x00\x00\x00\x00\x00'
p603
tp604
Rp605
sg163
I01
sg164
F-144.0
sg23
I0
sba(iopmop.models.schedule
Schedule
p606
(dp607
g64
(lp608
sg50
I5263
sg156
I5263
sg157
g415
sg158
I5263
sg159
g6
(S'\x07\xe1\x06\x02\x00\x00\x00\x00\x00\x00'
p609
tp610
Rp611
sg163
I00
sg164
I5263
sg23
I1
sba(iopmop.models.schedule
Schedule
p612
(dp613
g64
(lp614
sg50
I5263
sg156
I5263
sg157
g415
sg158
I5263
sg159
g6
(S'\x07\xe1\x06\x03\x00\x00\x00\x00\x00\x00'
p615
tp616
Rp617
sg163
I00
sg164
I5263
sg23
I2
sba(iopmop.models.schedule
Schedule
p618
(dp619
g64
(lp620
sg50
I5263
sg156
I5263
sg157
g415
sg158
I5263
sg159
g6
(S'\x07\xe1\x06\x04\x00\x00\x00\x00\x00\x00'
p621
tp622
Rp623
sg163
I00
sg164
I5263
sg23
I3
sba(iopmop.models.schedule
Schedule
p624
(dp625
g64
(lp626
sg50
I5263
sg156
I5263
sg157
g415
sg158
I5263
sg159
g6
(S'\x07\xe1\x06\x05\x00\x00\x00\x00\x00\x00'
p627
tp628
Rp629
sg163
I00
sg164
I5263
sg23
I4
sba(iopmop.models.schedule
Schedule
p630
(dp631
g64
(lp632
sg50
I5263
sg156
I5263
sg157
g415
sg158
I5263
sg159
g6
(S'\x07\xe1\x06\x06\x00\x00\x00\x00\x00\x00'
p633
tp634
Rp635
sg163
I00
sg164
I5263
sg23
I5
sba(iopmop.models.schedule
Schedule
p636
(dp637
g64
(lp638
sg50
I5263
sg156
I5263
sg157
g415
sg158
I5263
sg159
g6
(S'\x07\xe1\x06\x07\x00\x00\x00\x00\x00\x00'
p639
tp640
Rp641
sg163
I00
sg164
I5263
sg23
I6
sba(iopmop.models.schedule
Schedule
p642
(dp643
g64
(lp644
sg50
I5263
sg156
I5263
sg157
g415
sg158
I5263
sg159
g6
(S'\x07\xe1\x06\x08\x00\x00\x00\x00\x00\x00'
p645
tp646
Rp647
sg163
I00
sg164
I5263
sg23
I7
sba(iopmop.models.schedule
Schedule
p648
(dp649
g64
(lp650
sg50
I5263
sg156
I5263
sg157
g415
sg158
I5263
sg159
g6
(S'\x07\xe1\x06\t\x00\x00\x00\x00\x00\x00'
p651
tp652
Rp653
sg163
I00
sg164
I5263
sg23
I8
sba(iopmop.models.schedule
Schedule
p654
(dp655
g64
(lp656
sg50
I5263
sg156
I5263
sg157
g415
sg158
I5263
sg159
g6
(S'\x07\xe1\x06\n\x00\x00\x00\x00\x00\x00'
p657
tp658
Rp659
sg163
I00
sg164
I5263
sg23
I9
sba(iopmop.models.schedule
Schedule
p660
(dp661
g64
(lp662
sg50
I5263
sg156
I5263
sg157
g415
sg158
I5263
sg159
g6
(S'\x07\xe1\x06\x0b\x00\x00\x00\x00\x00\x00'
p663
tp664
Rp665
sg163
I00
sg164
I5263
sg23
I10
sba(iopmop.models.schedule
Schedule
p666
(dp667
g64
(lp668
sg50
I5263
sg156
I5263
sg157
g415
sg158
I5263
sg159
g6
(S'\x07\xe1\x06\x0c\x00\x00\x00\x00\x00\x00'
p669
tp670
Rp671
sg163
I00
sg164
I5263
sg23
I11
sba(iopmop.models.schedule
Schedule
p672
(dp673
g64
(lp674
sg50
I5263
sg156
I5263
sg157
g415
sg158
I5263
sg159
g6
(S'\x07\xe1\x06\r\x00\x00\x00\x00\x00\x00'
p675
tp676
Rp677
sg163
I00
sg164
I5263
sg23
I12
sba(iopmop.models.schedule
Schedule
p678
(dp679
g64
(lp680
sg50
I5263
sg156
I5263
sg157
g415
sg158
I5263
sg159
g6
(S'\x07\xe1\x06\x0e\x00\x00\x00\x00\x00\x00'
p681
tp682
Rp683
sg163
I00
sg164
I5263
sg23
I13
sba(iopmop.models.schedule
Schedule
p684
(dp685
g64
(lp686
sg50
I5263
sg156
I5263
sg157
g415
sg158
I5263
sg159
g6
(S'\x07\xe1\x06\x0f\x00\x00\x00\x00\x00\x00'
p687
tp688
Rp689
sg163
I00
sg164
I5263
sg23
I14
sba(iopmop.models.schedule
Schedule
p690
(dp691
g64
(lp692
sg50
I5263
sg156
I5263
sg157
g415
sg158
I5263
sg159
g6
(S'\x07\xe1\x06\x10\x00\x00\x00\x00\x00\x00'
p693
tp694
Rp695
sg163
I00
sg164
I5263
sg23
I15
sba(iopmop.models.schedule
Schedule
p696
(dp697
g64
(lp698
sg50
I5263
sg156
I5263
sg157
g415
sg158
I5263
sg159
g6
(S'\x07\xe1\x06\x11\x00\x00\x00\x00\x00\x00'
p699
tp700
Rp701
sg163
I00
sg164
I5263
sg23
I16
sba(iopmop.models.schedule
Schedule
p702
(dp703
g64
(lp704
sg50
I5263
sg156
I5263
sg157
g415
sg158
I5263
sg159
g6
(S'\x07\xe1\x06\x12\x00\x00\x00\x00\x00\x00'
p705
tp706
Rp707
sg163
I00
sg164
I5263
sg23
I17
sba(iopmop.models.schedule
Schedule
p708
(dp709
g64
(lp710
sg50
I5263
sg156
I5263
sg157
g415
sg158
I5263
sg159
g6
(S'\x07\xe1\x06\x13\x00\x00\x00\x00\x00\x00'
p711
tp712
Rp713
sg163
I00
sg164
I5263
sg23
I18
sbasg23
I2
sg414
I19
sba(iopmop.models.mission
Mission
p714
(dp715
g5
g6
(S'\x07\xe1\x06\x01\x00\x00\x00\x00\x00\x00'
p716
tp717
Rp718
sg10
(lp719
g12
ag26
ag31
ag36
ag41
asg46
g6
(S'\x07\xe1\x06\x14\x00\x00\x00\x00\x00\x00'
p720
tp721
Rp722
sg50
I90000
sg51
S'Metal june'
p723
sg53
(iopmop.models.location
Location
p724
(dp725
g14
(iopmop.models.point
Point
p726
(dp727
g17
F40.52144455481663
sg18
I4
sg19
F-112.14980874008938
sg20
I88
sbsg21
g58
sg23
I3
sg24
S'Site3'
p728
sbsg60
(lp729
(iopmop.models.schedule
Schedule
p730
(dp731
g64
(lp732
(iopmop.models.task
DigTask
p733
(dp734
g50
F1120.0
sg68
I3
sg69
g70
sg71
Nsg72
Nsg73
g724
sg74
g6
(S'\x07\xe1\x06\x01\t\x00\x00\x00\x00\x00'
p735
tp736
Rp737
sg78
g6
(S'\x07\xe1\x06\x01\x10\x00\x00\x00\x00\x00'
p738
tp739
Rp740
sg23
S'0-0'
p741
sba(iopmop.models.task
DigTask
p742
(dp743
g50
F3616.0
sg68
I5
sg69
g70
sg71
Nsg72
Nsg73
g724
sg74
g6
(S'\x07\xe1\x06\x01\t\x00\x00\x00\x00\x00'
p744
tp745
Rp746
sg78
g6
(S'\x07\xe1\x06\x01\x0e\x1e7\x02\x0f\xdf'
p747
tp748
Rp749
sg23
S'0-0'
p750
sba(iopmop.models.task
LoadTask
p751
(dp752
g50
F4140.0
sg68
I11
sg69
g70
sg71
Nsg72
Nsg73
g724
sg74
g6
(S'\x07\xe1\x06\x01\t\x00\x00\x00\x00\x00'
p753
tp754
Rp755
sg78
g6
(S'\x07\xe1\x06\x01\x11\x00\x00\x00\x00\x00'
p756
tp757
Rp758
sg23
S'0-0'
p759
sba(iopmop.models.task
LoadTask
p760
(dp761
g50
F1340.0
sg68
I15
sg69
g70
sg71
Nsg72
Nsg73
g724
sg74
g6
(S'\x07\xe1\x06\x01\x10\x00\x00\x00\x00\x00'
p762
tp763
Rp764
sg78
g6
(S'\x07\xe1\x06\x01\x11\x00\x00\x00\x00\x00'
p765
tp766
Rp767
sg23
S'0-0'
p768
sbasg50
I4736
sg156
F0.0
sg157
g714
sg158
F-744.0
sg159
g6
(S'\x07\xe1\x06\x01\x00\x00\x00\x00\x00\x00'
p769
tp770
Rp771
sg163
I01
sg164
F4736.0
sg23
I0
sba(iopmop.models.schedule
Schedule
p772
(dp773
g64
(lp774
(iopmop.models.task
DigTask
p775
(dp776
g50
F1120.0
sg68
I3
sg69
g70
sg71
Nsg72
Nsg73
g724
sg74
g6
(S'\x07\xe1\x06\x02\t\x00\x00\x00\x00\x00'
p777
tp778
Rp779
sg78
g6
(S'\x07\xe1\x06\x02\x10\x00\x00\x00\x00\x00'
p780
tp781
Rp782
sg23
S'1-0'
p783
sba(iopmop.models.task
DigTask
p784
(dp785
g50
F3616.0
sg68
I5
sg69
g70
sg71
Nsg72
Nsg73
g724
sg74
g6
(S'\x07\xe1\x06\x02\t\x00\x00\x00\x00\x00'
p786
tp787
Rp788
sg78
g6
(S'\x07\xe1\x06\x02\x0e\x1e7\x02\x0f\xdf'
p789
tp790
Rp791
sg23
S'1-0'
p792
sba(iopmop.models.task
LoadTask
p793
(dp794
g50
F4140.0
sg68
I11
sg69
g70
sg71
Nsg72
Nsg73
g724
sg74
g6
(S'\x07\xe1\x06\x02\t\x00\x00\x00\x00\x00'
p795
tp796
Rp797
sg78
g6
(S'\x07\xe1\x06\x02\x11\x00\x00\x00\x00\x00'
p798
tp799
Rp800
sg23
S'1-0'
p801
sba(iopmop.models.task
LoadTask
p802
(dp803
g50
F1340.0
sg68
I15
sg69
g70
sg71
Nsg72
Nsg73
g724
sg74
g6
(S'\x07\xe1\x06\x02\x0e\x00\x00\x00\x00\x00'
p804
tp805
Rp806
sg78
g6
(S'\x07\xe1\x06\x02\x0f\x00\x00\x00\x00\x00'
p807
tp808
Rp809
sg23
S'1-0'
p810
sbasg50
I4736
sg156
F0.0
sg157
g714
sg158
F-744.0
sg159
g6
(S'\x07\xe1\x06\x02\x00\x00\x00\x00\x00\x00'
p811
tp812
Rp813
sg163
I01
sg164
F4736.0
sg23
I1
sba(iopmop.models.schedule
Schedule
p814
(dp815
g64
(lp816
(iopmop.models.task
DigTask
p817
(dp818
g50
F1120.0
sg68
I3
sg69
g70
sg71
Nsg72
Nsg73
g724
sg74
g6
(S'\x07\xe1\x06\x03\t\x00\x00\x00\x00\x00'
p819
tp820
Rp821
sg78
g6
(S'\x07\xe1\x06\x03\x10\x00\x00\x00\x00\x00'
p822
tp823
Rp824
sg23
S'2-0'
p825
sba(iopmop.models.task
DigTask
p826
(dp827
g50
F3616.0
sg68
I5
sg69
g70
sg71
Nsg72
Nsg73
g724
sg74
g6
(S'\x07\xe1\x06\x03\t\x00\x00\x00\x00\x00'
p828
tp829
Rp830
sg78
g6
(S'\x07\xe1\x06\x03\x0e\x1e7\x02\x0f\xdf'
p831
tp832
Rp833
sg23
S'2-0'
p834
sba(iopmop.models.task
LoadTask
p835
(dp836
g50
F5360.0
sg68
I15
sg69
g70
sg71
Nsg72
Nsg73
g724
sg74
g6
(S'\x07\xe1\x06\x03\t\x00\x00\x00\x00\x00'
p837
tp838
Rp839
sg78
g6
(S'\x07\xe1\x06\x03\x10\x00\x00\x00\x00\x00'
p840
tp841
Rp842
sg23
S'2-0'
p843
sbasg50
I4736
sg156
F0.0
sg157
g714
sg158
F-624.0
sg159
g6
(S'\x07\xe1\x06\x03\x00\x00\x00\x00\x00\x00'
p844
tp845
Rp846
sg163
I01
sg164
F4736.0
sg23
I2
sba(iopmop.models.schedule
Schedule
p847
(dp848
g64
(lp849
sg50
I4736
sg156
I4736
sg157
g714
sg158
I4736
sg159
g6
(S'\x07\xe1\x06\x04\x00\x00\x00\x00\x00\x00'
p850
tp851
Rp852
sg163
I00
sg164
I4736
sg23
I3
sba(iopmop.models.schedule
Schedule
p853
(dp854
g64
(lp855
sg50
I4736
sg156
I4736
sg157
g714
sg158
I4736
sg159
g6
(S'\x07\xe1\x06\x05\x00\x00\x00\x00\x00\x00'
p856
tp857
Rp858
sg163
I00
sg164
I4736
sg23
I4
sba(iopmop.models.schedule
Schedule
p859
(dp860
g64
(lp861
sg50
I4736
sg156
I4736
sg157
g714
sg158
I4736
sg159
g6
(S'\x07\xe1\x06\x06\x00\x00\x00\x00\x00\x00'
p862
tp863
Rp864
sg163
I00
sg164
I4736
sg23
I5
sba(iopmop.models.schedule
Schedule
p865
(dp866
g64
(lp867
sg50
I4736
sg156
I4736
sg157
g714
sg158
I4736
sg159
g6
(S'\x07\xe1\x06\x07\x00\x00\x00\x00\x00\x00'
p868
tp869
Rp870
sg163
I00
sg164
I4736
sg23
I6
sba(iopmop.models.schedule
Schedule
p871
(dp872
g64
(lp873
sg50
I4736
sg156
I4736
sg157
g714
sg158
I4736
sg159
g6
(S'\x07\xe1\x06\x08\x00\x00\x00\x00\x00\x00'
p874
tp875
Rp876
sg163
I00
sg164
I4736
sg23
I7
sba(iopmop.models.schedule
Schedule
p877
(dp878
g64
(lp879
sg50
I4736
sg156
I4736
sg157
g714
sg158
I4736
sg159
g6
(S'\x07\xe1\x06\t\x00\x00\x00\x00\x00\x00'
p880
tp881
Rp882
sg163
I00
sg164
I4736
sg23
I8
sba(iopmop.models.schedule
Schedule
p883
(dp884
g64
(lp885
sg50
I4736
sg156
I4736
sg157
g714
sg158
I4736
sg159
g6
(S'\x07\xe1\x06\n\x00\x00\x00\x00\x00\x00'
p886
tp887
Rp888
sg163
I00
sg164
I4736
sg23
I9
sba(iopmop.models.schedule
Schedule
p889
(dp890
g64
(lp891
sg50
I4736
sg156
I4736
sg157
g714
sg158
I4736
sg159
g6
(S'\x07\xe1\x06\x0b\x00\x00\x00\x00\x00\x00'
p892
tp893
Rp894
sg163
I00
sg164
I4736
sg23
I10
sba(iopmop.models.schedule
Schedule
p895
(dp896
g64
(lp897
sg50
I4736
sg156
I4736
sg157
g714
sg158
I4736
sg159
g6
(S'\x07\xe1\x06\x0c\x00\x00\x00\x00\x00\x00'
p898
tp899
Rp900
sg163
I00
sg164
I4736
sg23
I11
sba(iopmop.models.schedule
Schedule
p901
(dp902
g64
(lp903
sg50
I4736
sg156
I4736
sg157
g714
sg158
I4736
sg159
g6
(S'\x07\xe1\x06\r\x00\x00\x00\x00\x00\x00'
p904
tp905
Rp906
sg163
I00
sg164
I4736
sg23
I12
sba(iopmop.models.schedule
Schedule
p907
(dp908
g64
(lp909
sg50
I4736
sg156
I4736
sg157
g714
sg158
I4736
sg159
g6
(S'\x07\xe1\x06\x0e\x00\x00\x00\x00\x00\x00'
p910
tp911
Rp912
sg163
I00
sg164
I4736
sg23
I13
sba(iopmop.models.schedule
Schedule
p913
(dp914
g64
(lp915
sg50
I4736
sg156
I4736
sg157
g714
sg158
I4736
sg159
g6
(S'\x07\xe1\x06\x0f\x00\x00\x00\x00\x00\x00'
p916
tp917
Rp918
sg163
I00
sg164
I4736
sg23
I14
sba(iopmop.models.schedule
Schedule
p919
(dp920
g64
(lp921
sg50
I4736
sg156
I4736
sg157
g714
sg158
I4736
sg159
g6
(S'\x07\xe1\x06\x10\x00\x00\x00\x00\x00\x00'
p922
tp923
Rp924
sg163
I00
sg164
I4736
sg23
I15
sba(iopmop.models.schedule
Schedule
p925
(dp926
g64
(lp927
sg50
I4736
sg156
I4736
sg157
g714
sg158
I4736
sg159
g6
(S'\x07\xe1\x06\x11\x00\x00\x00\x00\x00\x00'
p928
tp929
Rp930
sg163
I00
sg164
I4736
sg23
I16
sba(iopmop.models.schedule
Schedule
p931
(dp932
g64
(lp933
sg50
I4736
sg156
I4736
sg157
g714
sg158
I4736
sg159
g6
(S'\x07\xe1\x06\x12\x00\x00\x00\x00\x00\x00'
p934
tp935
Rp936
sg163
I00
sg164
I4736
sg23
I17
sba(iopmop.models.schedule
Schedule
p937
(dp938
g64
(lp939
sg50
I4736
sg156
I4736
sg157
g714
sg158
I4736
sg159
g6
(S'\x07\xe1\x06\x13\x00\x00\x00\x00\x00\x00'
p940
tp941
Rp942
sg163
I00
sg164
I4736
sg23
I18
sbasg23
I3
sg414
I19
sba(iopmop.models.mission
Mission
p943
(dp944
g5
g6
(S'\x07\xe1\x06\x01\x00\x00\x00\x00\x00\x00'
p945
tp946
Rp947
sg10
(lp948
g12
ag26
ag31
ag36
ag41
asg46
g6
(S'\x07\xe1\x06\x1e\x00\x00\x00\x00\x00\x00'
p949
tp950
Rp951
sg50
I50000
sg51
S'Gold rush'
p952
sg53
(iopmop.models.location
Location
p953
(dp954
g14
(iopmop.models.point
Point
p955
(dp956
g17
F40.518862269185945
sg18
I3
sg19
F-112.14784948551801
sg20
I125
sbsg21
g58
sg23
I4
sg24
S'Site4'
p957
sbsg60
(lp958
(iopmop.models.schedule
Schedule
p959
(dp960
g64
(lp961
(iopmop.models.task
DigTask
p962
(dp963
g50
F1724.0
sg68
I7
sg69
g70
sg71
Nsg72
Nsg73
g953
sg74
g6
(S'\x07\xe1\x06\x01\t\x00\x00\x00\x00\x00'
p964
tp965
Rp966
sg78
g6
(S'\x07\xe1\x06\x01\r2\x04\x00\xf4\xd2'
p967
tp968
Rp969
sg23
S'0-0'
p970
sba(iopmop.models.task
LoadTask
p971
(dp972
g50
F2226.0
sg68
I14
sg69
g70
sg71
Nsg72
Nsg73
g953
sg74
g6
(S'\x07\xe1\x06\x01\t\x00\x00\x00\x00\x00'
p973
tp974
Rp975
sg78
g6
(S'\x07\xe1\x06\x01\x0c\x0c\x00\x00\x00\x00'
p976
tp977
Rp978
sg23
S'0-0'
p979
sba(iopmop.models.task
HaulageTask
p980
(dp981
g50
I351
sg68
I41
sg69
g70
sg94
g31
sg71
Nsg72
Nsg73
g953
sg74
g6
(S'\x07\xe1\x06\x01\t&8\x0b\xc2\xe8'
p982
tp983
Rp984
sg78
g6
(S'\x07\xe1\x06\x01\t:\x19\x02b\x1c'
p985
tp986
Rp987
sg23
S'0-1'
p988
sba(iopmop.models.task
HaulageTask
p989
(dp990
g50
I385
sg68
I25
sg69
g70
sg94
g31
sg71
Nsg72
Nsg73
g953
sg74
g6
(S'\x07\xe1\x06\x01\n\x12\x05\x01b\x84'
p991
tp992
Rp993
sg78
g6
(S'\x07\xe1\x06\x01\n%$\x05\x8b\xb5'
p994
tp995
Rp996
sg23
S'0-1'
p997
sba(iopmop.models.task
HaulageTask
p998
(dp999
g50
I452
sg68
I47
sg69
g70
sg94
g31
sg71
Nsg72
Nsg73
g953
sg74
g6
(S'\x07\xe1\x06\x01\n54\x00~\xc8'
p1000
tp1001
Rp1002
sg78
g6
(S'\x07\xe1\x06\x01\x0b\x0c2\n\xc0\x14'
p1003
tp1004
Rp1005
sg23
S'0-1'
p1006
sba(iopmop.models.task
HaulageTask
p1007
(dp1008
g50
I356
sg68
I29
sg69
g70
sg94
g31
sg71
Nsg72
Nsg73
g953
sg74
g6
(S'\x07\xe1\x06\x01\x0b\x15\x18\x08\xe3\xcb'
p1009
tp1010
Rp1011
sg78
g6
(S'\x07\xe1\x06\x01\x0b)$\n(\xe8'
p1012
tp1013
Rp1014
sg23
S'0-1'
p1015
sba(iopmop.models.task
HaulageTask
p1016
(dp1017
g50
I384
sg68
I24
sg69
g70
sg94
g31
sg71
Nsg72
Nsg73
g953
sg74
g6
(S'\x07\xe1\x06\x01\x0c\x03\x10\x08\x12?'
p1018
tp1019
Rp1020
sg78
g6
(S'\x07\xe1\x06\x01\x0c\x17&\x05\x93\xc6'
p1021
tp1022
Rp1023
sg23
S'0-1'
p1024
sbasg50
I1724
sg156
F0.0
sg157
g943
sg158
F-502.0
sg159
g6
(S'\x07\xe1\x06\x01\x00\x00\x00\x00\x00\x00'
p1025
tp1026
Rp1027
sg163
I01
sg164
F-204.0
sg23
I0
sba(iopmop.models.schedule
Schedule
p1028
(dp1029
g64
(lp1030
sg50
I1724
sg156
I1724
sg157
g943
sg158
I1724
sg159
g6
(S'\x07\xe1\x06\x02\x00\x00\x00\x00\x00\x00'
p1031
tp1032
Rp1033
sg163
I00
sg164
I1724
sg23
I1
sba(iopmop.models.schedule
Schedule
p1034
(dp1035
g64
(lp1036
sg50
I1724
sg156
I1724
sg157
g943
sg158
I1724
sg159
g6
(S'\x07\xe1\x06\x03\x00\x00\x00\x00\x00\x00'
p1037
tp1038
Rp1039
sg163
I00
sg164
I1724
sg23
I2
sba(iopmop.models.schedule
Schedule
p1040
(dp1041
g64
(lp1042
sg50
I1724
sg156
I1724
sg157
g943
sg158
I1724
sg159
g6
(S'\x07\xe1\x06\x04\x00\x00\x00\x00\x00\x00'
p1043
tp1044
Rp1045
sg163
I00
sg164
I1724
sg23
I3
sba(iopmop.models.schedule
Schedule
p1046
(dp1047
g64
(lp1048
sg50
I1724
sg156
I1724
sg157
g943
sg158
I1724
sg159
g6
(S'\x07\xe1\x06\x05\x00\x00\x00\x00\x00\x00'
p1049
tp1050
Rp1051
sg163
I00
sg164
I1724
sg23
I4
sba(iopmop.models.schedule
Schedule
p1052
(dp1053
g64
(lp1054
sg50
I1724
sg156
I1724
sg157
g943
sg158
I1724
sg159
g6
(S'\x07\xe1\x06\x06\x00\x00\x00\x00\x00\x00'
p1055
tp1056
Rp1057
sg163
I00
sg164
I1724
sg23
I5
sba(iopmop.models.schedule
Schedule
p1058
(dp1059
g64
(lp1060
sg50
I1724
sg156
I1724
sg157
g943
sg158
I1724
sg159
g6
(S'\x07\xe1\x06\x07\x00\x00\x00\x00\x00\x00'
p1061
tp1062
Rp1063
sg163
I00
sg164
I1724
sg23
I6
sba(iopmop.models.schedule
Schedule
p1064
(dp1065
g64
(lp1066
sg50
I1724
sg156
I1724
sg157
g943
sg158
I1724
sg159
g6
(S'\x07\xe1\x06\x08\x00\x00\x00\x00\x00\x00'
p1067
tp1068
Rp1069
sg163
I00
sg164
I1724
sg23
I7
sba(iopmop.models.schedule
Schedule
p1070
(dp1071
g64
(lp1072
sg50
I1724
sg156
I1724
sg157
g943
sg158
I1724
sg159
g6
(S'\x07\xe1\x06\t\x00\x00\x00\x00\x00\x00'
p1073
tp1074
Rp1075
sg163
I00
sg164
I1724
sg23
I8
sba(iopmop.models.schedule
Schedule
p1076
(dp1077
g64
(lp1078
sg50
I1724
sg156
I1724
sg157
g943
sg158
I1724
sg159
g6
(S'\x07\xe1\x06\n\x00\x00\x00\x00\x00\x00'
p1079
tp1080
Rp1081
sg163
I00
sg164
I1724
sg23
I9
sba(iopmop.models.schedule
Schedule
p1082
(dp1083
g64
(lp1084
sg50
I1724
sg156
I1724
sg157
g943
sg158
I1724
sg159
g6
(S'\x07\xe1\x06\x0b\x00\x00\x00\x00\x00\x00'
p1085
tp1086
Rp1087
sg163
I00
sg164
I1724
sg23
I10
sba(iopmop.models.schedule
Schedule
p1088
(dp1089
g64
(lp1090
sg50
I1724
sg156
I1724
sg157
g943
sg158
I1724
sg159
g6
(S'\x07\xe1\x06\x0c\x00\x00\x00\x00\x00\x00'
p1091
tp1092
Rp1093
sg163
I00
sg164
I1724
sg23
I11
sba(iopmop.models.schedule
Schedule
p1094
(dp1095
g64
(lp1096
sg50
I1724
sg156
I1724
sg157
g943
sg158
I1724
sg159
g6
(S'\x07\xe1\x06\r\x00\x00\x00\x00\x00\x00'
p1097
tp1098
Rp1099
sg163
I00
sg164
I1724
sg23
I12
sba(iopmop.models.schedule
Schedule
p1100
(dp1101
g64
(lp1102
sg50
I1724
sg156
I1724
sg157
g943
sg158
I1724
sg159
g6
(S'\x07\xe1\x06\x0e\x00\x00\x00\x00\x00\x00'
p1103
tp1104
Rp1105
sg163
I00
sg164
I1724
sg23
I13
sba(iopmop.models.schedule
Schedule
p1106
(dp1107
g64
(lp1108
sg50
I1724
sg156
I1724
sg157
g943
sg158
I1724
sg159
g6
(S'\x07\xe1\x06\x0f\x00\x00\x00\x00\x00\x00'
p1109
tp1110
Rp1111
sg163
I00
sg164
I1724
sg23
I14
sba(iopmop.models.schedule
Schedule
p1112
(dp1113
g64
(lp1114
sg50
I1724
sg156
I1724
sg157
g943
sg158
I1724
sg159
g6
(S'\x07\xe1\x06\x10\x00\x00\x00\x00\x00\x00'
p1115
tp1116
Rp1117
sg163
I00
sg164
I1724
sg23
I15
sba(iopmop.models.schedule
Schedule
p1118
(dp1119
g64
(lp1120
sg50
I1724
sg156
I1724
sg157
g943
sg158
I1724
sg159
g6
(S'\x07\xe1\x06\x11\x00\x00\x00\x00\x00\x00'
p1121
tp1122
Rp1123
sg163
I00
sg164
I1724
sg23
I16
sba(iopmop.models.schedule
Schedule
p1124
(dp1125
g64
(lp1126
sg50
I1724
sg156
I1724
sg157
g943
sg158
I1724
sg159
g6
(S'\x07\xe1\x06\x12\x00\x00\x00\x00\x00\x00'
p1127
tp1128
Rp1129
sg163
I00
sg164
I1724
sg23
I17
sba(iopmop.models.schedule
Schedule
p1130
(dp1131
g64
(lp1132
sg50
I1724
sg156
I1724
sg157
g943
sg158
I1724
sg159
g6
(S'\x07\xe1\x06\x13\x00\x00\x00\x00\x00\x00'
p1133
tp1134
Rp1135
sg163
I00
sg164
I1724
sg23
I18
sba(iopmop.models.schedule
Schedule
p1136
(dp1137
g64
(lp1138
sg50
I1724
sg156
I1724
sg157
g943
sg158
I1724
sg159
g6
(S'\x07\xe1\x06\x14\x00\x00\x00\x00\x00\x00'
p1139
tp1140
Rp1141
sg163
I00
sg164
I1724
sg23
I19
sba(iopmop.models.schedule
Schedule
p1142
(dp1143
g64
(lp1144
sg50
I1724
sg156
I1724
sg157
g943
sg158
I1724
sg159
g6
(S'\x07\xe1\x06\x15\x00\x00\x00\x00\x00\x00'
p1145
tp1146
Rp1147
sg163
I00
sg164
I1724
sg23
I20
sba(iopmop.models.schedule
Schedule
p1148
(dp1149
g64
(lp1150
sg50
I1724
sg156
I1724
sg157
g943
sg158
I1724
sg159
g6
(S'\x07\xe1\x06\x16\x00\x00\x00\x00\x00\x00'
p1151
tp1152
Rp1153
sg163
I00
sg164
I1724
sg23
I21
sba(iopmop.models.schedule
Schedule
p1154
(dp1155
g64
(lp1156
sg50
I1724
sg156
I1724
sg157
g943
sg158
I1724
sg159
g6
(S'\x07\xe1\x06\x17\x00\x00\x00\x00\x00\x00'
p1157
tp1158
Rp1159
sg163
I00
sg164
I1724
sg23
I22
sba(iopmop.models.schedule
Schedule
p1160
(dp1161
g64
(lp1162
sg50
I1724
sg156
I1724
sg157
g943
sg158
I1724
sg159
g6
(S'\x07\xe1\x06\x18\x00\x00\x00\x00\x00\x00'
p1163
tp1164
Rp1165
sg163
I00
sg164
I1724
sg23
I23
sba(iopmop.models.schedule
Schedule
p1166
(dp1167
g64
(lp1168
sg50
I1724
sg156
I1724
sg157
g943
sg158
I1724
sg159
g6
(S'\x07\xe1\x06\x19\x00\x00\x00\x00\x00\x00'
p1169
tp1170
Rp1171
sg163
I00
sg164
I1724
sg23
I24
sba(iopmop.models.schedule
Schedule
p1172
(dp1173
g64
(lp1174
sg50
I1724
sg156
I1724
sg157
g943
sg158
I1724
sg159
g6
(S'\x07\xe1\x06\x1a\x00\x00\x00\x00\x00\x00'
p1175
tp1176
Rp1177
sg163
I00
sg164
I1724
sg23
I25
sba(iopmop.models.schedule
Schedule
p1178
(dp1179
g64
(lp1180
sg50
I1724
sg156
I1724
sg157
g943
sg158
I1724
sg159
g6
(S'\x07\xe1\x06\x1b\x00\x00\x00\x00\x00\x00'
p1181
tp1182
Rp1183
sg163
I00
sg164
I1724
sg23
I26
sba(iopmop.models.schedule
Schedule
p1184
(dp1185
g64
(lp1186
sg50
I1724
sg156
I1724
sg157
g943
sg158
I1724
sg159
g6
(S'\x07\xe1\x06\x1c\x00\x00\x00\x00\x00\x00'
p1187
tp1188
Rp1189
sg163
I00
sg164
I1724
sg23
I27
sba(iopmop.models.schedule
Schedule
p1190
(dp1191
g64
(lp1192
sg50
I1724
sg156
I1724
sg157
g943
sg158
I1724
sg159
g6
(S'\x07\xe1\x06\x1d\x00\x00\x00\x00\x00\x00'
p1193
tp1194
Rp1195
sg163
I00
sg164
I1724
sg23
I28
sbasg23
I4
sg414
I29
sbasS'machines'
p1196
(lp1197
(iopmop.models.machine
Shovel
p1198
(dp1199
S'model'
p1200
S'SHV0'
p1201
sS'weightCapacity'
p1202
I95
sS'weight'
p1203
I1158
sg14
(iopmop.models.point
Point
p1204
(dp1205
g17
F40.5174143845541
sg18
I17
sg19
F-112.1200861232387
sg20
I225
sbsS'speed'
p1206
I15
sS'staticFuelConsumption'
p1207
I109
sS'fuelConsumption'
p1208
I187
sS'isAvailable'
p1209
I01
sS'fuelCapacity'
p1210
I10186
sg23
I0
sba(iopmop.models.machine
Shovel
p1211
(dp1212
g1200
S'SHV1'
p1213
sg1202
I76
sg1203
I1973
sg14
(iopmop.models.point
Point
p1214
(dp1215
g17
F40.51952590776382
sg18
I1
sg19
F-112.14713725991055
sg20
I123
sbsg1206
I16
sg1207
I93
sg1208
I178
sg1209
I01
sg1210
I9966
sg23
I1
sba(iopmop.models.machine
Shovel
p1216
(dp1217
g1200
S'SHV2'
p1218
sg1202
I41
sg1203
I1403
sg14
(iopmop.models.point
Point
p1219
(dp1220
g17
F40.519889282781556
sg18
I7
sg19
F-112.1570778643424
sg20
I111
sbsg1206
I16
sg1207
I120
sg1208
I197
sg1209
I01
sg1210
I8832
sg23
I2
sba(iopmop.models.machine
Shovel
p1221
(dp1222
g1200
S'SHV3'
p1223
sg1202
I28
sg1203
I1825
sg14
(iopmop.models.point
Point
p1224
(dp1225
g17
F40.51674876769078
sg18
I4
sg19
F-112.13403198666379
sg20
I233
sbsg1206
I12
sg1207
I81
sg1208
I176
sg1209
I01
sg1210
I10439
sg23
I3
sba(iopmop.models.machine
Shovel
p1226
(dp1227
g1200
S'SHV4'
p1228
sg1202
I85
sg1203
I1433
sg14
g15
sg1206
I19
sg1207
I86
sg1208
I173
sg1209
I01
sg1210
I11404
sg23
I4
sba(iopmop.models.machine
Shovel
p1229
(dp1230
g1200
S'SHV5'
p1231
sg1202
I111
sg1203
I1174
sg14
(iopmop.models.point
Point
p1232
(dp1233
g17
F40.528067561722764
sg18
I2
sg19
F-112.14214828710544
sg20
I132
sbsg1206
I12
sg1207
I95
sg1208
I193
sg1209
I01
sg1210
I8187
sg23
I5
sba(iopmop.models.machine
Shovel
p1234
(dp1235
g1200
S'SHV6'
p1236
sg1202
I60
sg1203
I1046
sg14
g56
sg1206
I14
sg1207
I107
sg1208
I173
sg1209
I01
sg1210
I8790
sg23
I6
sba(iopmop.models.machine
Shovel
p1237
(dp1238
g1200
S'SHV7'
p1239
sg1202
I72
sg1203
I1475
sg14
(iopmop.models.point
Point
p1240
(dp1241
g17
F40.51967883063745
sg18
I1
sg19
F-112.14999783582493
sg20
I138
sbsg1206
I15
sg1207
I106
sg1208
I155
sg1209
I01
sg1210
I8645
sg23
I7
sba(iopmop.models.machine
Shovel
p1242
(dp1243
g1200
S'SHV8'
p1244
sg1202
I58
sg1203
I1619
sg14
(iopmop.models.point
Point
p1245
(dp1246
g17
F40.53127343080907
sg18
I3
sg19
F-112.15153489693762
sg20
I76
sbsg1206
I13
sg1207
I85
sg1208
I176
sg1209
I01
sg1210
I9867
sg23
I8
sba(iopmop.models.machine
Shovel
p1247
(dp1248
g1200
S'SHV9'
p1249
sg1202
I107
sg1203
I1060
sg14
(iopmop.models.point
Point
p1250
(dp1251
g17
F40.519089564731466
sg18
I4
sg19
F-112.15094331622777
sg20
I141
sbsg1206
I18
sg1207
I99
sg1208
I192
sg1209
I01
sg1210
I10367
sg23
I9
sba(iopmop.models.machine
Loader
p1252
(dp1253
g1200
S'LOD10'
p1254
sg1202
I48
sg1203
I356673
sg14
(iopmop.models.point
Point
p1255
(dp1256
g17
F40.52033422442912
sg18
I11
sg19
F-112.15743158337494
sg20
I115
sbsg1206
I41
sg1207
I99
sg1208
I178
sg1209
I01
sg1210
I9925
sg23
I10
sba(iopmop.models.machine
Loader
p1257
(dp1258
g1200
S'LOD11'
p1259
sg1202
I46
sg1203
I383859
sg14
(iopmop.models.point
Point
p1260
(dp1261
g17
F40.519089564731466
sg18
I3
sg19
F-112.15094331622777
sg20
I147
sbsg1206
I41
sg1207
I84
sg1208
I192
sg1209
I01
sg1210
I11320
sg23
I11
sba(iopmop.models.machine
Loader
p1262
(dp1263
g1200
S'LOD12'
p1264
sg1202
I65
sg1203
I328484
sg14
(iopmop.models.point
Point
p1265
(dp1266
g17
F40.519697181358865
sg18
I3
sg19
F-112.15714458174511
sg20
I122
sbsg1206
I44
sg1207
I113
sg1208
I189
sg1209
I01
sg1210
I11208
sg23
I12
sba(iopmop.models.machine
Loader
p1267
(dp1268
g1200
S'LOD13'
p1269
sg1202
I49
sg1203
I278766
sg14
g726
sg1206
I40
sg1207
I84
sg1208
I155
sg1209
I01
sg1210
I11339
sg23
I13
sba(iopmop.models.machine
Loader
p1270
(dp1271
g1200
S'LOD14'
p1272
sg1202
I53
sg1203
I300604
sg14
(iopmop.models.point
Point
p1273
(dp1274
g17
F40.52199302087392
sg18
I1
sg19
F-112.1485695595245
sg20
I64
sbsg1206
I50
sg1207
I92
sg1208
I153
sg1209
I01
sg1210
I8448
sg23
I14
sba(iopmop.models.machine
Loader
p1275
(dp1276
g1200
S'LOD15'
p1277
sg1202
I67
sg1203
I265172
sg14
g1273
sg1206
I48
sg1207
I83
sg1208
I195
sg1209
I01
sg1210
I8543
sg23
I15
sba(iopmop.models.machine
Loader
p1278
(dp1279
g1200
S'LOD16'
p1280
sg1202
I54
sg1203
I259558
sg14
(iopmop.models.point
Point
p1281
(dp1282
g17
F40.51674367004452
sg18
I8
sg19
F-112.15372610635563
sg20
I130
sbsg1206
I47
sg1207
I90
sg1208
I198
sg1209
I01
sg1210
I11881
sg23
I16
sba(iopmop.models.machine
Loader
p1283
(dp1284
g1200
S'LOD17'
p1285
sg1202
I65
sg1203
I336589
sg14
g15
sg1206
I47
sg1207
I118
sg1208
I163
sg1209
I01
sg1210
I10457
sg23
I17
sba(iopmop.models.machine
Loader
p1286
(dp1287
g1200
S'LOD18'
p1288
sg1202
I46
sg1203
I275050
sg14
(iopmop.models.point
Point
p1289
(dp1290
g17
F40.52196651518252
sg18
I10
sg19
F-112.15500686116025
sg20
I10
sbsg1206
I43
sg1207
I89
sg1208
I177
sg1209
I01
sg1210
I10208
sg23
I18
sba(iopmop.models.machine
Loader
p1291
(dp1292
g1200
S'LOD19'
p1293
sg1202
I61
sg1203
I369300
sg14
(iopmop.models.point
Point
p1294
(dp1295
g17
F40.51802910641094
sg18
I16
sg19
F-112.1605648358053
sg20
I16
sbsg1206
I40
sg1207
I119
sg1208
I191
sg1209
I01
sg1210
I11274
sg23
I19
sba(iopmop.models.machine
Truck
p1296
(dp1297
g1200
S'TRK20'
p1298
sg1202
I257
sg1203
I358
sg14
g43
sg1206
I46
sg1207
I90
sg1208
I199
sg1209
I01
sg1210
I9978
sg23
I20
sba(iopmop.models.machine
Truck
p1299
(dp1300
g1200
S'TRK21'
p1301
sg1202
I478
sg1203
I335
sg14
(iopmop.models.point
Point
p1302
(dp1303
g17
F40.51722613443143
sg18
I3
sg19
F-112.13269675223654
sg20
I200
sbsg1206
I49
sg1207
I118
sg1208
I185
sg1209
I01
sg1210
I11376
sg23
I21
sba(iopmop.models.machine
Truck
p1304
(dp1305
g1200
S'TRK22'
p1306
sg1202
I474
sg1203
I282
sg14
(iopmop.models.point
Point
p1307
(dp1308
g17
F40.53002936641421
sg18
I2
sg19
F-112.14985069036732
sg20
I97
sbsg1206
I48
sg1207
I88
sg1208
I200
sg1209
I01
sg1210
I11535
sg23
I22
sba(iopmop.models.machine
Truck
p1309
(dp1310
g1200
S'TRK23'
p1311
sg1202
I296
sg1203
I273
sg14
(iopmop.models.point
Point
p1312
(dp1313
g17
F40.52595648401059
sg18
I5
sg19
F-112.1545160579335
sg20
I78
sbsg1206
I46
sg1207
I83
sg1208
I161
sg1209
I01
sg1210
I11499
sg23
I23
sba(iopmop.models.machine
Truck
p1314
(dp1315
g1200
S'TRK24'
p1316
sg1202
I384
sg1203
I381
sg14
(iopmop.models.point
Point
p1317
(dp1318
g17
F40.51882860152375
sg18
I2
sg19
F-112.15250166522429
sg20
I121
sbsg1206
I43
sg1207
I88
sg1208
I165
sg1209
I01
sg1210
I8138
sg23
I24
sba(iopmop.models.machine
Truck
p1319
(dp1320
g1200
S'TRK25'
p1321
sg1202
I385
sg1203
I283
sg14
(iopmop.models.point
Point
p1322
(dp1323
g17
F40.52222904690337
sg18
I2
sg19
F-112.15097983410101
sg20
I86
sbsg1206
I47
sg1207
I105
sg1208
I159
sg1209
I01
sg1210
I9777
sg23
I25
sba(iopmop.models.machine
Truck
p1324
(dp1325
g1200
S'TRK26'
p1326
sg1202
I466
sg1203
I291
sg14
(iopmop.models.point
Point
p1327
(dp1328
g17
F40.52196333372621
sg18
I7
sg19
F-112.13930995935533
sg20
I195
sbsg1206
I41
sg1207
I82
sg1208
I184
sg1209
I01
sg1210
I9709
sg23
I26
sba(iopmop.models.machine
Truck
p1329
(dp1330
g1200
S'TRK27'
p1331
sg1202
I441
sg1203
I295
sg14
(iopmop.models.point
Point
p1332
(dp1333
g17
F40.52178811121781
sg18
I28
sg19
F-112.12502244658276
sg20
I177
sbsg1206
I44
sg1207
I82
sg1208
I185
sg1209
I01
sg1210
I10801
sg23
I27
sba(iopmop.models.machine
Truck
p1334
(dp1335
g1200
S'TRK28'
p1336
sg1202
I442
sg1203
I280
sg14
(iopmop.models.point
Point
p1337
(dp1338
g17
F40.52505944774498
sg18
I5
sg19
F-112.1482852548599
sg20
I93
sbsg1206
I42
sg1207
I91
sg1208
I188
sg1209
I01
sg1210
I9000
sg23
I28
sba(iopmop.models.machine
Truck
p1339
(dp1340
g1200
S'TRK29'
p1341
sg1202
I356
sg1203
I254
sg14
g43
sg1206
I42
sg1207
I85
sg1208
I153
sg1209
I01
sg1210
I9566
sg23
I29
sba(iopmop.models.machine
Truck
p1342
(dp1343
g1200
S'TRK30'
p1344
sg1202
I315
sg1203
I259
sg14
(iopmop.models.point
Point
p1345
(dp1346
g17
F40.5226281282086
sg18
I2
sg19
F-112.15311724145829
sg20
I68
sbsg1206
I43
sg1207
I93
sg1208
I152
sg1209
I01
sg1210
I10678
sg23
I30
sba(iopmop.models.machine
Truck
p1347
(dp1348
g1200
S'TRK31'
p1349
sg1202
I399
sg1203
I279
sg14
(iopmop.models.point
Point
p1350
(dp1351
g17
F40.5198868051858
sg18
I1
sg19
F-112.15163398332402
sg20
I145
sbsg1206
I40
sg1207
I81
sg1208
I164
sg1209
I01
sg1210
I9054
sg23
I31
sba(iopmop.models.machine
Truck
p1352
(dp1353
g1200
S'TRK32'
p1354
sg1202
I353
sg1203
I344
sg14
g1240
sg1206
I45
sg1207
I91
sg1208
I192
sg1209
I01
sg1210
I11359
sg23
I32
sba(iopmop.models.machine
Truck
p1355
(dp1356
g1200
S'TRK33'
p1357
sg1202
I459
sg1203
I256
sg14
g1224
sg1206
I49
sg1207
I82
sg1208
I166
sg1209
I01
sg1210
I8612
sg23
I33
sba(iopmop.models.machine
Truck
p1358
(dp1359
g1200
S'TRK34'
p1360
sg1202
I382
sg1203
I337
sg14
(iopmop.models.point
Point
p1361
(dp1362
g17
F40.52154760144885
sg18
I16
sg19
F-112.14969724194981
sg20
I49
sbsg1206
I40
sg1207
I116
sg1208
I184
sg1209
I01
sg1210
I10270
sg23
I34
sba(iopmop.models.machine
Truck
p1363
(dp1364
g1200
S'TRK35'
p1365
sg1202
I490
sg1203
I309
sg14
(iopmop.models.point
Point
p1366
(dp1367
g17
F40.52204811588998
sg18
I25
sg19
F-112.15288531678806
sg20
I58
sbsg1206
I43
sg1207
I120
sg1208
I171
sg1209
I01
sg1210
I8602
sg23
I35
sba(iopmop.models.machine
Truck
p1368
(dp1369
g1200
S'TRK36'
p1370
sg1202
I316
sg1203
I295
sg14
(iopmop.models.point
Point
p1371
(dp1372
g17
F40.5224649901301
sg18
I5
sg19
F-112.15391785781912
sg20
I71
sbsg1206
I43
sg1207
I113
sg1208
I186
sg1209
I01
sg1210
I9483
sg23
I36
sba(iopmop.models.machine
Truck
p1373
(dp1374
g1200
S'TRK37'
p1375
sg1202
I252
sg1203
I339
sg14
g1265
sg1206
I46
sg1207
I105
sg1208
I181
sg1209
I01
sg1210
I8283
sg23
I37
sba(iopmop.models.machine
Truck
p1376
(dp1377
g1200
S'TRK38'
p1378
sg1202
I342
sg1203
I324
sg14
(iopmop.models.point
Point
p1379
(dp1380
g17
F40.51964416685738
sg18
I2
sg19
F-112.15076226431802
sg20
I146
sbsg1206
I49
sg1207
I118
sg1208
I183
sg1209
I01
sg1210
I8057
sg23
I38
sba(iopmop.models.machine
Truck
p1381
(dp1382
g1200
S'TRK39'
p1383
sg1202
I401
sg1203
I390
sg14
(iopmop.models.point
Point
p1384
(dp1385
g17
F40.51290707153489
sg18
I1
sg19
F-112.14024398274228
sg20
I230
sbsg1206
I43
sg1207
I110
sg1208
I170
sg1209
I01
sg1210
I8189
sg23
I39
sba(iopmop.models.machine
Truck
p1386
(dp1387
g1200
S'TRK40'
p1388
sg1202
I295
sg1203
I363
sg14
(iopmop.models.point
Point
p1389
(dp1390
g17
F40.52451305258641
sg18
I1
sg19
F-112.10572931713864
sg20
I209
sbsg1206
I47
sg1207
I91
sg1208
I158
sg1209
I01
sg1210
I8767
sg23
I40
sba(iopmop.models.machine
Truck
p1391
(dp1392
g1200
S'TRK41'
p1393
sg1202
I351
sg1203
I250
sg14
(iopmop.models.point
Point
p1394
(dp1395
g17
F40.521600289092895
sg18
I3
sg19
F-112.15016361369356
sg20
I87
sbsg1206
I46
sg1207
I87
sg1208
I160
sg1209
I01
sg1210
I10670
sg23
I41
sba(iopmop.models.machine
Truck
p1396
(dp1397
g1200
S'TRK42'
p1398
sg1202
I303
sg1203
I398
sg14
g1379
sg1206
I47
sg1207
I101
sg1208
I171
sg1209
I01
sg1210
I8109
sg23
I42
sba(iopmop.models.machine
Truck
p1399
(dp1400
g1200
S'TRK43'
p1401
sg1202
I319
sg1203
I349
sg14
(iopmop.models.point
Point
p1402
(dp1403
g17
F40.523840237856376
sg18
I22
sg19
F-112.15156826920315
sg20
I55
sbsg1206
I40
sg1207
I120
sg1208
I167
sg1209
I01
sg1210
I10096
sg23
I43
sba(iopmop.models.machine
Truck
p1404
(dp1405
g1200
S'TRK44'
p1406
sg1202
I334
sg1203
I262
sg14
(iopmop.models.point
Point
p1407
(dp1408
g17
F40.530417151348395
sg18
I4
sg19
F-112.15297189238458
sg20
I77
sbsg1206
I41
sg1207
I87
sg1208
I177
sg1209
I01
sg1210
I8580
sg23
I44
sba(iopmop.models.machine
Truck
p1409
(dp1410
g1200
S'TRK45'
p1411
sg1202
I322
sg1203
I391
sg14
(iopmop.models.point
Point
p1412
(dp1413
g17
F40.52456587015929
sg18
I4
sg19
F-112.13865073597219
sg20
I192
sbsg1206
I44
sg1207
I91
sg1208
I174
sg1209
I01
sg1210
I8088
sg23
I45
sba(iopmop.models.machine
Truck
p1414
(dp1415
g1200
S'TRK46'
p1416
sg1202
I324
sg1203
I292
sg14
(iopmop.models.point
Point
p1417
(dp1418
g17
F40.51543389498886
sg18
I4
sg19
F-112.13385560637846
sg20
I201
sbsg1206
I41
sg1207
I83
sg1208
I188
sg1209
I01
sg1210
I10598
sg23
I46
sba(iopmop.models.machine
Truck
p1419
(dp1420
g1200
S'TRK47'
p1421
sg1202
I452
sg1203
I366
sg14
g28
sg1206
I50
sg1207
I104
sg1208
I181
sg1209
I01
sg1210
I10582
sg23
I47
sba(iopmop.models.machine
Truck
p1422
(dp1423
g1200
S'TRK48'
p1424
sg1202
I461
sg1203
I299
sg14
(iopmop.models.point
Point
p1425
(dp1426
g17
F40.529357119273065
sg18
I1
sg19
F-112.14197132534787
sg20
I189
sbsg1206
I49
sg1207
I117
sg1208
I175
sg1209
I01
sg1210
I8868
sg23
I48
sba(iopmop.models.machine
Truck
p1427
(dp1428
g1200
S'TRK49'
p1429
sg1202
I292
sg1203
I368
sg14
(iopmop.models.point
Point
p1430
(dp1431
g17
F40.52022072529596
sg18
I5
sg19
F-112.1557085714515
sg20
I109
sbsg1206
I49
sg1207
I81
sg1208
I193
sg1209
I01
sg1210
I9283
sg23
I49
sbasS'locations'
p1432
(lp1433
(iopmop.models.location
Location
p1434
(dp1435
g14
(iopmop.models.point
Point
p1436
(dp1437
g17
F40.51919151519808
sg18
I9
sg19
F-112.14201155848309
sg20
I197
sbsg21
g58
sg23
I0
sg24
S'Site0'
p1438
sbag54
ag425
ag724
ag953
ag12
ag26
ag31
ag36
ag41
a(iopmop.models.location
Location
p1439
(dp1440
g14
(iopmop.models.point
Point
p1441
(dp1442
g17
F40.528875990263
sg18
I8
sg19
F-112.13703606076047
sg20
I245
sbsg21
S'fuel'
p1443
sg23
I10
sg24
S'Fuel10'
p1444
sba(iopmop.models.location
Location
p1445
(dp1446
g14
g1394
sg21
g1443
sg23
I11
sg24
S'Fuel11'
p1447
sbas.