(dp0
S'missions'
p1
(lp2
(iopmop.models.mission
Mission
p3
(dp4
S'startDate'
p5
cdatetime
datetime
p6
(S'\x07\xe1\x07\x01\x00\x00\x00\x00\x00\x00'
p7
tp8
Rp9
sS'dumpLocations'
p10
(lp11
(iopmop.models.location
Location
p12
(dp13
S'point'
p14
(iopmop.models.point
Point
p15
(dp16
S'lat'
p17
F40.524449849065824
sS'index'
p18
I6
sS'lng'
p19
F-112.15532470292851
sS'nid'
p20
I79
sbsS'type'
p21
S'dump'
p22
sS'id'
p23
I5
sS'name'
p24
S'Dump5'
p25
sba(iopmop.models.location
Location
p26
(dp27
g14
(iopmop.models.point
Point
p28
(dp29
g17
F40.52430101473363
sg18
I1
sg19
F-112.13355991787716
sg20
I234
sbsg21
g22
sg23
I6
sg24
S'Dump6'
p30
sba(iopmop.models.location
Location
p31
(dp32
g14
(iopmop.models.point
Point
p33
(dp34
g17
F40.52144455481663
sg18
I4
sg19
F-112.14980874008938
sg20
I88
sbsg21
g22
sg23
I7
sg24
S'Dump7'
p35
sba(iopmop.models.location
Location
p36
(dp37
g14
g15
sg21
g22
sg23
I8
sg24
S'Dump8'
p38
sba(iopmop.models.location
Location
p39
(dp40
g14
(iopmop.models.point
Point
p41
(dp42
g17
F40.527179779080214
sg18
I1
sg19
F-112.14562985844418
sg20
I1
sbsg21
g22
sg23
I9
sg24
S'Dump9'
p43
sbasS'endDate'
p44
g6
(S'\x07\xe1\x07\x1e\x00\x00\x00\x00\x00\x00'
p45
tp46
Rp47
sS'target'
p48
I80000
sS'title'
p49
S'Iron min'
p50
sS'digLocation'
p51
(iopmop.models.location
Location
p52
(dp53
g14
(iopmop.models.point
Point
p54
(dp55
g17
F40.5213016346787
sg18
I18
sg19
F-112.15028519197688
sg20
I51
sbsg21
S'dig'
p56
sg23
I1
sg24
S'Site1'
p57
sbsS'schedules'
p58
(lp59
(iopmop.models.schedule
Schedule
p60
(dp61
S'tasks'
p62
(lp63
(iopmop.models.task
DigTask
p64
(dp65
g48
F2758.0
sS'machineId'
p66
I8
sS'comments'
p67
S'None'
p68
sS'actualTarget'
p69
NsS'cost'
p70
NsS'location'
p71
g52
sS'startTime'
p72
g6
(S'\x07\xe1\x07\x01\t\x00\x00\x00\x00\x00'
p73
tp74
Rp75
sS'endTime'
p76
g6
(S'\x07\xe1\x07\x01\x0f\x0f\x1c\x06l\xbd'
p77
tp78
Rp79
sg23
S'0-0'
p80
sba(iopmop.models.task
LoadTask
p81
(dp82
g48
F2709.4356102689485
sg66
I13
sg67
g68
sg69
Nsg70
Nsg71
g52
sg72
g6
(S'\x07\xe1\x07\x01\t\x00\x00\x00\x00\x00'
p83
tp84
Rp85
sg76
g6
(S'\x07\xe1\x07\x01\r$\x00\x00\x00\x00'
p86
tp87
Rp88
sg23
S'0-0'
p89
sba(iopmop.models.task
LoadTask
p90
(dp91
g48
F278.0718032388757
sg66
I12
sg67
g68
sg69
Nsg70
Nsg71
g52
sg72
g6
(S'\x07\xe1\x07\x01\t\x00\x00\x00\x00\x00'
p92
tp93
Rp94
sg76
g6
(S'\x07\xe1\x07\x01\n\x00\x00\x00\x00\x00'
p95
tp96
Rp97
sg23
S'0-0'
p98
sba(iopmop.models.task
HaulageTask
p99
(dp100
g48
I429
sg66
I38
sg67
g68
sS'dumpLocation'
p101
g12
sg69
Nsg70
Nsg71
g52
sg72
g6
(S'\x07\xe1\x07\x01\t/\n\n\x81p'
p102
tp103
Rp104
sg76
g6
(S'\x07\xe1\x07\x01\n\n.\x00\x7f\xe8'
p105
tp106
Rp107
sg23
S'0-1'
p108
sba(iopmop.models.task
HaulageTask
p109
(dp110
g48
I389
sg66
I32
sg67
g68
sg101
g12
sg69
Nsg70
Nsg71
g52
sg72
g6
(S'\x07\xe1\x07\x01\n\x1d6\x00 \xc8'
p111
tp112
Rp113
sg76
g6
(S'\x07\xe1\x07\x01\n4\x16\x07\xca\x1a'
p114
tp115
Rp116
sg23
S'0-1'
p117
sba(iopmop.models.task
HaulageTask
p118
(dp119
g48
I403
sg66
I42
sg67
g68
sg101
g12
sg69
Nsg70
Nsg71
g52
sg72
g6
(S'\x07\xe1\x07\x01\x0b\t(\nBX'
p120
tp121
Rp122
sg76
g6
(S'\x07\xe1\x07\x01\x0b\x1f\x11\x06\xe1\xfc'
p123
tp124
Rp125
sg23
S'0-1'
p126
sba(iopmop.models.task
HaulageTask
p127
(dp128
g48
I411
sg66
I49
sg67
g68
sg101
g12
sg69
Nsg70
Nsg71
g52
sg72
g6
(S'\x07\xe1\x07\x01\x0b4\x1e\r,\xd8'
p129
tp130
Rp131
sg76
g6
(S'\x07\xe1\x07\x01\x0c\x0e\x04\x0b\x01\xe3'
p132
tp133
Rp134
sg23
S'0-1'
p135
sba(iopmop.models.task
HaulageTask
p136
(dp137
g48
I461
sg66
I41
sg67
g68
sg101
g12
sg69
Nsg70
Nsg71
g52
sg72
g6
(S'\x07\xe1\x07\x01\x0c\x0f)\x0cgK'
p138
tp139
Rp140
sg76
g6
(S'\x07\xe1\x07\x01\x0c%\x1a\x06\xff\xfe'
p141
tp142
Rp143
sg23
S'0-1'
p144
sba(iopmop.models.task
HaulageTask
p145
(dp146
g48
I423
sg66
I37
sg67
g68
sg101
g12
sg69
Nsg70
Nsg71
g52
sg72
g6
(S'\x07\xe1\x07\x01\x0c4/\x0c\xaf\x12'
p147
tp148
Rp149
sg76
g6
(S'\x07\xe1\x07\x01\r\x10\x04\t_\xe7'
p150
tp151
Rp152
sg23
S'0-1'
p153
sba(iopmop.models.task
HaulageTask
p154
(dp155
g48
I466
sg66
I44
sg67
g68
sg101
g12
sg69
Nsg70
Nsg71
g52
sg72
g6
(S'\x07\xe1\x07\x01\r\x11/\x0c\x1c\xa8'
p156
tp157
Rp158
sg76
g6
(S"\x07\xe1\x07\x01\r'\x10\x0b\xd9\x86"
p159
tp160
Rp161
sg23
S'0-1'
p162
sbasg48
I2758
sS'remainingDig'
p163
F0.0
sS'mission'
p164
g3
sS'remainingLoad'
p165
F-229.5074135078242
sS'date'
p166
g6
(S'\x07\xe1\x07\x01\x00\x00\x00\x00\x00\x00'
p167
tp168
Rp169
sS'allocated'
p170
I01
sS'remainingHaulage'
p171
F-224.0
sg23
I0
sba(iopmop.models.schedule
Schedule
p172
(dp173
g62
(lp174
(iopmop.models.task
DigTask
p175
(dp176
g48
F2758.0
sg66
I8
sg67
g68
sg69
Nsg70
Nsg71
g52
sg72
g6
(S'\x07\xe1\x07\x02\t\x00\x00\x00\x00\x00'
p177
tp178
Rp179
sg76
g6
(S'\x07\xe1\x07\x02\x0f\x0f\x1c\x06l\xbd'
p180
tp181
Rp182
sg23
S'1-0'
p183
sba(iopmop.models.task
LoadTask
p184
(dp185
g48
F2709.4356102689485
sg66
I13
sg67
g68
sg69
Nsg70
Nsg71
g52
sg72
g6
(S'\x07\xe1\x07\x02\t\x00\x00\x00\x00\x00'
p186
tp187
Rp188
sg76
g6
(S'\x07\xe1\x07\x02\r$\x00\x00\x00\x00'
p189
tp190
Rp191
sg23
S'1-0'
p192
sba(iopmop.models.task
LoadTask
p193
(dp194
g48
F278.0718032388757
sg66
I12
sg67
g68
sg69
Nsg70
Nsg71
g52
sg72
g6
(S'\x07\xe1\x07\x02\t\x00\x00\x00\x00\x00'
p195
tp196
Rp197
sg76
g6
(S'\x07\xe1\x07\x02\n\x00\x00\x00\x00\x00'
p198
tp199
Rp200
sg23
S'1-0'
p201
sba(iopmop.models.task
HaulageTask
p202
(dp203
g48
I494
sg66
I25
sg67
g68
sg101
g12
sg69
Nsg70
Nsg71
g52
sg72
g6
(S'\x07\xe1\x07\x02\t.8\x0e\x08|'
p204
tp205
Rp206
sg76
g6
(S'\x07\xe1\x07\x02\n\n\x19\x05\xcaz'
p207
tp208
Rp209
sg23
S'1-1'
p210
sba(iopmop.models.task
HaulageTask
p211
(dp212
g48
I498
sg66
I31
sg67
g68
sg101
g12
sg69
Nsg70
Nsg71
g52
sg72
g6
(S'\x07\xe1\x07\x02\n\x1d\x07\x0c\xa8\xd0'
p213
tp214
Rp215
sg76
g6
(S'\x07\xe1\x07\x02\n3\x18\x0c\x02t'
p216
tp217
Rp218
sg23
S'1-1'
p219
sba(iopmop.models.task
HaulageTask
p220
(dp221
g48
I420
sg66
I23
sg67
g68
sg101
g12
sg69
Nsg70
Nsg71
g52
sg72
g6
(S'\x07\xe1\x07\x02\n3&\x00\x83|'
p222
tp223
Rp224
sg76
g6
(S'\x07\xe1\x07\x02\x0b\r9\t\xc5\x88'
p225
tp226
Rp227
sg23
S'1-1'
p228
sba(iopmop.models.task
HaulageTask
p229
(dp230
g48
I385
sg66
I27
sg67
g68
sg101
g12
sg69
Nsg70
Nsg71
g52
sg72
g6
(S'\x07\xe1\x07\x02\x0b\x0f\x12\x04o\x08'
p231
tp232
Rp233
sg76
g6
(S'\x07\xe1\x07\x02\x0b%3\x05,4'
p234
tp235
Rp236
sg23
S'1-1'
p237
sba(iopmop.models.task
HaulageTask
p238
(dp239
g48
I435
sg66
I48
sg67
g68
sg101
g12
sg69
Nsg70
Nsg71
g52
sg72
g6
(S'\x07\xe1\x07\x02\x0b6%\x01\xda\xe8'
p240
tp241
Rp242
sg76
g6
(S'\x07\xe1\x07\x02\x0c\x10\x1a\x0b\x9f\xad'
p243
tp244
Rp245
sg23
S'1-1'
p246
sba(iopmop.models.task
HaulageTask
p247
(dp248
g48
I431
sg66
I46
sg67
g68
sg101
g12
sg69
Nsg70
Nsg71
g52
sg72
g6
(S'\x07\xe1\x07\x02\x0c\x1f;\n\x8b\xec'
p249
tp250
Rp251
sg76
g6
(S'\x07\xe1\x07\x02\x0c7 \x0f\x1b\xf8'
p252
tp253
Rp254
sg23
S'1-1'
p255
sba(iopmop.models.task
HaulageTask
p256
(dp257
g48
I482
sg66
I47
sg67
g68
sg101
g12
sg69
Nsg70
Nsg71
g52
sg72
g6
(S'\x07\xe1\x07\x02\r\x11\x10\x07\xebW'
p258
tp259
Rp260
sg76
g6
(S"\x07\xe1\x07\x02\r('\x0c\xcc\xfc"
p261
tp262
Rp263
sg23
S'1-1'
p264
sbasg48
I2758
sg163
F0.0
sg164
g3
sg165
F-229.5074135078242
sg166
g6
(S'\x07\xe1\x07\x02\x00\x00\x00\x00\x00\x00'
p265
tp266
Rp267
sg170
I01
sg171
F-387.0
sg23
I1
sba(iopmop.models.schedule
Schedule
p268
(dp269
g62
(lp270
(iopmop.models.task
DigTask
p271
(dp272
g48
F2758.0
sg66
I8
sg67
g68
sg69
Nsg70
Nsg71
g52
sg72
g6
(S'\x07\xe1\x07\x03\t\x00\x00\x00\x00\x00'
p273
tp274
Rp275
sg76
g6
(S'\x07\xe1\x07\x03\x0f\x0f\x1c\x06l\xbd'
p276
tp277
Rp278
sg23
S'2-0'
p279
sba(iopmop.models.task
LoadTask
p280
(dp281
g48
F2709.4356102689485
sg66
I13
sg67
g68
sg69
Nsg70
Nsg71
g52
sg72
g6
(S'\x07\xe1\x07\x03\t\x00\x00\x00\x00\x00'
p282
tp283
Rp284
sg76
g6
(S'\x07\xe1\x07\x03\r$\x00\x00\x00\x00'
p285
tp286
Rp287
sg23
S'2-0'
p288
sba(iopmop.models.task
LoadTask
p289
(dp290
g48
F278.0718032388757
sg66
I12
sg67
g68
sg69
Nsg70
Nsg71
g52
sg72
g6
(S'\x07\xe1\x07\x03\t\x00\x00\x00\x00\x00'
p291
tp292
Rp293
sg76
g6
(S'\x07\xe1\x07\x03\n\x00\x00\x00\x00\x00'
p294
tp295
Rp296
sg23
S'2-0'
p297
sba(iopmop.models.task
HaulageTask
p298
(dp299
g48
I373
sg66
I35
sg67
g68
sg101
g12
sg69
Nsg70
Nsg71
g52
sg72
g6
(S'\x07\xe1\x07\x03\t+\x14\t\xb5d'
p300
tp301
Rp302
sg76
g6
(S'\x07\xe1\x07\x03\n\x05\x00\x0e\x90\x16'
p303
tp304
Rp305
sg23
S'2-1'
p306
sba(iopmop.models.task
HaulageTask
p307
(dp308
g48
I397
sg66
I26
sg67
g68
sg101
g12
sg69
Nsg70
Nsg71
g52
sg72
g6
(S'\x07\xe1\x07\x03\n\n\x0e\x03r\xb5'
p309
tp310
Rp311
sg76
g6
(S'\x07\xe1\x07\x03\n!&\x0e\xc5\x1c'
p312
tp313
Rp314
sg23
S'2-1'
p315
sba(iopmop.models.task
HaulageTask
p316
(dp317
g48
I411
sg66
I49
sg67
g68
sg101
g12
sg69
Nsg70
Nsg71
g52
sg72
g6
(S'\x07\xe1\x07\x03\n/1\x04kw'
p318
tp319
Rp320
sg76
g6
(S'\x07\xe1\x07\x03\x0b\t\x17\x02@\x82'
p321
tp322
Rp323
sg23
S'2-1'
p324
sba(iopmop.models.task
HaulageTask
p325
(dp326
g48
I461
sg66
I41
sg67
g68
sg101
g12
sg69
Nsg70
Nsg71
g52
sg72
g6
(S'\x07\xe1\x07\x03\x0b\n\x1b\rZ\xf2'
p327
tp328
Rp329
sg76
g6
(S'\x07\xe1\x07\x03\x0b \x0c\x07\xf3\xa5'
p330
tp331
Rp332
sg23
S'2-1'
p333
sba(iopmop.models.task
HaulageTask
p334
(dp335
g48
I423
sg66
I37
sg67
g68
sg101
g12
sg69
Nsg70
Nsg71
g52
sg72
g6
(S'\x07\xe1\x07\x03\x0b*9\x07ZS'
p336
tp337
Rp338
sg76
g6
(S'\x07\xe1\x07\x03\x0c\x06\x0e\x04\x0b('
p339
tp340
Rp341
sg23
S'2-1'
p342
sba(iopmop.models.task
HaulageTask
p343
(dp344
g48
I450
sg66
I45
sg67
g68
sg101
g12
sg69
Nsg70
Nsg71
g52
sg72
g6
(S'\x07\xe1\x07\x03\x0c\x1d\x02\x0eC\x97'
p345
tp346
Rp347
sg76
g6
(S'\x07\xe1\x07\x03\x0c4\x10\t\x116'
p348
tp349
Rp350
sg23
S'2-1'
p351
sba(iopmop.models.task
HaulageTask
p352
(dp353
g48
I466
sg66
I44
sg67
g68
sg101
g12
sg69
Nsg70
Nsg71
g52
sg72
g6
(S'\x07\xe1\x07\x03\x0c8\x12\x0c_\xca'
p354
tp355
Rp356
sg76
g6
(S'\x07\xe1\x07\x03\r\x11/\x0c\x1c\xa8'
p357
tp358
Rp359
sg23
S'2-1'
p360
sbasg48
I2758
sg163
F0.0
sg164
g3
sg165
F-229.5074135078242
sg166
g6
(S'\x07\xe1\x07\x03\x00\x00\x00\x00\x00\x00'
p361
tp362
Rp363
sg170
I01
sg171
F-223.0
sg23
I2
sba(iopmop.models.schedule
Schedule
p364
(dp365
g62
(lp366
sg48
I2758
sg163
I2758
sg164
g3
sg165
I2758
sg166
g6
(S'\x07\xe1\x07\x04\x00\x00\x00\x00\x00\x00'
p367
tp368
Rp369
sg170
I00
sg171
I2758
sg23
I3
sba(iopmop.models.schedule
Schedule
p370
(dp371
g62
(lp372
(iopmop.models.task
DigTask
p373
(dp374
g48
F2758.0
sg66
I8
sg67
S'None'
p375
sg69
Nsg70
Nsg71
g52
sg72
g6
(S'\x07\xe1\x07\x05\t\x00\x00\x00\x00\x00'
p376
tp377
Rp378
sg76
g6
(S'\x07\xe1\x07\x05\x0f\x0f\x1c\x06l\xbd'
p379
tp380
Rp381
sg23
S'4-0'
p382
sba(iopmop.models.task
LoadTask
p383
(dp384
g48
F2709.4356102689485
sg66
I13
sg67
g375
sg69
Nsg70
Nsg71
g52
sg72
g6
(S'\x07\xe1\x07\x05\t\x00\x00\x00\x00\x00'
p385
tp386
Rp387
sg76
g6
(S'\x07\xe1\x07\x05\r$\x00\x00\x00\x00'
p388
tp389
Rp390
sg23
S'4-0'
p391
sba(iopmop.models.task
LoadTask
p392
(dp393
g48
F278.0718032388757
sg66
I12
sg67
g375
sg69
Nsg70
Nsg71
g52
sg72
g6
(S'\x07\xe1\x07\x05\t\x00\x00\x00\x00\x00'
p394
tp395
Rp396
sg76
g6
(S'\x07\xe1\x07\x05\n\x00\x00\x00\x00\x00'
p397
tp398
Rp399
sg23
S'4-0'
p400
sba(iopmop.models.task
HaulageTask
p401
(dp402
g70
Nsg48
I420
sg66
I23
sg67
g375
sg69
Nsg101
g12
sg71
g52
sg72
g6
(S"\x07\xe1\x07\x05\t,'\x03A\xd8"
p403
tp404
Rp405
sg76
g6
(S'\x07\xe1\x07\x05\n\x06:\x0c\x83\xe4'
p406
tp407
Rp408
sg23
S'4-1'
p409
sba(iopmop.models.task
HaulageTask
p410
(dp411
g70
Nsg48
I385
sg66
I27
sg67
g375
sg69
Nsg101
g12
sg71
g52
sg72
g6
(S"\x07\xe1\x07\x05\n\x07'\x027\x84"
p412
tp413
Rp414
sg76
g6
(S'\x07\xe1\x07\x05\n\x1e\x0c\x02\xf4\xb0'
p415
tp416
Rp417
sg23
S'4-1'
p418
sba(iopmop.models.task
HaulageTask
p419
(dp420
g70
Nsg48
I435
sg66
I48
sg67
g375
sg69
Nsg101
g12
sg71
g52
sg72
g6
(S'\x07\xe1\x07\x05\n1\x08\x03\x11\x19'
p421
tp422
Rp423
sg76
g6
(S'\x07\xe1\x07\x05\x0b\n9\x0c\xd5\xde'
p424
tp425
Rp426
sg23
S'4-1'
p427
sba(iopmop.models.task
HaulageTask
p428
(dp429
g70
Nsg48
I431
sg66
I46
sg67
g375
sg69
Nsg101
g12
sg71
g52
sg72
g6
(S'\x07\xe1\x07\x05\x0b\x15\x13\x0c\x1e\x08'
p430
tp431
Rp432
sg76
g6
(S'\x07\xe1\x07\x05\x0b,5\x01k\xd4'
p433
tp434
Rp435
sg23
S'4-1'
p436
sba(iopmop.models.task
HaulageTask
p437
(dp438
g70
Nsg48
I482
sg66
I47
sg67
g375
sg69
Nsg101
g12
sg71
g52
sg72
g6
(S'\x07\xe1\x07\x05\x0c\x07\x06\x08\x88\xa8'
p439
tp440
Rp441
sg76
g6
(S'\x07\xe1\x07\x05\x0c\x1e\x1d\rjM'
p442
tp443
Rp444
sg23
S'4-1'
p445
sba(iopmop.models.task
HaulageTask
p446
(dp447
g70
Nsg48
I373
sg66
I35
sg67
g375
sg69
Nsg101
g12
sg71
g52
sg72
g6
(S'\x07\xe1\x07\x05\x0c$+\x02\xc44'
p448
tp449
Rp450
sg76
g6
(S'\x07\xe1\x07\x05\x0c:\x17\x07\x9e\xe6'
p451
tp452
Rp453
sg23
S'4-1'
p454
sba(iopmop.models.task
HaulageTask
p455
(dp456
g70
Nsg48
I397
sg66
I26
sg67
g375
sg69
Nsg101
g12
sg71
g52
sg72
g6
(S'\x07\xe1\x07\x05\r\x11 \x02xm'
p457
tp458
Rp459
sg76
g6
(S'\x07\xe1\x07\x05\r(8\r\xca\xd4'
p460
tp461
Rp462
sg23
S'4-1'
p463
sbasg48
I2758
sg163
F0.0
sg164
g3
sg165
F-229.5074135078242
sg166
g6
(S'\x07\xe1\x07\x05\x00\x00\x00\x00\x00\x00'
p464
tp465
Rp466
sg170
I01
sg171
F-165.0
sg23
I4
sba(iopmop.models.schedule
Schedule
p467
(dp468
g62
(lp469
(iopmop.models.task
DigTask
p470
(dp471
g48
F2758.0
sg66
I8
sg67
S'None'
p472
sg69
Nsg70
Nsg71
g52
sg72
g6
(S'\x07\xe1\x07\x06\t\x00\x00\x00\x00\x00'
p473
tp474
Rp475
sg76
g6
(S'\x07\xe1\x07\x06\x0f\x0f\x1c\x06l\xbd'
p476
tp477
Rp478
sg23
S'5-0'
p479
sba(iopmop.models.task
LoadTask
p480
(dp481
g48
F2709.4356102689485
sg66
I13
sg67
g472
sg69
Nsg70
Nsg71
g52
sg72
g6
(S'\x07\xe1\x07\x06\t\x00\x00\x00\x00\x00'
p482
tp483
Rp484
sg76
g6
(S'\x07\xe1\x07\x06\r$\x00\x00\x00\x00'
p485
tp486
Rp487
sg23
S'5-0'
p488
sba(iopmop.models.task
LoadTask
p489
(dp490
g48
F278.0718032388757
sg66
I12
sg67
g472
sg69
Nsg70
Nsg71
g52
sg72
g6
(S'\x07\xe1\x07\x06\t\x00\x00\x00\x00\x00'
p491
tp492
Rp493
sg76
g6
(S'\x07\xe1\x07\x06\n\x00\x00\x00\x00\x00'
p494
tp495
Rp496
sg23
S'5-0'
p497
sba(iopmop.models.task
HaulageTask
p498
(dp499
g70
Nsg48
I456
sg66
I22
sg67
g472
sg69
Nsg101
g12
sg71
g52
sg72
g6
(S'\x07\xe1\x07\x06\t,\x1b\x0ek\x86'
p500
tp501
Rp502
sg76
g6
(S'\x07\xe1\x07\x06\n\x06)\x0e\x00)'
p503
tp504
Rp505
sg23
S'5-1'
p506
sba(iopmop.models.task
HaulageTask
p507
(dp508
g70
Nsg48
I494
sg66
I25
sg67
g472
sg69
Nsg101
g12
sg71
g52
sg72
g6
(S'\x07\xe1\x07\x06\n\n\x19\x05\xcaz'
p509
tp510
Rp511
sg76
g6
(S'\x07\xe1\x07\x06\n!5\x0c\xce\xb8'
p512
tp513
Rp514
sg23
S'5-1'
p515
sba(iopmop.models.task
HaulageTask
p516
(dp517
g70
Nsg48
I498
sg66
I31
sg67
g472
sg69
Nsg101
g12
sg71
g52
sg72
g6
(S'\x07\xe1\x07\x06\n3\x18\x0c\x02t'
p518
tp519
Rp520
sg76
g6
(S'\x07\xe1\x07\x06\x0b\r)\x0b\\\x18'
p521
tp522
Rp523
sg23
S'5-1'
p524
sba(iopmop.models.task
HaulageTask
p525
(dp526
g70
Nsg48
I435
sg66
I48
sg67
g472
sg69
Nsg101
g12
sg71
g52
sg72
g6
(S'\x07\xe1\x07\x06\x0b /\x07Xc'
p527
tp528
Rp529
sg76
g6
(S'\x07\xe1\x07\x06\x0b6%\x01\xda\xe8'
p530
tp531
Rp532
sg23
S'5-1'
p533
sba(iopmop.models.task
HaulageTask
p534
(dp535
g70
Nsg48
I466
sg66
I44
sg67
g472
sg69
Nsg101
g12
sg71
g52
sg72
g6
(S'\x07\xe1\x07\x06\x0c\r\x14\x0c\xe6\x0e'
p536
tp537
Rp538
sg76
g6
(S'\x07\xe1\x07\x06\x0c"1\x0c\xa2\xec'
p539
tp540
Rp541
sg23
S'5-1'
p542
sba(iopmop.models.task
HaulageTask
p543
(dp544
g70
Nsg48
I456
sg66
I22
sg67
g472
sg69
Nsg101
g12
sg71
g52
sg72
g6
(S'\x07\xe1\x07\x06\x0c*\x13\x0b\x10\x9e'
p545
tp546
Rp547
sg76
g6
(S'\x07\xe1\x07\x06\r\x04!\n\xa5A'
p548
tp549
Rp550
sg23
S'5-1'
p551
sbasg48
I2758
sg163
F0.0
sg164
g3
sg165
F-229.5074135078242
sg166
g6
(S'\x07\xe1\x07\x06\x00\x00\x00\x00\x00\x00'
p552
tp553
Rp554
sg170
I01
sg171
F-47.0
sg23
I5
sba(iopmop.models.schedule
Schedule
p555
(dp556
g62
(lp557
sg48
I2758
sg163
I2758
sg164
g3
sg165
I2758
sg166
g6
(S'\x07\xe1\x07\x07\x00\x00\x00\x00\x00\x00'
p558
tp559
Rp560
sg170
I00
sg171
I2758
sg23
I6
sba(iopmop.models.schedule
Schedule
p561
(dp562
g62
(lp563
sg48
I2758
sg163
I2758
sg164
g3
sg165
I2758
sg166
g6
(S'\x07\xe1\x07\x08\x00\x00\x00\x00\x00\x00'
p564
tp565
Rp566
sg170
I00
sg171
I2758
sg23
I7
sba(iopmop.models.schedule
Schedule
p567
(dp568
g62
(lp569
sg48
I2758
sg163
I2758
sg164
g3
sg165
I2758
sg166
g6
(S'\x07\xe1\x07\t\x00\x00\x00\x00\x00\x00'
p570
tp571
Rp572
sg170
I00
sg171
I2758
sg23
I8
sba(iopmop.models.schedule
Schedule
p573
(dp574
g62
(lp575
sg48
I2758
sg163
I2758
sg164
g3
sg165
I2758
sg166
g6
(S'\x07\xe1\x07\n\x00\x00\x00\x00\x00\x00'
p576
tp577
Rp578
sg170
I00
sg171
I2758
sg23
I9
sba(iopmop.models.schedule
Schedule
p579
(dp580
g62
(lp581
sg48
I2758
sg163
I2758
sg164
g3
sg165
I2758
sg166
g6
(S'\x07\xe1\x07\x0b\x00\x00\x00\x00\x00\x00'
p582
tp583
Rp584
sg170
I00
sg171
I2758
sg23
I10
sba(iopmop.models.schedule
Schedule
p585
(dp586
g62
(lp587
sg48
I2758
sg163
I2758
sg164
g3
sg165
I2758
sg166
g6
(S'\x07\xe1\x07\x0c\x00\x00\x00\x00\x00\x00'
p588
tp589
Rp590
sg170
I00
sg171
I2758
sg23
I11
sba(iopmop.models.schedule
Schedule
p591
(dp592
g62
(lp593
sg48
I2758
sg163
I2758
sg164
g3
sg165
I2758
sg166
g6
(S'\x07\xe1\x07\r\x00\x00\x00\x00\x00\x00'
p594
tp595
Rp596
sg170
I00
sg171
I2758
sg23
I12
sba(iopmop.models.schedule
Schedule
p597
(dp598
g62
(lp599
sg48
I2758
sg163
I2758
sg164
g3
sg165
I2758
sg166
g6
(S'\x07\xe1\x07\x0e\x00\x00\x00\x00\x00\x00'
p600
tp601
Rp602
sg170
I00
sg171
I2758
sg23
I13
sba(iopmop.models.schedule
Schedule
p603
(dp604
g62
(lp605
sg48
I2758
sg163
I2758
sg164
g3
sg165
I2758
sg166
g6
(S'\x07\xe1\x07\x0f\x00\x00\x00\x00\x00\x00'
p606
tp607
Rp608
sg170
I00
sg171
I2758
sg23
I14
sba(iopmop.models.schedule
Schedule
p609
(dp610
g62
(lp611
sg48
I2758
sg163
I2758
sg164
g3
sg165
I2758
sg166
g6
(S'\x07\xe1\x07\x10\x00\x00\x00\x00\x00\x00'
p612
tp613
Rp614
sg170
I00
sg171
I2758
sg23
I15
sba(iopmop.models.schedule
Schedule
p615
(dp616
g62
(lp617
sg48
I2758
sg163
I2758
sg164
g3
sg165
I2758
sg166
g6
(S'\x07\xe1\x07\x11\x00\x00\x00\x00\x00\x00'
p618
tp619
Rp620
sg170
I00
sg171
I2758
sg23
I16
sba(iopmop.models.schedule
Schedule
p621
(dp622
g62
(lp623
sg48
I2758
sg163
I2758
sg164
g3
sg165
I2758
sg166
g6
(S'\x07\xe1\x07\x12\x00\x00\x00\x00\x00\x00'
p624
tp625
Rp626
sg170
I00
sg171
I2758
sg23
I17
sba(iopmop.models.schedule
Schedule
p627
(dp628
g62
(lp629
sg48
I2758
sg163
I2758
sg164
g3
sg165
I2758
sg166
g6
(S'\x07\xe1\x07\x13\x00\x00\x00\x00\x00\x00'
p630
tp631
Rp632
sg170
I00
sg171
I2758
sg23
I18
sba(iopmop.models.schedule
Schedule
p633
(dp634
g62
(lp635
sg48
I2758
sg163
I2758
sg164
g3
sg165
I2758
sg166
g6
(S'\x07\xe1\x07\x14\x00\x00\x00\x00\x00\x00'
p636
tp637
Rp638
sg170
I00
sg171
I2758
sg23
I19
sba(iopmop.models.schedule
Schedule
p639
(dp640
g62
(lp641
sg48
I2758
sg163
I2758
sg164
g3
sg165
I2758
sg166
g6
(S'\x07\xe1\x07\x15\x00\x00\x00\x00\x00\x00'
p642
tp643
Rp644
sg170
I00
sg171
I2758
sg23
I20
sba(iopmop.models.schedule
Schedule
p645
(dp646
g62
(lp647
sg48
I2758
sg163
I2758
sg164
g3
sg165
I2758
sg166
g6
(S'\x07\xe1\x07\x16\x00\x00\x00\x00\x00\x00'
p648
tp649
Rp650
sg170
I00
sg171
I2758
sg23
I21
sba(iopmop.models.schedule
Schedule
p651
(dp652
g62
(lp653
sg48
I2758
sg163
I2758
sg164
g3
sg165
I2758
sg166
g6
(S'\x07\xe1\x07\x17\x00\x00\x00\x00\x00\x00'
p654
tp655
Rp656
sg170
I00
sg171
I2758
sg23
I22
sba(iopmop.models.schedule
Schedule
p657
(dp658
g62
(lp659
sg48
I2758
sg163
I2758
sg164
g3
sg165
I2758
sg166
g6
(S'\x07\xe1\x07\x18\x00\x00\x00\x00\x00\x00'
p660
tp661
Rp662
sg170
I00
sg171
I2758
sg23
I23
sba(iopmop.models.schedule
Schedule
p663
(dp664
g62
(lp665
sg48
I2758
sg163
I2758
sg164
g3
sg165
I2758
sg166
g6
(S'\x07\xe1\x07\x19\x00\x00\x00\x00\x00\x00'
p666
tp667
Rp668
sg170
I00
sg171
I2758
sg23
I24
sba(iopmop.models.schedule
Schedule
p669
(dp670
g62
(lp671
sg48
I2758
sg163
I2758
sg164
g3
sg165
I2758
sg166
g6
(S'\x07\xe1\x07\x1a\x00\x00\x00\x00\x00\x00'
p672
tp673
Rp674
sg170
I00
sg171
I2758
sg23
I25
sba(iopmop.models.schedule
Schedule
p675
(dp676
g62
(lp677
sg48
I2758
sg163
I2758
sg164
g3
sg165
I2758
sg166
g6
(S'\x07\xe1\x07\x1b\x00\x00\x00\x00\x00\x00'
p678
tp679
Rp680
sg170
I00
sg171
I2758
sg23
I26
sba(iopmop.models.schedule
Schedule
p681
(dp682
g62
(lp683
sg48
I2758
sg163
I2758
sg164
g3
sg165
I2758
sg166
g6
(S'\x07\xe1\x07\x1c\x00\x00\x00\x00\x00\x00'
p684
tp685
Rp686
sg170
I00
sg171
I2758
sg23
I27
sba(iopmop.models.schedule
Schedule
p687
(dp688
g62
(lp689
sg48
I2758
sg163
I2758
sg164
g3
sg165
I2758
sg166
g6
(S'\x07\xe1\x07\x1d\x00\x00\x00\x00\x00\x00'
p690
tp691
Rp692
sg170
I00
sg171
I2758
sg23
I28
sbasg23
I1
sS'numDays'
p693
I29
sba(iopmop.models.mission
Mission
p694
(dp695
g5
g6
(S'\x07\xe1\x07\x01\x00\x00\x00\x00\x00\x00'
p696
tp697
Rp698
sg10
(lp699
g12
ag26
ag31
ag36
ag39
asg44
g6
(S'\x07\xe1\x07\x14\x00\x00\x00\x00\x00\x00'
p700
tp701
Rp702
sg48
I100000
sg49
S'Coal june'
p703
sg51
(iopmop.models.location
Location
p704
(dp705
g14
(iopmop.models.point
Point
p706
(dp707
g17
F40.52101036609054
sg18
I31
sg19
F-112.12959490597905
sg20
I180
sbsg21
g56
sg23
I2
sg24
S'Site2'
p708
sbsg58
(lp709
(iopmop.models.schedule
Schedule
p710
(dp711
g62
(lp712
sg48
I5263
sg163
I5263
sg164
g694
sg165
I5263
sg166
g6
(S'\x07\xe1\x07\x01\x00\x00\x00\x00\x00\x00'
p713
tp714
Rp715
sg170
I00
sg171
I5263
sg23
I0
sba(iopmop.models.schedule
Schedule
p716
(dp717
g62
(lp718
sg48
I5263
sg163
I5263
sg164
g694
sg165
I5263
sg166
g6
(S'\x07\xe1\x07\x02\x00\x00\x00\x00\x00\x00'
p719
tp720
Rp721
sg170
I00
sg171
I5263
sg23
I1
sba(iopmop.models.schedule
Schedule
p722
(dp723
g62
(lp724
sg48
I5263
sg163
I5263
sg164
g694
sg165
I5263
sg166
g6
(S'\x07\xe1\x07\x03\x00\x00\x00\x00\x00\x00'
p725
tp726
Rp727
sg170
I00
sg171
I5263
sg23
I2
sba(iopmop.models.schedule
Schedule
p728
(dp729
g62
(lp730
sg48
I5263
sg163
I5263
sg164
g694
sg165
I5263
sg166
g6
(S'\x07\xe1\x07\x04\x00\x00\x00\x00\x00\x00'
p731
tp732
Rp733
sg170
I00
sg171
I5263
sg23
I3
sba(iopmop.models.schedule
Schedule
p734
(dp735
g62
(lp736
(iopmop.models.task
DigTask
p737
(dp738
g48
F3200.0
sg66
I2
sg67
S'None'
p739
sg69
Nsg70
Nsg71
g704
sg72
g6
(S'\x07\xe1\x07\x05\t\x00\x00\x00\x00\x00'
p740
tp741
Rp742
sg76
g6
(S'\x07\xe1\x07\x05\x11\x00\x0f\x04%\xfb'
p743
tp744
Rp745
sg23
S'4-0'
p746
sba(iopmop.models.task
DigTask
p747
(dp748
g48
F2063.0
sg66
I3
sg67
g739
sg69
Nsg70
Nsg71
g704
sg72
g6
(S'\x07\xe1\x07\x05\t\x00\x00\x00\x00\x00'
p749
tp750
Rp751
sg76
g6
(S"\x07\xe1\x07\x05\x0f\x16'\x05YF"
p752
tp753
Rp754
sg23
S'4-0'
p755
sba(iopmop.models.task
LoadTask
p756
(dp757
g48
F4374.432899282202
sg66
I14
sg67
g739
sg69
Nsg70
Nsg71
g704
sg72
g6
(S'\x07\xe1\x07\x05\t\x00\x00\x00\x00\x00'
p758
tp759
Rp760
sg76
g6
(S'\x07\xe1\x07\x05\x11\x00\x00\x00\x00\x00'
p761
tp762
Rp763
sg23
S'4-0'
p764
sba(iopmop.models.task
LoadTask
p765
(dp766
g48
F856.826006199125
sg66
I11
sg67
g739
sg69
Nsg70
Nsg71
g704
sg72
g6
(S'\x07\xe1\x07\x05\t\x00\x00\x00\x00\x00'
p767
tp768
Rp769
sg76
g6
(S'\x07\xe1\x07\x05\n! \x00\n\xb5'
p770
tp771
Rp772
sg23
S'4-0'
p773
sba(iopmop.models.task
LoadTask
p774
(dp775
g48
F410.32683534400076
sg66
I10
sg67
g739
sg69
Nsg70
Nsg71
g704
sg72
g6
(S'\x07\xe1\x07\x05\t\x00\x00\x00\x00\x00'
p776
tp777
Rp778
sg76
g6
(S'\x07\xe1\x07\x05\n\x00\x00\x00\x00\x00'
p779
tp780
Rp781
sg23
S'4-0'
p782
sba(iopmop.models.task
HaulageTask
p783
(dp784
g70
Nsg48
I456
sg66
I22
sg67
g739
sg69
Nsg101
g26
sg71
g704
sg72
g6
(S'\x07\xe1\x07\x05\t-\x1b\x02I\xad'
p785
tp786
Rp787
sg76
g6
(S'\x07\xe1\x07\x05\n\x1e6\x04\x93Z'
p788
tp789
Rp790
sg23
S'4-1'
p791
sba(iopmop.models.task
HaulageTask
p792
(dp793
g70
Nsg48
I435
sg66
I48
sg67
g739
sg69
Nsg101
g26
sg71
g704
sg72
g6
(S'\x07\xe1\x07\x05\x0b\x0c\x16\x0ck\x9f'
p794
tp795
Rp796
sg76
g6
(S'\x07\xe1\x07\x05\x0b8\x1e\x06cT'
p797
tp798
Rp799
sg23
S'4-1'
p800
sba(iopmop.models.task
HaulageTask
p801
(dp802
g70
Nsg48
I459
sg66
I36
sg67
g739
sg69
Nsg101
g26
sg71
g704
sg72
g6
(S'\x07\xe1\x07\x05\x0c\x10\x10\x03\xdd\xdc'
p803
tp804
Rp805
sg76
g6
(S'\x07\xe1\x07\x05\r\x05\x14\x04\xd5S'
p806
tp807
Rp808
sg23
S'4-1'
p809
sba(iopmop.models.task
HaulageTask
p810
(dp811
g70
Nsg48
I456
sg66
I22
sg67
g739
sg69
Nsg101
g26
sg71
g704
sg72
g6
(S'\x07\xe1\x07\x05\r *\r\xba\x0e'
p812
tp813
Rp814
sg76
g6
(S'\x07\xe1\x07\x05\x0e\x12\n\x00\xc1{'
p815
tp816
Rp817
sg23
S'4-1'
p818
sba(iopmop.models.task
HaulageTask
p819
(dp820
g70
Nsg48
I435
sg66
I48
sg67
g739
sg69
Nsg101
g26
sg71
g704
sg72
g6
(S'\x07\xe1\x07\x05\x0e5\x00\x0c\xc6\xa8'
p821
tp822
Rp823
sg76
g6
(S'\x07\xe1\x07\x05\x0f%\x08\x06\xbe]'
p824
tp825
Rp826
sg23
S'4-1'
p827
sba(iopmop.models.task
HaulageTask
p828
(dp829
g70
Nsg48
I459
sg66
I36
sg67
g739
sg69
Nsg101
g26
sg71
g704
sg72
g6
(S'\x07\xe1\x07\x05\x10\x15$\x08\xb3/'
p830
tp831
Rp832
sg76
g6
(S'\x07\xe1\x07\x05\x11\n(\t\xaa\xa6'
p833
tp834
Rp835
sg23
S'4-1'
p836
sbasg48
I5263
sg163
F0.0
sg164
g694
sg165
F-378.5857408253278
sg166
g6
(S'\x07\xe1\x07\x05\x00\x00\x00\x00\x00\x00'
p837
tp838
Rp839
sg170
I01
sg171
F2563.0
sg23
I4
sba(iopmop.models.schedule
Schedule
p840
(dp841
g62
(lp842
(iopmop.models.task
DigTask
p843
(dp844
g48
F3200.0
sg66
I2
sg67
g739
sg69
Nsg70
Nsg71
g704
sg72
g6
(S'\x07\xe1\x07\x06\t\x00\x00\x00\x00\x00'
p845
tp846
Rp847
sg76
g6
(S'\x07\xe1\x07\x06\x11\x00\x0f\x04%\xfb'
p848
tp849
Rp850
sg23
S'5-0'
p851
sba(iopmop.models.task
DigTask
p852
(dp853
g48
F2063.0
sg66
I3
sg67
g739
sg69
Nsg70
Nsg71
g704
sg72
g6
(S'\x07\xe1\x07\x06\t\x00\x00\x00\x00\x00'
p854
tp855
Rp856
sg76
g6
(S"\x07\xe1\x07\x06\x0f\x16'\x05YF"
p857
tp858
Rp859
sg23
S'5-0'
p860
sba(iopmop.models.task
LoadTask
p861
(dp862
g48
F4374.432899282202
sg66
I14
sg67
g739
sg69
Nsg70
Nsg71
g704
sg72
g6
(S'\x07\xe1\x07\x06\t\x00\x00\x00\x00\x00'
p863
tp864
Rp865
sg76
g6
(S'\x07\xe1\x07\x06\x11\x00\x00\x00\x00\x00'
p866
tp867
Rp868
sg23
S'5-0'
p869
sba(iopmop.models.task
LoadTask
p870
(dp871
g48
F856.826006199125
sg66
I11
sg67
g739
sg69
Nsg70
Nsg71
g704
sg72
g6
(S'\x07\xe1\x07\x06\t\x00\x00\x00\x00\x00'
p872
tp873
Rp874
sg76
g6
(S'\x07\xe1\x07\x06\n! \x00\n\xb5'
p875
tp876
Rp877
sg23
S'5-0'
p878
sba(iopmop.models.task
LoadTask
p879
(dp880
g48
F410.32683534400076
sg66
I10
sg67
g739
sg69
Nsg70
Nsg71
g704
sg72
g6
(S'\x07\xe1\x07\x06\t\x00\x00\x00\x00\x00'
p881
tp882
Rp883
sg76
g6
(S'\x07\xe1\x07\x06\n\x00\x00\x00\x00\x00'
p884
tp885
Rp886
sg23
S'5-0'
p887
sba(iopmop.models.task
HaulageTask
p888
(dp889
g70
Nsg48
I456
sg66
I22
sg67
g739
sg69
Nsg101
g26
sg71
g704
sg72
g6
(S'\x07\xe1\x07\x06\n\x1e6\x04\x93Z'
p890
tp891
Rp892
sg76
g6
(S'\x07\xe1\x07\x06\x0b\x10\x15\x06\xdd\x07'
p893
tp894
Rp895
sg23
S'5-1'
p896
sba(iopmop.models.task
HaulageTask
p897
(dp898
g70
Nsg48
I435
sg66
I48
sg67
g739
sg69
Nsg101
g26
sg71
g704
sg72
g6
(S'\x07\xe1\x07\x06\x0b8\x1e\x06cT'
p899
tp900
Rp901
sg76
g6
(S'\x07\xe1\x07\x06\x0c(&\x00[\t'
p902
tp903
Rp904
sg23
S'5-1'
p905
sba(iopmop.models.task
HaulageTask
p906
(dp907
g70
Nsg48
I459
sg66
I36
sg67
g739
sg69
Nsg101
g26
sg71
g704
sg72
g6
(S'\x07\xe1\x07\x06\r\x05\x14\x04\xd5S'
p908
tp909
Rp910
sg76
g6
(S'\x07\xe1\x07\x06\r6\x18\x05\xcc\xca'
p911
tp912
Rp913
sg23
S'5-1'
p914
sba(iopmop.models.task
HaulageTask
p915
(dp916
g70
Nsg48
I456
sg66
I22
sg67
g739
sg69
Nsg101
g26
sg71
g704
sg72
g6
(S'\x07\xe1\x07\x06\x0e\x12\n\x00\xc1{'
p917
tp918
Rp919
sg76
g6
(S'\x07\xe1\x07\x06\x0f\x03%\x03\x0b('
p920
tp921
Rp922
sg23
S'5-1'
p923
sba(iopmop.models.task
HaulageTask
p924
(dp925
g70
Nsg48
I435
sg66
I48
sg67
g739
sg69
Nsg101
g26
sg71
g704
sg72
g6
(S'\x07\xe1\x07\x06\x0f%\x08\x06\xbe]'
p926
tp927
Rp928
sg76
g6
(S'\x07\xe1\x07\x06\x10\x15\x10\x00\xb6\x12'
p929
tp930
Rp931
sg23
S'5-1'
p932
sba(iopmop.models.task
HaulageTask
p933
(dp934
g70
Nsg48
I459
sg66
I36
sg67
g739
sg69
Nsg101
g26
sg71
g704
sg72
g6
(S'\x07\xe1\x07\x06\x10\x15$\x08\xb3/'
p935
tp936
Rp937
sg76
g6
(S'\x07\xe1\x07\x06\x11\n(\t\xaa\xa6'
p938
tp939
Rp940
sg23
S'5-1'
p941
sba(iopmop.models.task
HaulageTask
p942
(dp943
g70
Nsg48
I386
sg66
I34
sg67
g739
sg69
Nsg101
g26
sg71
g704
sg72
g6
(S'\x07\xe1\x07\x06\t*(\x0b_\xfd'
p944
tp945
Rp946
sg76
g6
(S'\x07\xe1\x07\x06\n\x19\x15\x07}\xba'
p947
tp948
Rp949
sg23
S'5-1'
p950
sbasg48
I5263
sg163
F0.0
sg164
g694
sg165
F-378.5857408253278
sg166
g6
(S'\x07\xe1\x07\x06\x00\x00\x00\x00\x00\x00'
p951
tp952
Rp953
sg170
I01
sg171
F2177.0
sg23
I5
sba(iopmop.models.schedule
Schedule
p954
(dp955
g62
(lp956
sg48
I5263
sg163
I5263
sg164
g694
sg165
I5263
sg166
g6
(S'\x07\xe1\x07\x07\x00\x00\x00\x00\x00\x00'
p957
tp958
Rp959
sg170
I00
sg171
I5263
sg23
I6
sba(iopmop.models.schedule
Schedule
p960
(dp961
g62
(lp962
sg48
I5263
sg163
I5263
sg164
g694
sg165
I5263
sg166
g6
(S'\x07\xe1\x07\x08\x00\x00\x00\x00\x00\x00'
p963
tp964
Rp965
sg170
I00
sg171
I5263
sg23
I7
sba(iopmop.models.schedule
Schedule
p966
(dp967
g62
(lp968
sg48
I5263
sg163
I5263
sg164
g694
sg165
I5263
sg166
g6
(S'\x07\xe1\x07\t\x00\x00\x00\x00\x00\x00'
p969
tp970
Rp971
sg170
I00
sg171
I5263
sg23
I8
sba(iopmop.models.schedule
Schedule
p972
(dp973
g62
(lp974
sg48
I5263
sg163
I5263
sg164
g694
sg165
I5263
sg166
g6
(S'\x07\xe1\x07\n\x00\x00\x00\x00\x00\x00'
p975
tp976
Rp977
sg170
I00
sg171
I5263
sg23
I9
sba(iopmop.models.schedule
Schedule
p978
(dp979
g62
(lp980
sg48
I5263
sg163
I5263
sg164
g694
sg165
I5263
sg166
g6
(S'\x07\xe1\x07\x0b\x00\x00\x00\x00\x00\x00'
p981
tp982
Rp983
sg170
I00
sg171
I5263
sg23
I10
sba(iopmop.models.schedule
Schedule
p984
(dp985
g62
(lp986
sg48
I5263
sg163
I5263
sg164
g694
sg165
I5263
sg166
g6
(S'\x07\xe1\x07\x0c\x00\x00\x00\x00\x00\x00'
p987
tp988
Rp989
sg170
I00
sg171
I5263
sg23
I11
sba(iopmop.models.schedule
Schedule
p990
(dp991
g62
(lp992
sg48
I5263
sg163
I5263
sg164
g694
sg165
I5263
sg166
g6
(S'\x07\xe1\x07\r\x00\x00\x00\x00\x00\x00'
p993
tp994
Rp995
sg170
I00
sg171
I5263
sg23
I12
sba(iopmop.models.schedule
Schedule
p996
(dp997
g62
(lp998
sg48
I5263
sg163
I5263
sg164
g694
sg165
I5263
sg166
g6
(S'\x07\xe1\x07\x0e\x00\x00\x00\x00\x00\x00'
p999
tp1000
Rp1001
sg170
I00
sg171
I5263
sg23
I13
sba(iopmop.models.schedule
Schedule
p1002
(dp1003
g62
(lp1004
sg48
I5263
sg163
I5263
sg164
g694
sg165
I5263
sg166
g6
(S'\x07\xe1\x07\x0f\x00\x00\x00\x00\x00\x00'
p1005
tp1006
Rp1007
sg170
I00
sg171
I5263
sg23
I14
sba(iopmop.models.schedule
Schedule
p1008
(dp1009
g62
(lp1010
sg48
I5263
sg163
I5263
sg164
g694
sg165
I5263
sg166
g6
(S'\x07\xe1\x07\x10\x00\x00\x00\x00\x00\x00'
p1011
tp1012
Rp1013
sg170
I00
sg171
I5263
sg23
I15
sba(iopmop.models.schedule
Schedule
p1014
(dp1015
g62
(lp1016
sg48
I5263
sg163
I5263
sg164
g694
sg165
I5263
sg166
g6
(S'\x07\xe1\x07\x11\x00\x00\x00\x00\x00\x00'
p1017
tp1018
Rp1019
sg170
I00
sg171
I5263
sg23
I16
sba(iopmop.models.schedule
Schedule
p1020
(dp1021
g62
(lp1022
sg48
I5263
sg163
I5263
sg164
g694
sg165
I5263
sg166
g6
(S'\x07\xe1\x07\x12\x00\x00\x00\x00\x00\x00'
p1023
tp1024
Rp1025
sg170
I00
sg171
I5263
sg23
I17
sba(iopmop.models.schedule
Schedule
p1026
(dp1027
g62
(lp1028
sg48
I5263
sg163
I5263
sg164
g694
sg165
I5263
sg166
g6
(S'\x07\xe1\x07\x13\x00\x00\x00\x00\x00\x00'
p1029
tp1030
Rp1031
sg170
I00
sg171
I5263
sg23
I18
sbasg23
I2
sg693
I19
sbasS'machines'
p1032
(lp1033
(iopmop.models.machine
Shovel
p1034
(dp1035
S'weightCapacity'
p1036
I55
sS'weight'
p1037
I1867
sg14
(iopmop.models.point
Point
p1038
(dp1039
g17
F40.519030435813804
sg18
I3
sg19
F-112.15059865197139
sg20
I140
sbsS'speed'
p1040
I20
sS'staticFuelConsumption'
p1041
I94
sS'isAvailable'
p1042
I01
sS'fuelConsumption'
p1043
I196
sS'model'
p1044
S'SHV0'
p1045
sS'fuelCapacity'
p1046
I9683
sg23
I0
sba(iopmop.models.machine
Shovel
p1047
(dp1048
g1036
I57
sg1037
I1536
sg14
(iopmop.models.point
Point
p1049
(dp1050
g17
F40.53019297078088
sg18
I1
sg19
F-112.14367184586331
sg20
I131
sbsg1040
I19
sg1041
I82
sg1042
I01
sg1043
I195
sg1044
S'SHV1'
p1051
sg1046
I10944
sg23
I1
sba(iopmop.models.machine
Shovel
p1052
(dp1053
g1036
I80
sg1037
I1535
sg14
(iopmop.models.point
Point
p1054
(dp1055
g17
F40.52138128720112
sg18
I30
sg19
F-112.12869095919694
sg20
I179
sbsg1040
I18
sg1041
I95
sg1042
I01
sg1043
I171
sg1044
S'SHV2'
p1056
sg1046
I10332
sg23
I2
sba(iopmop.models.machine
Shovel
p1057
(dp1058
g1036
I67
sg1037
I1793
sg14
(iopmop.models.point
Point
p1059
(dp1060
g17
F40.53168320699514
sg18
I1
sg19
F-112.14108619637295
sg20
I238
sbsg1040
I14
sg1041
I118
sg1042
I01
sg1043
I191
sg1044
S'SHV3'
p1061
sg1046
I10593
sg23
I3
sba(iopmop.models.machine
Shovel
p1062
(dp1063
g1036
I68
sg1037
I1554
sg14
(iopmop.models.point
Point
p1064
(dp1065
g17
F40.51674367004452
sg18
I8
sg19
F-112.15372610635563
sg20
I130
sbsg1040
I16
sg1041
I113
sg1042
I01
sg1043
I180
sg1044
S'SHV4'
p1066
sg1046
I9876
sg23
I4
sba(iopmop.models.machine
Shovel
p1067
(dp1068
g1036
I71
sg1037
I1836
sg14
(iopmop.models.point
Point
p1069
(dp1070
g17
F40.523770911584855
sg18
I6
sg19
F-112.14899067669228
sg20
I94
sbsg1040
I17
sg1041
I106
sg1042
I01
sg1043
I174
sg1044
S'SHV5'
p1071
sg1046
I11166
sg23
I5
sba(iopmop.models.machine
Shovel
p1072
(dp1073
g1036
I59
sg1037
I1693
sg14
(iopmop.models.point
Point
p1074
(dp1075
g17
F40.525151201835214
sg18
I7
sg19
F-112.15401847356003
sg20
I102
sbsg1040
I19
sg1041
I101
sg1042
I01
sg1043
I154
sg1044
S'SHV6'
p1076
sg1046
I8085
sg23
I6
sba(iopmop.models.machine
Shovel
p1077
(dp1078
g1036
I53
sg1037
I1894
sg14
(iopmop.models.point
Point
p1079
(dp1080
g17
F40.517122510265644
sg18
I7
sg19
F-112.15331366397902
sg20
I129
sbsg1040
I17
sg1041
I112
sg1042
I01
sg1043
I172
sg1044
S'SHV7'
p1081
sg1046
I10352
sg23
I7
sba(iopmop.models.machine
Shovel
p1082
(dp1083
g1036
I76
sg1037
I1995
sg14
(iopmop.models.point
Point
p1084
(dp1085
g17
F40.521600289092895
sg18
I3
sg19
F-112.15016361369356
sg20
I87
sbsg1040
I14
sg1041
I88
sg1042
I01
sg1043
I170
sg1044
S'SHV8'
p1086
sg1046
I9852
sg23
I8
sba(iopmop.models.machine
Shovel
p1087
(dp1088
g1036
I63
sg1037
I1955
sg14
(iopmop.models.point
Point
p1089
(dp1090
g17
F40.5224649901301
sg18
I5
sg19
F-112.15391785781912
sg20
I71
sbsg1040
I19
sg1041
I86
sg1042
I01
sg1043
I174
sg1044
S'SHV9'
p1091
sg1046
I8842
sg23
I9
sba(iopmop.models.machine
Loader
p1092
(dp1093
g1036
I43
sg1037
I321115
sg14
(iopmop.models.point
Point
p1094
(dp1095
g17
F40.527495276494996
sg18
I9
sg19
F-112.13205314204737
sg20
I158
sbsg1040
I50
sg1041
I104
sg1042
I01
sg1043
I172
sg1044
S'LOD10'
p1096
sg1046
I11122
sg23
I10
sba(iopmop.models.machine
Loader
p1097
(dp1098
g1036
I57
sg1037
I352205
sg14
(iopmop.models.point
Point
p1099
(dp1100
g17
F40.527766933963264
sg18
I4
sg19
F-112.13397834248349
sg20
I237
sbsg1040
I44
sg1041
I106
sg1042
I01
sg1043
I160
sg1044
S'LOD11'
p1101
sg1046
I9790
sg23
I11
sba(iopmop.models.machine
Loader
p1102
(dp1103
g1036
I28
sg1037
I331252
sg14
(iopmop.models.point
Point
p1104
(dp1105
g17
F40.52239060498719
sg18
I1
sg19
F-112.15284768290326
sg20
I67
sbsg1040
I45
sg1041
I104
sg1042
I01
sg1043
I154
sg1044
S'LOD12'
p1106
sg1046
I10737
sg23
I12
sba(iopmop.models.machine
Loader
p1107
(dp1108
g1036
I59
sg1037
I303193
sg14
(iopmop.models.point
Point
p1109
(dp1110
g17
F40.5226281282086
sg18
I2
sg19
F-112.15311724145829
sg20
I68
sbsg1040
I43
sg1041
I103
sg1042
I01
sg1043
I158
sg1044
S'LOD13'
p1111
sg1046
I11590
sg23
I13
sba(iopmop.models.machine
Loader
p1112
(dp1113
g1036
I55
sg1037
I396824
sg14
(iopmop.models.point
Point
p1114
(dp1115
g17
F40.51024793425604
sg18
I11
sg19
F-112.15380523152157
sg20
I208
sbsg1040
I44
sg1041
I81
sg1042
I01
sg1043
I167
sg1044
S'LOD14'
p1116
sg1046
I11553
sg23
I14
sba(iopmop.models.machine
Loader
p1117
(dp1118
g1036
I48
sg1037
I363853
sg14
(iopmop.models.point
Point
p1119
(dp1120
g17
F40.5198868051858
sg18
I1
sg19
F-112.15163398332402
sg20
I145
sbsg1040
I42
sg1041
I98
sg1042
I01
sg1043
I189
sg1044
S'LOD15'
p1121
sg1046
I11868
sg23
I15
sba(iopmop.models.machine
Loader
p1122
(dp1123
g1036
I45
sg1037
I391189
sg14
(iopmop.models.point
Point
p1124
(dp1125
g17
F40.522401756342724
sg18
I9
sg19
F-112.14671092504932
sg20
I42
sbsg1040
I47
sg1041
I89
sg1042
I01
sg1043
I195
sg1044
S'LOD16'
p1126
sg1046
I11776
sg23
I16
sba(iopmop.models.machine
Loader
p1127
(dp1128
g1036
I36
sg1037
I386999
sg14
g1109
sg1040
I41
sg1041
I98
sg1042
I01
sg1043
I187
sg1044
S'LOD17'
p1129
sg1046
I11008
sg23
I17
sba(iopmop.models.machine
Loader
p1130
(dp1131
g1036
I27
sg1037
I348307
sg14
(iopmop.models.point
Point
p1132
(dp1133
g17
F40.52006316199804
sg18
I6
sg19
F-112.1561893718432
sg20
I110
sbsg1040
I40
sg1041
I89
sg1042
I01
sg1043
I185
sg1044
S'LOD18'
p1134
sg1046
I9441
sg23
I18
sba(iopmop.models.machine
Loader
p1135
(dp1136
g1036
I60
sg1037
I319233
sg14
(iopmop.models.point
Point
p1137
(dp1138
g17
F40.519089564731466
sg18
I3
sg19
F-112.15094331622777
sg20
I147
sbsg1040
I44
sg1041
I108
sg1042
I01
sg1043
I195
sg1044
S'LOD19'
p1139
sg1046
I9266
sg23
I19
sba(iopmop.models.machine
Truck
p1140
(dp1141
g1036
I450
sg1037
I334
sg14
g28
sg1040
I46
sg1041
I93
sg1042
I01
sg1043
I192
sg1044
S'TRK20'
p1142
sg1046
I10116
sg23
I20
sba(iopmop.models.machine
Truck
p1143
(dp1144
g1036
I360
sg1037
I282
sg14
(iopmop.models.point
Point
p1145
(dp1146
g17
F40.53062720171753
sg18
I1
sg19
F-112.14591685480877
sg20
I74
sbsg1040
I49
sg1041
I105
sg1042
I01
sg1043
I151
sg1044
S'TRK21'
p1147
sg1046
I8687
sg23
I21
sba(iopmop.models.machine
Truck
p1148
(dp1149
g1036
I456
sg1037
I308
sg14
(iopmop.models.point
Point
p1150
(dp1151
g17
F40.52268929737417
sg18
I2
sg19
F-112.1483978964535
sg20
I65
sbsg1040
I46
sg1041
I83
sg1042
I01
sg1043
I154
sg1044
S'TRK22'
p1152
sg1046
I10661
sg23
I22
sba(iopmop.models.machine
Truck
p1153
(dp1154
g1036
I420
sg1037
I397
sg14
(iopmop.models.point
Point
p1155
(dp1156
g17
F40.528383625142695
sg18
I2
sg19
F-112.15034251342354
sg20
I82
sbsg1040
I46
sg1041
I82
sg1042
I01
sg1043
I161
sg1044
S'TRK23'
p1157
sg1046
I9910
sg23
I23
sba(iopmop.models.machine
Truck
p1158
(dp1159
g1036
I361
sg1037
I268
sg14
(iopmop.models.point
Point
p1160
(dp1161
g17
F40.52308178440836
sg18
I2
sg19
F-112.15494785501107
sg20
I143
sbsg1040
I48
sg1041
I100
sg1042
I01
sg1043
I167
sg1044
S'TRK24'
p1162
sg1046
I10577
sg23
I24
sba(iopmop.models.machine
Truck
p1163
(dp1164
g1036
I494
sg1037
I352
sg14
(iopmop.models.point
Point
p1165
(dp1166
g17
F40.523236476427776
sg18
I11
sg19
F-112.14844135713713
sg20
I44
sbsg1040
I42
sg1041
I110
sg1042
I01
sg1043
I168
sg1044
S'TRK25'
p1167
sg1046
I8369
sg23
I25
sba(iopmop.models.machine
Truck
p1168
(dp1169
g1036
I397
sg1037
I265
sg14
(iopmop.models.point
Point
p1170
(dp1171
g17
F40.52876182355014
sg18
I1
sg19
F-112.14954320139691
sg20
I81
sbsg1040
I43
sg1041
I108
sg1042
I01
sg1043
I161
sg1044
S'TRK26'
p1172
sg1046
I8525
sg23
I26
sba(iopmop.models.machine
Truck
p1173
(dp1174
g1036
I385
sg1037
I311
sg14
(iopmop.models.point
Point
p1175
(dp1176
g17
F40.525908608790786
sg18
I4
sg19
F-112.14826781586851
sg20
I92
sbsg1040
I44
sg1041
I105
sg1042
I01
sg1043
I171
sg1044
S'TRK27'
p1177
sg1046
I8324
sg23
I27
sba(iopmop.models.machine
Truck
p1178
(dp1179
g1036
I414
sg1037
I322
sg14
(iopmop.models.point
Point
p1180
(dp1181
g17
F40.519697181358865
sg18
I3
sg19
F-112.15714458174511
sg20
I122
sbsg1040
I46
sg1041
I120
sg1042
I01
sg1043
I173
sg1044
S'TRK28'
p1182
sg1046
I8128
sg23
I28
sba(iopmop.models.machine
Truck
p1183
(dp1184
g1036
I428
sg1037
I391
sg14
g1074
sg1040
I40
sg1041
I104
sg1042
I01
sg1043
I176
sg1044
S'TRK29'
p1185
sg1046
I9392
sg23
I29
sba(iopmop.models.machine
Truck
p1186
(dp1187
g1036
I435
sg1037
I346
sg14
(iopmop.models.point
Point
p1188
(dp1189
g17
F40.5229309078227
sg18
I3
sg19
F-112.15563986248776
sg20
I144
sbsg1040
I47
sg1041
I110
sg1042
I01
sg1043
I187
sg1044
S'TRK30'
p1190
sg1046
I10776
sg23
I30
sba(iopmop.models.machine
Truck
p1191
(dp1192
g1036
I498
sg1037
I345
sg14
g1155
sg1040
I47
sg1041
I91
sg1042
I01
sg1043
I161
sg1044
S'TRK31'
p1193
sg1046
I10455
sg23
I31
sba(iopmop.models.machine
Truck
p1194
(dp1195
g1036
I389
sg1037
I318
sg14
(iopmop.models.point
Point
p1196
(dp1197
g17
F40.52278077980013
sg18
I4
sg19
F-112.14704006285734
sg20
I37
sbsg1040
I46
sg1041
I109
sg1042
I01
sg1043
I190
sg1044
S'TRK32'
p1198
sg1046
I9953
sg23
I32
sba(iopmop.models.machine
Truck
p1199
(dp1200
g1036
I437
sg1037
I325
sg14
(iopmop.models.point
Point
p1201
(dp1202
g17
F40.524900429038105
sg18
I8
sg19
F-112.15478156110925
sg20
I103
sbsg1040
I41
sg1041
I84
sg1042
I01
sg1043
I194
sg1044
S'TRK33'
p1203
sg1046
I10666
sg23
I33
sba(iopmop.models.machine
Truck
p1204
(dp1205
g1036
I386
sg1037
I344
sg14
(iopmop.models.point
Point
p1206
(dp1207
g17
F40.528875990263
sg18
I8
sg19
F-112.13703606076047
sg20
I245
sbsg1040
I50
sg1041
I84
sg1042
I01
sg1043
I155
sg1044
S'TRK34'
p1208
sg1046
I11632
sg23
I34
sba(iopmop.models.machine
Truck
p1209
(dp1210
g1036
I373
sg1037
I296
sg14
(iopmop.models.point
Point
p1211
(dp1212
g17
F40.52406145192949
sg18
I1
sg19
F-112.14723784274861
sg20
I89
sbsg1040
I48
sg1041
I111
sg1042
I01
sg1043
I158
sg1044
S'TRK35'
p1213
sg1046
I8387
sg23
I35
sba(iopmop.models.machine
Truck
p1214
(dp1215
g1036
I459
sg1037
I388
sg14
(iopmop.models.point
Point
p1216
(dp1217
g17
F40.51310284647761
sg18
I2
sg19
F-112.1382324030725
sg20
I231
sbsg1040
I43
sg1041
I87
sg1042
I01
sg1043
I192
sg1044
S'TRK36'
p1218
sg1046
I10988
sg23
I36
sba(iopmop.models.machine
Truck
p1219
(dp1220
g1036
I423
sg1037
I301
sg14
g1119
sg1040
I40
sg1041
I103
sg1042
I01
sg1043
I165
sg1044
S'TRK37'
p1221
sg1046
I10097
sg23
I37
sba(iopmop.models.machine
Truck
p1222
(dp1223
g1036
I429
sg1037
I276
sg14
g1196
sg1040
I41
sg1041
I112
sg1042
I01
sg1043
I179
sg1044
S'TRK38'
p1224
sg1046
I8036
sg23
I38
sba(iopmop.models.machine
Truck
p1225
(dp1226
g1036
I493
sg1037
I351
sg14
g1180
sg1040
I46
sg1041
I106
sg1042
I01
sg1043
I186
sg1044
S'TRK39'
p1227
sg1046
I10577
sg23
I39
sba(iopmop.models.machine
Truck
p1228
(dp1229
g1036
I470
sg1037
I389
sg14
g1160
sg1040
I43
sg1041
I107
sg1042
I01
sg1043
I185
sg1044
S'TRK40'
p1230
sg1046
I11457
sg23
I40
sba(iopmop.models.machine
Truck
p1231
(dp1232
g1036
I461
sg1037
I266
sg14
(iopmop.models.point
Point
p1233
(dp1234
g17
F40.523754599861704
sg18
I3
sg19
F-112.15259822802483
sg20
I69
sbsg1040
I48
sg1041
I112
sg1042
I01
sg1043
I173
sg1044
S'TRK41'
p1235
sg1046
I8555
sg23
I41
sba(iopmop.models.machine
Truck
p1236
(dp1237
g1036
I403
sg1037
I389
sg14
(iopmop.models.point
Point
p1238
(dp1239
g17
F40.52108109681687
sg18
I6
sg19
F-112.15296835079641
sg20
I72
sbsg1040
I50
sg1041
I105
sg1042
I01
sg1043
I173
sg1044
S'TRK42'
p1240
sg1046
I9770
sg23
I42
sba(iopmop.models.machine
Truck
p1241
(dp1242
g1036
I494
sg1037
I375
sg14
(iopmop.models.point
Point
p1243
(dp1244
g17
F40.50937149461206
sg18
I7
sg19
F-112.1428325575697
sg20
I204
sbsg1040
I41
sg1041
I85
sg1042
I01
sg1043
I177
sg1044
S'TRK43'
p1245
sg1046
I9339
sg23
I43
sba(iopmop.models.machine
Truck
p1246
(dp1247
g1036
I466
sg1037
I382
sg14
(iopmop.models.point
Point
p1248
(dp1249
g17
F40.5223991989187
sg18
I20
sg19
F-112.15192519721535
sg20
I53
sbsg1040
I49
sg1041
I95
sg1042
I01
sg1043
I152
sg1044
S'TRK44'
p1250
sg1046
I9990
sg23
I44
sba(iopmop.models.machine
Truck
p1251
(dp1252
g1036
I450
sg1037
I322
sg14
(iopmop.models.point
Point
p1253
(dp1254
g17
F40.52196651518252
sg18
I15
sg19
F-112.15500686116025
sg20
I119
sbsg1040
I42
sg1041
I105
sg1042
I01
sg1043
I170
sg1044
S'TRK45'
p1255
sg1046
I11080
sg23
I45
sba(iopmop.models.machine
Truck
p1256
(dp1257
g1036
I431
sg1037
I294
sg14
g1104
sg1040
I40
sg1041
I95
sg1042
I01
sg1043
I183
sg1044
S'TRK46'
p1258
sg1046
I8464
sg23
I46
sba(iopmop.models.machine
Truck
p1259
(dp1260
g1036
I482
sg1037
I363
sg14
(iopmop.models.point
Point
p1261
(dp1262
g17
F40.52505944774498
sg18
I5
sg19
F-112.1482852548599
sg20
I93
sbsg1040
I43
sg1041
I94
sg1042
I01
sg1043
I199
sg1044
S'TRK47'
p1263
sg1046
I10797
sg23
I47
sba(iopmop.models.machine
Truck
p1264
(dp1265
g1036
I435
sg1037
I250
sg14
g1084
sg1040
I48
sg1041
I86
sg1042
I01
sg1043
I197
sg1044
S'TRK48'
p1266
sg1046
I9029
sg23
I48
sba(iopmop.models.machine
Truck
p1267
(dp1268
g1036
I411
sg1037
I385
sg14
(iopmop.models.point
Point
p1269
(dp1270
g17
F40.52503778607846
sg18
I2
sg19
F-112.14760965944618
sg20
I90
sbsg1040
I49
sg1041
I118
sg1042
I01
sg1043
I183
sg1044
S'TRK49'
p1271
sg1046
I10910
sg23
I49
sbasS'locations'
p1272
(lp1273
(iopmop.models.location
Location
p1274
(dp1275
g14
(iopmop.models.point
Point
p1276
(dp1277
g17
F40.51938419908192
sg18
I2
sg19
F-112.15045850678587
sg20
I139
sbsg21
g56
sg23
I0
sg24
S'Site0'
p1278
sbag52
ag704
a(iopmop.models.location
Location
p1279
(dp1280
g14
g1069
sg21
g56
sg23
I3
sg24
S'Site3'
p1281
sba(iopmop.models.location
Location
p1282
(dp1283
g14
g1038
sg21
g56
sg23
I4
sg24
S'Site4'
p1284
sbag12
ag26
ag31
ag36
ag39
a(iopmop.models.location
Location
p1285
(dp1286
g14
(iopmop.models.point
Point
p1287
(dp1288
g17
F40.52827708825454
sg18
I4
sg19
F-112.15161898771271
sg20
I99
sbsg21
S'fuel'
p1289
sg23
I10
sg24
S'Fuel10'
p1290
sba(iopmop.models.location
Location
p1291
(dp1292
g14
(iopmop.models.point
Point
p1293
(dp1294
g17
F40.523840237856376
sg18
I4
sg19
F-112.15156826920315
sg20
I84
sbsg21
g1289
sg23
I11
sg24
S'Fuel11'
p1295
sbas.