(dp0
S'missions'
p1
(lp2
(iopmop.models.mission
Mission
p3
(dp4
S'startDate'
p5
cdatetime
datetime
p6
(S'\x07\xe1\x06\x01\x00\x00\x00\x00\x00\x00'
p7
tp8
Rp9
sS'dumpLocations'
p10
(lp11
(iopmop.models.location
Location
p12
(dp13
S'point'
p14
(iopmop.models.point
Point
p15
(dp16
S'lat'
p17
F40.520529070040396
sS'index'
p18
I6
sS'lng'
p19
F-112.14105938451621
sS'nid'
p20
I136
sbsS'type'
p21
S'dump'
p22
sS'id'
p23
I5
sS'name'
p24
S'Dump5'
p25
sba(iopmop.models.location
Location
p26
(dp27
g14
(iopmop.models.point
Point
p28
(dp29
g17
F40.52345285661486
sg18
I3
sg19
F-112.14888069577023
sg20
I66
sbsg21
g22
sg23
I6
sg24
S'Dump6'
p30
sba(iopmop.models.location
Location
p31
(dp32
g14
(iopmop.models.point
Point
p33
(dp34
g17
F40.519030435813804
sg18
I3
sg19
F-112.15059865197139
sg20
I140
sbsg21
g22
sg23
I7
sg24
S'Dump7'
p35
sba(iopmop.models.location
Location
p36
(dp37
g14
(iopmop.models.point
Point
p38
(dp39
g17
F40.528013668947594
sg18
I2
sg19
F-112.13682424128115
sg20
I151
sbsg21
g22
sg23
I8
sg24
S'Dump8'
p40
sba(iopmop.models.location
Location
p41
(dp42
g14
(iopmop.models.point
Point
p43
(dp44
g17
F40.52359965398034
sg18
I1
sg19
F-112.1546206230621
sg20
I142
sbsg21
g22
sg23
I9
sg24
S'Dump9'
p45
sbasS'endDate'
p46
g6
(S'\x07\xe1\x06\x1e\x00\x00\x00\x00\x00\x00'
p47
tp48
Rp49
sS'target'
p50
I80000
sS'title'
p51
S'Iron min'
p52
sS'digLocation'
p53
(iopmop.models.location
Location
p54
(dp55
g14
(iopmop.models.point
Point
p56
(dp57
g17
F40.523770911584855
sg18
I6
sg19
F-112.14899067669228
sg20
I94
sbsg21
S'dig'
p58
sg23
I1
sg24
S'Site1'
p59
sbsS'schedules'
p60
(lp61
(iopmop.models.schedule
Schedule
p62
(dp63
S'tasks'
p64
(lp65
(iopmop.models.task
DigTask
p66
(dp67
g50
F2758.0
sS'machineId'
p68
I9
sS'comments'
p69
S'None'
p70
sS'actualTarget'
p71
NsS'cost'
p72
NsS'location'
p73
g54
sS'startTime'
p74
g6
(S'\x07\xe1\x06\x01\t\x00\x00\x00\x00\x00'
p75
tp76
Rp77
sS'endTime'
p78
g6
(S'\x07\xe1\x06\x01\x0e\x0b.\x01r\x15'
p79
tp80
Rp81
sg23
S'0-0'
p82
sba(iopmop.models.task
LoadTask
p83
(dp84
g50
F3417.0
sg68
I15
sg69
g70
sg71
Nsg72
Nsg73
g54
sg74
g6
(S'\x07\xe1\x06\x01\t\x00\x00\x00\x00\x00'
p85
tp86
Rp87
sg78
g6
(S'\x07\xe1\x06\x01\r\x06\x00\x00\x00\x00'
p88
tp89
Rp90
sg23
S'0-0'
p91
sba(iopmop.models.task
HaulageTask
p92
(dp93
g72
Nsg50
I452
sg68
I47
sg69
g70
sg71
NsS'dumpLocation'
p94
g31
sg73
g54
sg74
g6
(S'\x07\xe1\x06\x01\t(6\x0en\x0c'
p95
tp96
Rp97
sg78
g6
(S'\x07\xe1\x06\x01\n\x01\x16\x06b\xd2'
p98
tp99
Rp100
sg23
S'0-1'
p101
sba(iopmop.models.task
HaulageTask
p102
(dp103
g72
Nsg50
I382
sg68
I34
sg69
g70
sg71
Nsg94
g31
sg73
g54
sg74
g6
(S'\x07\xe1\x06\x01\n\x06\x05\x04a\x8c'
p104
tp105
Rp106
sg78
g6
(S'\x07\xe1\x06\x01\n\x1c\x07\x00\xc1P'
p107
tp108
Rp109
sg23
S'0-1'
p110
sba(iopmop.models.task
HaulageTask
p111
(dp112
g72
Nsg50
I351
sg68
I41
sg69
g70
sg71
Nsg94
g31
sg73
g54
sg74
g6
(S'\x07\xe1\x06\x01\n-\x11\x06\xbe6'
p113
tp114
Rp115
sg78
g6
(S'\x07\xe1\x06\x01\x0b\x06\x14\x0e1\xf4'
p116
tp117
Rp118
sg23
S'0-1'
p119
sba(iopmop.models.task
HaulageTask
p120
(dp121
g72
Nsg50
I385
sg68
I25
sg69
g70
sg71
Nsg94
g31
sg73
g54
sg74
g6
(S'\x07\xe1\x06\x01\x0b\x06)\x0e*\xb0'
p122
tp123
Rp124
sg78
g6
(S'\x07\xe1\x06\x01\x0b\x1b0\r\xfc\x18'
p125
tp126
Rp127
sg23
S'0-1'
p128
sba(iopmop.models.task
HaulageTask
p129
(dp130
g72
Nsg50
I442
sg68
I28
sg69
g70
sg71
Nsg94
g31
sg73
g54
sg74
g6
(S'\x07\xe1\x06\x01\x0b#\t\x0c,\x0b'
p131
tp132
Rp133
sg78
g6
(S'\x07\xe1\x06\x01\x0b9\x13\x0b\xbb('
p134
tp135
Rp136
sg23
S'0-1'
p137
sba(iopmop.models.task
HaulageTask
p138
(dp139
g72
Nsg50
I452
sg68
I47
sg69
g70
sg71
Nsg94
g31
sg73
g54
sg74
g6
(S'\x07\xe1\x06\x01\x0c\x04\x07\x03\xe66'
p140
tp141
Rp142
sg78
g6
(S'\x07\xe1\x06\x01\x0c\x18"\x0b\x1d<'
p143
tp144
Rp145
sg23
S'0-1'
p146
sba(iopmop.models.task
HaulageTask
p147
(dp148
g72
Nsg50
I382
sg68
I34
sg69
g70
sg71
Nsg94
g31
sg73
g54
sg74
g6
(S'\x07\xe1\x06\x01\x0c(\x11\t\x84h'
p149
tp150
Rp151
sg78
g6
(S'\x07\xe1\x06\x01\r\x02\x13\x05\xe4,'
p152
tp153
Rp154
sg23
S'0-1'
p155
sbasg50
I2758
sS'remainingDig'
p156
F0.0
sS'mission'
p157
g3
sS'remainingLoad'
p158
F-659.0
sS'date'
p159
g6
(S'\x07\xe1\x06\x01\x00\x00\x00\x00\x00\x00'
p160
tp161
Rp162
sS'allocated'
p163
I01
sS'remainingHaulage'
p164
F-88.0
sg23
I0
sba(iopmop.models.schedule
Schedule
p165
(dp166
g64
(lp167
(iopmop.models.task
DigTask
p168
(dp169
g50
F2758.0
sg68
I9
sg69
g70
sg71
Nsg72
Nsg73
g54
sg74
g6
(S'\x07\xe1\x06\x02\t\x00\x00\x00\x00\x00'
p170
tp171
Rp172
sg78
g6
(S'\x07\xe1\x06\x02\x0e\x0b.\x01r\x15'
p173
tp174
Rp175
sg23
S'1-0'
p176
sba(iopmop.models.task
LoadTask
p177
(dp178
g50
F3417.0
sg68
I15
sg69
g70
sg71
Nsg72
Nsg73
g54
sg74
g6
(S'\x07\xe1\x06\x02\t\x00\x00\x00\x00\x00'
p179
tp180
Rp181
sg78
g6
(S'\x07\xe1\x06\x02\r\x06\x00\x00\x00\x00'
p182
tp183
Rp184
sg23
S'1-0'
p185
sba(iopmop.models.task
HaulageTask
p186
(dp187
g72
Nsg50
I351
sg68
I41
sg69
g70
sg71
Nsg94
g31
sg73
g54
sg74
g6
(S'\x07\xe1\x06\x02\t*\x06\x0e\xe7|'
p188
tp189
Rp190
sg78
g6
(S'\x07\xe1\x06\x02\n\x03\n\x07\x18\xfa'
p191
tp192
Rp193
sg23
S'1-1'
p194
sba(iopmop.models.task
HaulageTask
p195
(dp196
g72
Nsg50
I385
sg68
I25
sg69
g70
sg71
Nsg94
g31
sg73
g54
sg74
g6
(S'\x07\xe1\x06\x02\n\x03\x14\x0e\xb6x'
p197
tp198
Rp199
sg78
g6
(S'\x07\xe1\x06\x02\n\x18\x1b\x0e\x87\xe0'
p200
tp201
Rp202
sg23
S'1-1'
p203
sba(iopmop.models.task
HaulageTask
p204
(dp205
g72
Nsg50
I452
sg68
I47
sg69
g70
sg71
Nsg94
g31
sg73
g54
sg74
g6
(S'\x07\xe1\x06\x02\n*\x11\x05\x8e\x9e'
p206
tp207
Rp208
sg78
g6
(S'\x07\xe1\x06\x02\x0b\x02,\x0c\xc5\xa4'
p209
tp210
Rp211
sg23
S'1-1'
p212
sba(iopmop.models.task
HaulageTask
p213
(dp214
g72
Nsg50
I351
sg68
I41
sg69
g70
sg71
Nsg94
g31
sg73
g54
sg74
g6
(S'\x07\xe1\x06\x02\x0b\x06\x14\x0e1\xf4'
p215
tp216
Rp217
sg78
g6
(S'\x07\xe1\x06\x02\x0b\x1b\x18\x06cr'
p218
tp219
Rp220
sg23
S'1-1'
p221
sba(iopmop.models.task
HaulageTask
p222
(dp223
g72
Nsg50
I385
sg68
I25
sg69
g70
sg71
Nsg94
g31
sg73
g54
sg74
g6
(S'\x07\xe1\x06\x02\x0b\x1b0\r\xfc\x18'
p224
tp225
Rp226
sg78
g6
(S'\x07\xe1\x06\x02\x0b07\r\xcd\x80'
p227
tp228
Rp229
sg23
S'1-1'
p230
sba(iopmop.models.task
HaulageTask
p231
(dp232
g72
Nsg50
I442
sg68
I28
sg69
g70
sg71
Nsg94
g31
sg73
g54
sg74
g6
(S'\x07\xe1\x06\x02\x0b9\x13\x0b\xbb('
p233
tp234
Rp235
sg78
g6
(S'\x07\xe1\x06\x02\x0c\x13\x1d\x0bJE'
p236
tp237
Rp238
sg23
S'1-1'
p239
sba(iopmop.models.task
HaulageTask
p240
(dp241
g72
Nsg50
I452
sg68
I47
sg69
g70
sg71
Nsg94
g31
sg73
g54
sg74
g6
(S'\x07\xe1\x06\x02\x0c\x18"\x0b\x1d<'
p242
tp243
Rp244
sg78
g6
(S'\x07\xe1\x06\x02\x0c-\x02\x03\x12\x02'
p245
tp246
Rp247
sg23
S'1-1'
p248
sbasg50
I2758
sg156
F0.0
sg157
g3
sg158
F-659.0
sg159
g6
(S'\x07\xe1\x06\x02\x00\x00\x00\x00\x00\x00'
p249
tp250
Rp251
sg163
I01
sg164
F-60.0
sg23
I1
sba(iopmop.models.schedule
Schedule
p252
(dp253
g64
(lp254
sg50
I2758
sg156
I2758
sg157
g3
sg158
I2758
sg159
g6
(S'\x07\xe1\x06\x03\x00\x00\x00\x00\x00\x00'
p255
tp256
Rp257
sg163
I00
sg164
I2758
sg23
I2
sba(iopmop.models.schedule
Schedule
p258
(dp259
g64
(lp260
sg50
I2758
sg156
I2758
sg157
g3
sg158
I2758
sg159
g6
(S'\x07\xe1\x06\x04\x00\x00\x00\x00\x00\x00'
p261
tp262
Rp263
sg163
I00
sg164
I2758
sg23
I3
sba(iopmop.models.schedule
Schedule
p264
(dp265
g64
(lp266
sg50
I2758
sg156
I2758
sg157
g3
sg158
I2758
sg159
g6
(S'\x07\xe1\x06\x05\x00\x00\x00\x00\x00\x00'
p267
tp268
Rp269
sg163
I00
sg164
I2758
sg23
I4
sba(iopmop.models.schedule
Schedule
p270
(dp271
g64
(lp272
sg50
I2758
sg156
I2758
sg157
g3
sg158
I2758
sg159
g6
(S'\x07\xe1\x06\x06\x00\x00\x00\x00\x00\x00'
p273
tp274
Rp275
sg163
I00
sg164
I2758
sg23
I5
sba(iopmop.models.schedule
Schedule
p276
(dp277
g64
(lp278
sg50
I2758
sg156
I2758
sg157
g3
sg158
I2758
sg159
g6
(S'\x07\xe1\x06\x07\x00\x00\x00\x00\x00\x00'
p279
tp280
Rp281
sg163
I00
sg164
I2758
sg23
I6
sba(iopmop.models.schedule
Schedule
p282
(dp283
g64
(lp284
sg50
I2758
sg156
I2758
sg157
g3
sg158
I2758
sg159
g6
(S'\x07\xe1\x06\x08\x00\x00\x00\x00\x00\x00'
p285
tp286
Rp287
sg163
I00
sg164
I2758
sg23
I7
sba(iopmop.models.schedule
Schedule
p288
(dp289
g64
(lp290
sg50
I2758
sg156
I2758
sg157
g3
sg158
I2758
sg159
g6
(S'\x07\xe1\x06\t\x00\x00\x00\x00\x00\x00'
p291
tp292
Rp293
sg163
I00
sg164
I2758
sg23
I8
sba(iopmop.models.schedule
Schedule
p294
(dp295
g64
(lp296
(iopmop.models.task
DigTask
p297
(dp298
g50
F2758.0
sg68
I9
sg69
S'None'
p299
sg71
Nsg72
Nsg73
g54
sg74
g6
(S'\x07\xe1\x06\n\t\x00\x00\x00\x00\x00'
p300
tp301
Rp302
sg78
g6
(S'\x07\xe1\x06\n\x0e\x0b.\x01r\x15'
p303
tp304
Rp305
sg23
S'9-0'
p306
sba(iopmop.models.task
LoadTask
p307
(dp308
g50
F3417.0
sg68
I15
sg69
g299
sg71
Nsg72
Nsg73
g54
sg74
g6
(S'\x07\xe1\x06\n\t\x00\x00\x00\x00\x00'
p309
tp310
Rp311
sg78
g6
(S'\x07\xe1\x06\n\r\x06\x00\x00\x00\x00'
p312
tp313
Rp314
sg23
S'9-0'
p315
sba(iopmop.models.task
HaulageTask
p316
(dp317
g50
I442
sg68
I28
sg69
g299
sg94
g31
sg71
Nsg72
Nsg73
g54
sg74
g6
(S'\x07\xe1\x06\n\t,\x13\x0e`z'
p318
tp319
Rp320
sg78
g6
(S'\x07\xe1\x06\n\n\x06\x1d\r\xef\x97'
p321
tp322
Rp323
sg23
S'9-1'
p324
sba(iopmop.models.task
HaulageTask
p325
(dp326
g50
I452
sg68
I47
sg69
g299
sg94
g31
sg71
Nsg72
Nsg73
g54
sg74
g6
(S'\x07\xe1\x06\n\n\x151\r\x99\xd8'
p327
tp328
Rp329
sg78
g6
(S'\x07\xe1\x06\n\n*\x11\x05\x8e\x9e'
p330
tp331
Rp332
sg23
S'9-1'
p333
sba(iopmop.models.task
HaulageTask
p334
(dp335
g50
I319
sg68
I43
sg69
g299
sg94
g31
sg71
Nsg72
Nsg73
g54
sg74
g6
(S'\x07\xe1\x06\n\n11\x0c\x9bN'
p336
tp337
Rp338
sg78
g6
(S'\x07\xe1\x06\n\x0b\x0b/\x0c\x13\x84'
p339
tp340
Rp341
sg23
S'9-1'
p342
sba(iopmop.models.task
HaulageTask
p343
(dp344
g50
I382
sg68
I34
sg69
g299
sg94
g31
sg71
Nsg72
Nsg73
g54
sg74
g6
(S'\x07\xe1\x06\n\x0b\x0c\n\x08\xc3\x18'
p345
tp346
Rp347
sg78
g6
(S'\x07\xe1\x06\n\x0b"\x0c\x05"\xdc'
p348
tp349
Rp350
sg23
S'9-1'
p351
sba(iopmop.models.task
HaulageTask
p352
(dp353
g50
I316
sg68
I36
sg69
g299
sg94
g31
sg71
Nsg72
Nsg73
g54
sg74
g6
(S'\x07\xe1\x06\n\x0b"-\x02]\x1b'
p354
tp355
Rp356
sg78
g6
(S'\x07\xe1\x06\n\x0b83\t=\xa8'
p357
tp358
Rp359
sg23
S'9-1'
p360
sba(iopmop.models.task
HaulageTask
p361
(dp362
g50
I315
sg68
I30
sg69
g299
sg94
g31
sg71
Nsg72
Nsg73
g54
sg74
g6
(S'\x07\xe1\x06\n\x0c\x10,\x05\x9d\xc4'
p363
tp364
Rp365
sg78
g6
(S'\x07\xe1\x06\n\x0c&#\x0e\xb7\xa8'
p366
tp367
Rp368
sg23
S'9-1'
p369
sba(iopmop.models.task
HaulageTask
p370
(dp371
g50
I296
sg68
I23
sg69
g299
sg94
g31
sg71
Nsg72
Nsg73
g54
sg74
g6
(S'\x07\xe1\x06\n\x0c3\x08\x02\xaeO'
p372
tp373
Rp374
sg78
g6
(S'\x07\xe1\x06\n\r\x0c\x08\x0e\x05\x9c'
p375
tp376
Rp377
sg23
S'9-1'
p378
sba(iopmop.models.task
HaulageTask
p379
(dp380
g50
I351
sg68
I41
sg69
g299
sg94
g31
sg71
Nsg72
Nsg73
g54
sg74
g6
(S'\x07\xe1\x06\n\r\x0c)\r!\xa8'
p381
tp382
Rp383
sg78
g6
(S'\x07\xe1\x06\n\r!-\x05S&'
p384
tp385
Rp386
sg23
S'9-1'
p387
sbasg50
I2758
sg156
F0.0
sg157
g3
sg158
F-659.0
sg159
g6
(S'\x07\xe1\x06\n\x00\x00\x00\x00\x00\x00'
p388
tp389
Rp390
sg163
I01
sg164
F-115.0
sg23
I9
sba(iopmop.models.schedule
Schedule
p391
(dp392
g64
(lp393
sg50
I2758
sg156
I2758
sg157
g3
sg158
I2758
sg159
g6
(S'\x07\xe1\x06\x0b\x00\x00\x00\x00\x00\x00'
p394
tp395
Rp396
sg163
I00
sg164
I2758
sg23
I10
sba(iopmop.models.schedule
Schedule
p397
(dp398
g64
(lp399
sg50
I2758
sg156
I2758
sg157
g3
sg158
I2758
sg159
g6
(S'\x07\xe1\x06\x0c\x00\x00\x00\x00\x00\x00'
p400
tp401
Rp402
sg163
I00
sg164
I2758
sg23
I11
sba(iopmop.models.schedule
Schedule
p403
(dp404
g64
(lp405
sg50
I2758
sg156
I2758
sg157
g3
sg158
I2758
sg159
g6
(S'\x07\xe1\x06\r\x00\x00\x00\x00\x00\x00'
p406
tp407
Rp408
sg163
I00
sg164
I2758
sg23
I12
sba(iopmop.models.schedule
Schedule
p409
(dp410
g64
(lp411
sg50
I2758
sg156
I2758
sg157
g3
sg158
I2758
sg159
g6
(S'\x07\xe1\x06\x0e\x00\x00\x00\x00\x00\x00'
p412
tp413
Rp414
sg163
I00
sg164
I2758
sg23
I13
sba(iopmop.models.schedule
Schedule
p415
(dp416
g64
(lp417
sg50
I2758
sg156
I2758
sg157
g3
sg158
I2758
sg159
g6
(S'\x07\xe1\x06\x0f\x00\x00\x00\x00\x00\x00'
p418
tp419
Rp420
sg163
I00
sg164
I2758
sg23
I14
sba(iopmop.models.schedule
Schedule
p421
(dp422
g64
(lp423
sg50
I2758
sg156
I2758
sg157
g3
sg158
I2758
sg159
g6
(S'\x07\xe1\x06\x10\x00\x00\x00\x00\x00\x00'
p424
tp425
Rp426
sg163
I00
sg164
I2758
sg23
I15
sba(iopmop.models.schedule
Schedule
p427
(dp428
g64
(lp429
sg50
I2758
sg156
I2758
sg157
g3
sg158
I2758
sg159
g6
(S'\x07\xe1\x06\x11\x00\x00\x00\x00\x00\x00'
p430
tp431
Rp432
sg163
I00
sg164
I2758
sg23
I16
sba(iopmop.models.schedule
Schedule
p433
(dp434
g64
(lp435
(iopmop.models.task
DigTask
p436
(dp437
g50
F2758.0
sg68
I9
sg69
g299
sg71
Nsg72
Nsg73
g54
sg74
g6
(S'\x07\xe1\x06\x12\t\x00\x00\x00\x00\x00'
p438
tp439
Rp440
sg78
g6
(S'\x07\xe1\x06\x12\x0e\x0b.\x01r\x15'
p441
tp442
Rp443
sg23
S'17-0'
p444
sba(iopmop.models.task
LoadTask
p445
(dp446
g50
F3417.0
sg68
I15
sg69
g299
sg71
Nsg72
Nsg73
g54
sg74
g6
(S'\x07\xe1\x06\x12\t\x00\x00\x00\x00\x00'
p447
tp448
Rp449
sg78
g6
(S'\x07\xe1\x06\x12\r\x06\x00\x00\x00\x00'
p450
tp451
Rp452
sg23
S'17-0'
p453
sba(iopmop.models.task
HaulageTask
p454
(dp455
g50
I382
sg68
I34
sg69
g299
sg94
g31
sg71
Nsg72
Nsg73
g54
sg74
g6
(S'\x07\xe1\x06\x12\t,\x03\x08\x01\xc8'
p456
tp457
Rp458
sg78
g6
(S'\x07\xe1\x06\x12\n\x06\x05\x04a\x8c'
p459
tp460
Rp461
sg23
S'17-1'
p462
sba(iopmop.models.task
HaulageTask
p463
(dp464
g50
I385
sg68
I25
sg69
g299
sg94
g31
sg71
Nsg72
Nsg73
g54
sg74
g6
(S'\x07\xe1\x06\x12\n\x18\x1b\x0e\x87\xe0'
p465
tp466
Rp467
sg78
g6
(S'\x07\xe1\x06\x12\n-"\x0eYH'
p468
tp469
Rp470
sg23
S'17-1'
p471
sba(iopmop.models.task
HaulageTask
p472
(dp473
g50
I442
sg68
I28
sg69
g299
sg94
g31
sg71
Nsg72
Nsg73
g54
sg74
g6
(S'\x07\xe1\x06\x12\n21\r\r\xd1'
p474
tp475
Rp476
sg78
g6
(S'\x07\xe1\x06\x12\x0b\x0c;\x0c\x9c\xee'
p477
tp478
Rp479
sg23
S'17-1'
p480
sba(iopmop.models.task
HaulageTask
p481
(dp482
g50
I452
sg68
I47
sg69
g299
sg94
g31
sg71
Nsg72
Nsg73
g54
sg74
g6
(S'\x07\xe1\x06\x12\x0b\x17\x0c\x04\xbaj'
p483
tp484
Rp485
sg78
g6
(S"\x07\xe1\x06\x12\x0b+'\x0b\xf1p"
p486
tp487
Rp488
sg23
S'17-1'
p489
sba(iopmop.models.task
HaulageTask
p490
(dp491
g50
I319
sg68
I43
sg69
g299
sg94
g31
sg71
Nsg72
Nsg73
g54
sg74
g6
(S'\x07\xe1\x06\x12\x0b7+\x0b\x03\xf0'
p492
tp493
Rp494
sg78
g6
(S'\x07\xe1\x06\x12\x0c\x11)\n|&'
p495
tp496
Rp497
sg23
S'17-1'
p498
sba(iopmop.models.task
HaulageTask
p499
(dp500
g50
I382
sg68
I34
sg69
g299
sg94
g31
sg71
Nsg72
Nsg73
g54
sg74
g6
(S'\x07\xe1\x06\x12\x0c\x12\x0f\r$\xa4'
p501
tp502
Rp503
sg78
g6
(S'\x07\xe1\x06\x12\x0c(\x11\t\x84h'
p504
tp505
Rp506
sg23
S'17-1'
p507
sba(iopmop.models.task
HaulageTask
p508
(dp509
g50
I351
sg68
I41
sg69
g299
sg94
g31
sg71
Nsg72
Nsg73
g54
sg74
g6
(S'\x07\xe1\x06\x12\x0c3&\x05\xad\xea'
p510
tp511
Rp512
sg78
g6
(S'\x07\xe1\x06\x12\r\x0c)\r!\xa8'
p513
tp514
Rp515
sg23
S'17-1'
p516
sba(iopmop.models.task
HaulageTask
p517
(dp518
g50
I385
sg68
I25
sg69
g299
sg94
g31
sg71
Nsg72
Nsg73
g54
sg74
g6
(S'\x07\xe1\x06\x12\r\r\x17\r\x13 '
p519
tp520
Rp521
sg78
g6
(S'\x07\xe1\x06\x12\r"\x1e\x0c\xe4\x88'
p522
tp523
Rp524
sg23
S'17-1'
p525
sbasg50
I2758
sg156
F0.0
sg157
g3
sg158
F-659.0
sg159
g6
(S'\x07\xe1\x06\x12\x00\x00\x00\x00\x00\x00'
p526
tp527
Rp528
sg163
I01
sg164
F-340.0
sg23
I17
sba(iopmop.models.schedule
Schedule
p529
(dp530
g64
(lp531
sg50
I2758
sg156
I2758
sg157
g3
sg158
I2758
sg159
g6
(S'\x07\xe1\x06\x13\x00\x00\x00\x00\x00\x00'
p532
tp533
Rp534
sg163
I00
sg164
I2758
sg23
I18
sba(iopmop.models.schedule
Schedule
p535
(dp536
g64
(lp537
sg50
I2758
sg156
I2758
sg157
g3
sg158
I2758
sg159
g6
(S'\x07\xe1\x06\x14\x00\x00\x00\x00\x00\x00'
p538
tp539
Rp540
sg163
I00
sg164
I2758
sg23
I19
sba(iopmop.models.schedule
Schedule
p541
(dp542
g64
(lp543
sg50
I2758
sg156
I2758
sg157
g3
sg158
I2758
sg159
g6
(S'\x07\xe1\x06\x15\x00\x00\x00\x00\x00\x00'
p544
tp545
Rp546
sg163
I00
sg164
I2758
sg23
I20
sba(iopmop.models.schedule
Schedule
p547
(dp548
g64
(lp549
sg50
I2758
sg156
I2758
sg157
g3
sg158
I2758
sg159
g6
(S'\x07\xe1\x06\x16\x00\x00\x00\x00\x00\x00'
p550
tp551
Rp552
sg163
I00
sg164
I2758
sg23
I21
sba(iopmop.models.schedule
Schedule
p553
(dp554
g64
(lp555
sg50
I2758
sg156
I2758
sg157
g3
sg158
I2758
sg159
g6
(S'\x07\xe1\x06\x17\x00\x00\x00\x00\x00\x00'
p556
tp557
Rp558
sg163
I00
sg164
I2758
sg23
I22
sba(iopmop.models.schedule
Schedule
p559
(dp560
g64
(lp561
sg50
I2758
sg156
I2758
sg157
g3
sg158
I2758
sg159
g6
(S'\x07\xe1\x06\x18\x00\x00\x00\x00\x00\x00'
p562
tp563
Rp564
sg163
I00
sg164
I2758
sg23
I23
sba(iopmop.models.schedule
Schedule
p565
(dp566
g64
(lp567
sg50
I2758
sg156
I2758
sg157
g3
sg158
I2758
sg159
g6
(S'\x07\xe1\x06\x19\x00\x00\x00\x00\x00\x00'
p568
tp569
Rp570
sg163
I00
sg164
I2758
sg23
I24
sba(iopmop.models.schedule
Schedule
p571
(dp572
g64
(lp573
(iopmop.models.task
DigTask
p574
(dp575
g50
F2400.0
sg68
I6
sg69
g299
sg71
Nsg72
Nsg73
g54
sg74
g6
(S'\x07\xe1\x06\x1a\t\x00\x00\x00\x00\x00'
p576
tp577
Rp578
sg78
g6
(S'\x07\xe1\x06\x1a\x11\x00\x00\x00\x00\x00'
p579
tp580
Rp581
sg23
S'25-0'
p582
sba(iopmop.models.task
DigTask
p583
(dp584
g50
F358.0
sg68
I9
sg69
g299
sg71
Nsg72
Nsg73
g54
sg74
g6
(S'\x07\xe1\x06\x1a\x0c!\x02\x0c\\\xa6'
p585
tp586
Rp587
sg78
g6
(S"\x07\xe1\x06\x1a\r\x0f'\x05\xad\xd4"
p588
tp589
Rp590
sg23
S'25-0'
p591
sba(iopmop.models.task
LoadTask
p592
(dp593
g50
F3417.0
sg68
I15
sg69
g299
sg71
Nsg72
Nsg73
g54
sg74
g6
(S'\x07\xe1\x06\x1a\r\x06\x00\x00\x00\x00'
p594
tp595
Rp596
sg78
g6
(S'\x07\xe1\x06\x1a\x11\x0c\x00\x00\x00\x00'
p597
tp598
Rp599
sg23
S'25-0'
p600
sba(iopmop.models.task
HaulageTask
p601
(dp602
g50
I442
sg68
I28
sg69
g299
sg94
g31
sg71
Nsg72
Nsg73
g54
sg74
g6
(S'\x07\xe1\x06\x1a\r0\t\t\x86\xb9'
p603
tp604
Rp605
sg78
g6
(S'\x07\xe1\x06\x1a\x0e\n\x13\t\x15\xd6'
p606
tp607
Rp608
sg23
S'25-1'
p609
sba(iopmop.models.task
HaulageTask
p610
(dp611
g50
I319
sg68
I43
sg69
g299
sg94
g31
sg71
Nsg72
Nsg73
g54
sg74
g6
(S'\x07\xe1\x06\x1a\x0e\x1d\x1d\x07Mj'
p612
tp613
Rp614
sg78
g6
(S'\x07\xe1\x06\x1a\x0e3\x1b\x06\xc5\xa0'
p615
tp616
Rp617
sg23
S'25-1'
p618
sba(iopmop.models.task
HaulageTask
p619
(dp620
g50
I382
sg68
I34
sg69
g299
sg94
g31
sg71
Nsg72
Nsg73
g54
sg74
g6
(S'\x07\xe1\x06\x1a\x0e4\x1c\x03\x05@'
p621
tp622
Rp623
sg78
g6
(S'\x07\xe1\x06\x1a\x0f\x0e\x1d\x0e\xa7D'
p624
tp625
Rp626
sg23
S'25-1'
p627
sba(iopmop.models.task
HaulageTask
p628
(dp629
g50
I315
sg68
I30
sg69
g299
sg94
g31
sg71
Nsg72
Nsg73
g54
sg74
g6
(S'\x07\xe1\x06\x1a\x0f!\x1c\x0b;\x88'
p630
tp631
Rp632
sg78
g6
(S'\x07\xe1\x06\x1a\x0f7\x14\x05\x13,'
p633
tp634
Rp635
sg23
S'25-1'
p636
sba(iopmop.models.task
HaulageTask
p637
(dp638
g50
I490
sg68
I35
sg69
g299
sg94
g31
sg71
Nsg72
Nsg73
g54
sg74
g6
(S'\x07\xe1\x06\x1a\x10\x00\x10\x07+s'
p639
tp640
Rp641
sg78
g6
(S'\x07\xe1\x06\x1a\x10\x16\x17\t\xf4\xd4'
p642
tp643
Rp644
sg23
S'25-1'
p645
sba(iopmop.models.task
HaulageTask
p646
(dp647
g50
I399
sg68
I31
sg69
g299
sg94
g31
sg71
Nsg72
Nsg73
g54
sg74
g6
(S'\x07\xe1\x06\x1a\x10*0\x06\xde<'
p648
tp649
Rp650
sg78
g6
(S'\x07\xe1\x06\x1a\x11\x042\x0b\x8e\x08'
p651
tp652
Rp653
sg23
S'25-1'
p654
sba(iopmop.models.task
HaulageTask
p655
(dp656
g50
I442
sg68
I28
sg69
g299
sg94
g31
sg71
Nsg72
Nsg73
g54
sg74
g6
(S"\x07\xe1\x06\x1a\x11\x07'\x05\x8e\xbe"
p657
tp658
Rp659
sg78
g6
(S'\x07\xe1\x06\x1a\x11\x1d1\x05\x1d\xdb'
p660
tp661
Rp662
sg23
S'25-1'
p663
sbasg50
I2758
sg156
F0.0
sg157
g3
sg158
F-659.0
sg159
g6
(S'\x07\xe1\x06\x1a\x00\x00\x00\x00\x00\x00'
p664
tp665
Rp666
sg163
I01
sg164
F-31.0
sg23
I25
sba(iopmop.models.schedule
Schedule
p667
(dp668
g64
(lp669
sg50
I2758
sg156
I2758
sg157
g3
sg158
I2758
sg159
g6
(S'\x07\xe1\x06\x1b\x00\x00\x00\x00\x00\x00'
p670
tp671
Rp672
sg163
I00
sg164
I2758
sg23
I26
sba(iopmop.models.schedule
Schedule
p673
(dp674
g64
(lp675
sg50
I2758
sg156
I2758
sg157
g3
sg158
I2758
sg159
g6
(S'\x07\xe1\x06\x1c\x00\x00\x00\x00\x00\x00'
p676
tp677
Rp678
sg163
I00
sg164
I2758
sg23
I27
sba(iopmop.models.schedule
Schedule
p679
(dp680
g64
(lp681
sg50
I2758
sg156
I2758
sg157
g3
sg158
I2758
sg159
g6
(S'\x07\xe1\x06\x1d\x00\x00\x00\x00\x00\x00'
p682
tp683
Rp684
sg163
I00
sg164
I2758
sg23
I28
sbasg23
I1
sS'numDays'
p685
I29
sba(iopmop.models.mission
Mission
p686
(dp687
g5
g6
(S'\x07\xe1\x06\x01\x00\x00\x00\x00\x00\x00'
p688
tp689
Rp690
sg10
(lp691
g12
ag26
ag31
ag36
ag41
asg46
g6
(S'\x07\xe1\x06\x14\x00\x00\x00\x00\x00\x00'
p692
tp693
Rp694
sg50
I100000
sg51
S'Coal june'
p695
sg53
(iopmop.models.location
Location
p696
(dp697
g14
g33
sg21
g58
sg23
I2
sg24
S'Site2'
p698
sbsg60
(lp699
(iopmop.models.schedule
Schedule
p700
(dp701
g64
(lp702
(iopmop.models.task
DigTask
p703
(dp704
g50
F2320.0
sg68
I8
sg69
g70
sg71
Nsg72
Nsg73
g696
sg74
g6
(S'\x07\xe1\x06\x01\t\x00\x00\x00\x00\x00'
p705
tp706
Rp707
sg78
g6
(S'\x07\xe1\x06\x01\x11\x039\x08(\xe3'
p708
tp709
Rp710
sg23
S'0-0'
p711
sba(iopmop.models.task
DigTask
p712
(dp713
g50
F2943.0
sg68
I1
sg69
g70
sg71
Nsg72
Nsg73
g696
sg74
g6
(S'\x07\xe1\x06\x01\t\x00\x00\x00\x00\x00'
p714
tp715
Rp716
sg78
g6
(S'\x07\xe1\x06\x01\x10.,\n\xc9y'
p717
tp718
Rp719
sg23
S'0-0'
p720
sba(iopmop.models.task
LoadTask
p721
(dp722
g50
F4410.0
sg68
I13
sg69
g70
sg71
Nsg72
Nsg73
g696
sg74
g6
(S'\x07\xe1\x06\x01\t\x00\x00\x00\x00\x00'
p723
tp724
Rp725
sg78
g6
(S'\x07\xe1\x06\x01\x11\x00\x00\x00\x00\x00'
p726
tp727
Rp728
sg23
S'0-0'
p729
sba(iopmop.models.task
LoadTask
p730
(dp731
g50
F1523.0
sg68
I15
sg69
g70
sg71
Nsg72
Nsg73
g696
sg74
g6
(S'\x07\xe1\x06\x01\x0e\x05!\x02\x0c\xb8'
p732
tp733
Rp734
sg78
g6
(S'\x07\xe1\x06\x01\x0f\x158\x06`v'
p735
tp736
Rp737
sg23
S'0-0'
p738
sba(iopmop.models.task
HaulageTask
p739
(dp740
g72
Nsg50
I303
sg68
I42
sg69
g70
sg71
Nsg94
g31
sg73
g696
sg74
g6
(S'\x07\xe1\x06\x01\t$\x00\x00\x00\x00'
p741
tp742
Rp743
sg78
g6
(S'\x07\xe1\x06\x01\t0\x00\x00\x00\x00'
p744
tp745
Rp746
sg23
S'0-1'
p747
sba(iopmop.models.task
HaulageTask
p748
(dp749
g72
Nsg50
I342
sg68
I38
sg69
g70
sg71
Nsg94
g31
sg73
g696
sg74
g6
(S'\x07\xe1\x06\x01\n\x0c\x00\x00\x00\x00'
p750
tp751
Rp752
sg78
g6
(S'\x07\xe1\x06\x01\n\x18\x00\x00\x00\x00'
p753
tp754
Rp755
sg23
S'0-1'
p756
sba(iopmop.models.task
HaulageTask
p757
(dp758
g72
Nsg50
I353
sg68
I32
sg69
g70
sg71
Nsg94
g31
sg73
g696
sg74
g6
(S'\x07\xe1\x06\x01\x0b\x00\x00\x00\x00\x00'
p759
tp760
Rp761
sg78
g6
(S'\x07\xe1\x06\x01\x0b\x0c\x00\x00\x00\x00'
p762
tp763
Rp764
sg23
S'0-1'
p765
sba(iopmop.models.task
HaulageTask
p766
(dp767
g72
Nsg50
I399
sg68
I31
sg69
g70
sg71
Nsg94
g31
sg73
g696
sg74
g6
(S'\x07\xe1\x06\x01\x0b$\x00\x00\x00\x00'
p768
tp769
Rp770
sg78
g6
(S'\x07\xe1\x06\x01\x0b0\x00\x00\x00\x00'
p771
tp772
Rp773
sg23
S'0-1'
p774
sba(iopmop.models.task
HaulageTask
p775
(dp776
g72
Nsg50
I384
sg68
I24
sg69
g70
sg71
Nsg94
g31
sg73
g696
sg74
g6
(S'\x07\xe1\x06\x01\x0c\x18\x00\x00\x00\x00'
p777
tp778
Rp779
sg78
g6
(S'\x07\xe1\x06\x01\x0c$\x00\x00\x00\x00'
p780
tp781
Rp782
sg23
S'0-1'
p783
sba(iopmop.models.task
HaulageTask
p784
(dp785
g72
Nsg50
I315
sg68
I30
sg69
g70
sg71
Nsg94
g31
sg73
g696
sg74
g6
(S'\x07\xe1\x06\x01\r\x00\x00\x00\x00\x00'
p786
tp787
Rp788
sg78
g6
(S'\x07\xe1\x06\x01\r\x0c\x00\x00\x00\x00'
p789
tp790
Rp791
sg23
S'0-1'
p792
sba(iopmop.models.task
HaulageTask
p793
(dp794
g72
Nsg50
I490
sg68
I35
sg69
g70
sg71
Nsg94
g31
sg73
g696
sg74
g6
(S'\x07\xe1\x06\x01\r0\x00\x00\x00\x00'
p795
tp796
Rp797
sg78
g6
(S'\x07\xe1\x06\x01\x0e\x00\x00\x00\x00\x00'
p798
tp799
Rp800
sg23
S'0-1'
p801
sba(iopmop.models.task
HaulageTask
p802
(dp803
g72
Nsg50
I351
sg68
I41
sg69
g70
sg71
Nsg94
g31
sg73
g696
sg74
g6
(S'\x07\xe1\x06\x01\x0e\x0c\x00\x00\x00\x00'
p804
tp805
Rp806
sg78
g6
(S'\x07\xe1\x06\x01\x0e\x18\x00\x00\x00\x00'
p807
tp808
Rp809
sg23
S'0-1'
p810
sba(iopmop.models.task
HaulageTask
p811
(dp812
g72
Nsg50
I385
sg68
I25
sg69
g70
sg71
Nsg94
g31
sg73
g696
sg74
g6
(S'\x07\xe1\x06\x01\x0e$\x00\x00\x00\x00'
p813
tp814
Rp815
sg78
g6
(S'\x07\xe1\x06\x01\x0e0\x00\x00\x00\x00'
p816
tp817
Rp818
sg23
S'0-1'
p819
sba(iopmop.models.task
HaulageTask
p820
(dp821
g72
Nsg50
I319
sg68
I43
sg69
g70
sg71
Nsg94
g31
sg73
g696
sg74
g6
(S'\x07\xe1\x06\x01\r\x18\x00\x00\x00\x00'
p822
tp823
Rp824
sg78
g6
(S'\x07\xe1\x06\x01\r$\x00\x00\x00\x00'
p825
tp826
Rp827
sg23
S'0-1'
p828
sba(iopmop.models.task
HaulageTask
p829
(dp830
g72
Nsg50
I303
sg68
I42
sg69
g70
sg71
Nsg94
g31
sg73
g696
sg74
g6
(S'\x07\xe1\x06\x01\x0f\x00\x00\x00\x00\x00'
p831
tp832
Rp833
sg78
g6
(S'\x07\xe1\x06\x01\x0f\x0c\x00\x00\x00\x00'
p834
tp835
Rp836
sg23
S'0-1'
p837
sba(iopmop.models.task
HaulageTask
p838
(dp839
g72
Nsg50
I316
sg68
I36
sg69
g70
sg71
Nsg94
g31
sg73
g696
sg74
g6
(S'\x07\xe1\x06\x01\x0f\x18\x00\x00\x00\x00'
p840
tp841
Rp842
sg78
g6
(S'\x07\xe1\x06\x01\x0f$\x00\x00\x00\x00'
p843
tp844
Rp845
sg23
S'0-1'
p846
sba(iopmop.models.task
HaulageTask
p847
(dp848
g72
Nsg50
I342
sg68
I38
sg69
g70
sg71
Nsg94
g31
sg73
g696
sg74
g6
(S'\x07\xe1\x06\x01\x0f0\x00\x00\x00\x00'
p849
tp850
Rp851
sg78
g6
(S'\x07\xe1\x06\x01\x10\x00\x00\x00\x00\x00'
p852
tp853
Rp854
sg23
S'0-1'
p855
sba(iopmop.models.task
HaulageTask
p856
(dp857
g72
Nsg50
I353
sg68
I32
sg69
g70
sg71
Nsg94
g31
sg73
g696
sg74
g6
(S'\x07\xe1\x06\x01\x10\x0c\x00\x00\x00\x00'
p858
tp859
Rp860
sg78
g6
(S'\x07\xe1\x06\x01\x10\x18\x00\x00\x00\x00'
p861
tp862
Rp863
sg23
S'0-1'
p864
sba(iopmop.models.task
HaulageTask
p865
(dp866
g72
Nsg50
I452
sg68
I47
sg69
g70
sg71
Nsg94
g31
sg73
g696
sg74
g6
(S'\x07\xe1\x06\x01\x10$\x00\x00\x00\x00'
p867
tp868
Rp869
sg78
g6
(S'\x07\xe1\x06\x01\x100\x00\x00\x00\x00'
p870
tp871
Rp872
sg23
S'0-1'
p873
sbasg50
I5263
sg156
F0.0
sg157
g686
sg158
F-670.0
sg159
g6
(S'\x07\xe1\x06\x01\x00\x00\x00\x00\x00\x00'
p874
tp875
Rp876
sg163
I01
sg164
F-144.0
sg23
I0
sba(iopmop.models.schedule
Schedule
p877
(dp878
g64
(lp879
(iopmop.models.task
DigTask
p880
(dp881
g50
F2320.0
sg68
I8
sg69
g299
sg71
Nsg72
Nsg73
g696
sg74
g6
(S'\x07\xe1\x06\x02\t\x00\x00\x00\x00\x00'
p882
tp883
Rp884
sg78
g6
(S'\x07\xe1\x06\x02\x11\x039\x08(\xe3'
p885
tp886
Rp887
sg23
S'1-0'
p888
sba(iopmop.models.task
DigTask
p889
(dp890
g50
F2943.0
sg68
I1
sg69
g299
sg71
Nsg72
Nsg73
g696
sg74
g6
(S'\x07\xe1\x06\x02\t\x00\x00\x00\x00\x00'
p891
tp892
Rp893
sg78
g6
(S'\x07\xe1\x06\x02\x10.,\n\xc9y'
p894
tp895
Rp896
sg23
S'1-0'
p897
sba(iopmop.models.task
LoadTask
p898
(dp899
g50
F4410.0
sg68
I13
sg69
g299
sg71
Nsg72
Nsg73
g696
sg74
g6
(S'\x07\xe1\x06\x02\t\x00\x00\x00\x00\x00'
p900
tp901
Rp902
sg78
g6
(S'\x07\xe1\x06\x02\x11\x00\x00\x00\x00\x00'
p903
tp904
Rp905
sg23
S'1-0'
p906
sba(iopmop.models.task
LoadTask
p907
(dp908
g50
F1523.0
sg68
I15
sg69
g299
sg71
Nsg72
Nsg73
g696
sg74
g6
(S'\x07\xe1\x06\x02\x0f\x158\x06`v'
p909
tp910
Rp911
sg78
g6
(S'\x07\xe1\x06\x02\x10&\x13\n\xb44'
p912
tp913
Rp914
sg23
S'1-0'
p915
sba(iopmop.models.task
HaulageTask
p916
(dp917
g50
I252
sg68
I37
sg69
g299
sg94
g31
sg71
Nsg72
Nsg73
g696
sg74
g6
(S'\x07\xe1\x06\x02\t$\x00\x00\x00\x00'
p918
tp919
Rp920
sg78
g6
(S'\x07\xe1\x06\x02\t0\x00\x00\x00\x00'
p921
tp922
Rp923
sg23
S'1-1'
p924
sba(iopmop.models.task
HaulageTask
p925
(dp926
g50
I257
sg68
I20
sg69
g299
sg94
g31
sg71
Nsg72
Nsg73
g696
sg74
g6
(S'\x07\xe1\x06\x02\n\x00\x00\x00\x00\x00'
p927
tp928
Rp929
sg78
g6
(S'\x07\xe1\x06\x02\n\x0c\x00\x00\x00\x00'
p930
tp931
Rp932
sg23
S'1-1'
p933
sba(iopmop.models.task
HaulageTask
p934
(dp935
g50
I319
sg68
I43
sg69
g299
sg94
g31
sg71
Nsg72
Nsg73
g696
sg74
g6
(S'\x07\xe1\x06\x02\n$\x00\x00\x00\x00'
p936
tp937
Rp938
sg78
g6
(S'\x07\xe1\x06\x02\n0\x00\x00\x00\x00'
p939
tp940
Rp941
sg23
S'1-1'
p942
sba(iopmop.models.task
HaulageTask
p943
(dp944
g50
I303
sg68
I42
sg69
g299
sg94
g31
sg71
Nsg72
Nsg73
g696
sg74
g6
(S'\x07\xe1\x06\x02\x0b\x0c\x00\x00\x00\x00'
p945
tp946
Rp947
sg78
g6
(S'\x07\xe1\x06\x02\x0b\x18\x00\x00\x00\x00'
p948
tp949
Rp950
sg23
S'1-1'
p951
sba(iopmop.models.task
HaulageTask
p952
(dp953
g50
I316
sg68
I36
sg69
g299
sg94
g31
sg71
Nsg72
Nsg73
g696
sg74
g6
(S'\x07\xe1\x06\x02\x0b0\x00\x00\x00\x00'
p954
tp955
Rp956
sg78
g6
(S'\x07\xe1\x06\x02\x0c\x00\x00\x00\x00\x00'
p957
tp958
Rp959
sg23
S'1-1'
p960
sba(iopmop.models.task
HaulageTask
p961
(dp962
g50
I342
sg68
I38
sg69
g299
sg94
g31
sg71
Nsg72
Nsg73
g696
sg74
g6
(S'\x07\xe1\x06\x02\x0c\x18\x00\x00\x00\x00'
p963
tp964
Rp965
sg78
g6
(S'\x07\xe1\x06\x02\x0c$\x00\x00\x00\x00'
p966
tp967
Rp968
sg23
S'1-1'
p969
sba(iopmop.models.task
HaulageTask
p970
(dp971
g50
I353
sg68
I32
sg69
g299
sg94
g31
sg71
Nsg72
Nsg73
g696
sg74
g6
(S'\x07\xe1\x06\x02\r\x00\x00\x00\x00\x00'
p972
tp973
Rp974
sg78
g6
(S'\x07\xe1\x06\x02\r\x0c\x00\x00\x00\x00'
p975
tp976
Rp977
sg23
S'1-1'
p978
sba(iopmop.models.task
HaulageTask
p979
(dp980
g50
I452
sg68
I47
sg69
g299
sg94
g31
sg71
Nsg72
Nsg73
g696
sg74
g6
(S'\x07\xe1\x06\x02\r0\x00\x00\x00\x00'
p981
tp982
Rp983
sg78
g6
(S'\x07\xe1\x06\x02\x0e\x00\x00\x00\x00\x00'
p984
tp985
Rp986
sg23
S'1-1'
p987
sba(iopmop.models.task
HaulageTask
p988
(dp989
g50
I399
sg68
I31
sg69
g299
sg94
g31
sg71
Nsg72
Nsg73
g696
sg74
g6
(S'\x07\xe1\x06\x02\x0e$\x00\x00\x00\x00'
p990
tp991
Rp992
sg78
g6
(S'\x07\xe1\x06\x02\x0e0\x00\x00\x00\x00'
p993
tp994
Rp995
sg23
S'1-1'
p996
sba(iopmop.models.task
HaulageTask
p997
(dp998
g50
I384
sg68
I24
sg69
g299
sg94
g31
sg71
Nsg72
Nsg73
g696
sg74
g6
(S'\x07\xe1\x06\x02\x0f\x0c\x00\x00\x00\x00'
p999
tp1000
Rp1001
sg78
g6
(S'\x07\xe1\x06\x02\x0f\x18\x00\x00\x00\x00'
p1002
tp1003
Rp1004
sg23
S'1-1'
p1005
sba(iopmop.models.task
HaulageTask
p1006
(dp1007
g50
I356
sg68
I29
sg69
g299
sg94
g31
sg71
Nsg72
Nsg73
g696
sg74
g6
(S'\x07\xe1\x06\x02\x0f$\x00\x00\x00\x00'
p1008
tp1009
Rp1010
sg78
g6
(S'\x07\xe1\x06\x02\x0f0\x00\x00\x00\x00'
p1011
tp1012
Rp1013
sg23
S'1-1'
p1014
sba(iopmop.models.task
HaulageTask
p1015
(dp1016
g50
I334
sg68
I44
sg69
g299
sg94
g31
sg71
Nsg72
Nsg73
g696
sg74
g6
(S'\x07\xe1\x06\x02\x10\x00\x00\x00\x00\x00'
p1017
tp1018
Rp1019
sg78
g6
(S'\x07\xe1\x06\x02\x10\x0c\x00\x00\x00\x00'
p1020
tp1021
Rp1022
sg23
S'1-1'
p1023
sba(iopmop.models.task
HaulageTask
p1024
(dp1025
g50
I292
sg68
I49
sg69
g299
sg94
g31
sg71
Nsg72
Nsg73
g696
sg74
g6
(S'\x07\xe1\x06\x02\x10\x18\x00\x00\x00\x00'
p1026
tp1027
Rp1028
sg78
g6
(S'\x07\xe1\x06\x02\x10$\x00\x00\x00\x00'
p1029
tp1030
Rp1031
sg23
S'1-1'
p1032
sba(iopmop.models.task
HaulageTask
p1033
(dp1034
g50
I315
sg68
I30
sg69
g299
sg94
g31
sg71
Nsg72
Nsg73
g696
sg74
g6
(S'\x07\xe1\x06\x02\x100\x00\x00\x00\x00'
p1035
tp1036
Rp1037
sg78
g6
(S'\x07\xe1\x06\x02\x11\x00\x00\x00\x00\x00'
p1038
tp1039
Rp1040
sg23
S'1-1'
p1041
sba(iopmop.models.task
HaulageTask
p1042
(dp1043
g50
I490
sg68
I35
sg69
g299
sg94
g31
sg71
Nsg72
Nsg73
g696
sg74
g6
(S'\x07\xe1\x06\x02\x11\x0c\x00\x00\x00\x00'
p1044
tp1045
Rp1046
sg78
g6
(S'\x07\xe1\x06\x02\x11\x18\x00\x00\x00\x00'
p1047
tp1048
Rp1049
sg23
S'1-1'
p1050
sba(iopmop.models.task
HaulageTask
p1051
(dp1052
g50
I351
sg68
I41
sg69
g299
sg94
g31
sg71
Nsg72
Nsg73
g696
sg74
g6
(S'\x07\xe1\x06\x02\x11$\x00\x00\x00\x00'
p1053
tp1054
Rp1055
sg78
g6
(S'\x07\xe1\x06\x02\x110\x00\x00\x00\x00'
p1056
tp1057
Rp1058
sg23
S'1-1'
p1059
sbasg50
I5263
sg156
F0.0
sg157
g686
sg158
F-670.0
sg159
g6
(S'\x07\xe1\x06\x02\x00\x00\x00\x00\x00\x00'
p1060
tp1061
Rp1062
sg163
I01
sg164
F-252.0
sg23
I1
sba(iopmop.models.schedule
Schedule
p1063
(dp1064
g64
(lp1065
sg50
I5263
sg156
I5263
sg157
g686
sg158
I5263
sg159
g6
(S'\x07\xe1\x06\x03\x00\x00\x00\x00\x00\x00'
p1066
tp1067
Rp1068
sg163
I00
sg164
I5263
sg23
I2
sba(iopmop.models.schedule
Schedule
p1069
(dp1070
g64
(lp1071
sg50
I5263
sg156
I5263
sg157
g686
sg158
I5263
sg159
g6
(S'\x07\xe1\x06\x04\x00\x00\x00\x00\x00\x00'
p1072
tp1073
Rp1074
sg163
I00
sg164
I5263
sg23
I3
sba(iopmop.models.schedule
Schedule
p1075
(dp1076
g64
(lp1077
sg50
I5263
sg156
I5263
sg157
g686
sg158
I5263
sg159
g6
(S'\x07\xe1\x06\x05\x00\x00\x00\x00\x00\x00'
p1078
tp1079
Rp1080
sg163
I00
sg164
I5263
sg23
I4
sba(iopmop.models.schedule
Schedule
p1081
(dp1082
g64
(lp1083
sg50
I5263
sg156
I5263
sg157
g686
sg158
I5263
sg159
g6
(S'\x07\xe1\x06\x06\x00\x00\x00\x00\x00\x00'
p1084
tp1085
Rp1086
sg163
I00
sg164
I5263
sg23
I5
sba(iopmop.models.schedule
Schedule
p1087
(dp1088
g64
(lp1089
sg50
I5263
sg156
I5263
sg157
g686
sg158
I5263
sg159
g6
(S'\x07\xe1\x06\x07\x00\x00\x00\x00\x00\x00'
p1090
tp1091
Rp1092
sg163
I00
sg164
I5263
sg23
I6
sba(iopmop.models.schedule
Schedule
p1093
(dp1094
g64
(lp1095
sg50
I5263
sg156
I5263
sg157
g686
sg158
I5263
sg159
g6
(S'\x07\xe1\x06\x08\x00\x00\x00\x00\x00\x00'
p1096
tp1097
Rp1098
sg163
I00
sg164
I5263
sg23
I7
sba(iopmop.models.schedule
Schedule
p1099
(dp1100
g64
(lp1101
(iopmop.models.task
DigTask
p1102
(dp1103
g50
F4280.0
sg68
I9
sg69
g299
sg71
Nsg72
Nsg73
g696
sg74
g6
(S'\x07\xe1\x06\t\t\x00\x00\x00\x00\x00'
p1104
tp1105
Rp1106
sg78
g6
(S'\x07\xe1\x06\t\x11\x00\x05\x0c\x8f\x93'
p1107
tp1108
Rp1109
sg23
S'8-0'
p1110
sba(iopmop.models.task
DigTask
p1111
(dp1112
g50
F983.0000000000002
sg68
I7
sg69
g299
sg71
Nsg72
Nsg73
g696
sg74
g6
(S'\x07\xe1\x06\t\t\x00\x00\x00\x00\x00'
p1113
tp1114
Rp1115
sg78
g6
(S'\x07\xe1\x06\t\x0b,\x02\x02\xc3\x1a'
p1116
tp1117
Rp1118
sg23
S'8-0'
p1119
sba(iopmop.models.task
LoadTask
p1120
(dp1121
g50
F5896.0
sg68
I15
sg69
g299
sg71
Nsg72
Nsg73
g696
sg74
g6
(S'\x07\xe1\x06\t\t\x00\x00\x00\x00\x00'
p1122
tp1123
Rp1124
sg78
g6
(S'\x07\xe1\x06\t\x100\x00\x00\x00\x00'
p1125
tp1126
Rp1127
sg23
S'8-0'
p1128
sba(iopmop.models.task
HaulageTask
p1129
(dp1130
g50
I292
sg68
I49
sg69
g299
sg94
g31
sg71
Nsg72
Nsg73
g696
sg74
g6
(S'\x07\xe1\x06\t\t\x18\x00\x00\x00\x00'
p1131
tp1132
Rp1133
sg78
g6
(S'\x07\xe1\x06\t\t$\x00\x00\x00\x00'
p1134
tp1135
Rp1136
sg23
S'8-1'
p1137
sba(iopmop.models.task
HaulageTask
p1138
(dp1139
g50
I296
sg68
I23
sg69
g299
sg94
g31
sg71
Nsg72
Nsg73
g696
sg74
g6
(S'\x07\xe1\x06\t\t0\x00\x00\x00\x00'
p1140
tp1141
Rp1142
sg78
g6
(S'\x07\xe1\x06\t\n\x00\x00\x00\x00\x00'
p1143
tp1144
Rp1145
sg23
S'8-1'
p1146
sba(iopmop.models.task
HaulageTask
p1147
(dp1148
g50
I252
sg68
I37
sg69
g299
sg94
g31
sg71
Nsg72
Nsg73
g696
sg74
g6
(S'\x07\xe1\x06\t\n\x0c\x00\x00\x00\x00'
p1149
tp1150
Rp1151
sg78
g6
(S'\x07\xe1\x06\t\n\x18\x00\x00\x00\x00'
p1152
tp1153
Rp1154
sg23
S'8-1'
p1155
sba(iopmop.models.task
HaulageTask
p1156
(dp1157
g50
I257
sg68
I20
sg69
g299
sg94
g31
sg71
Nsg72
Nsg73
g696
sg74
g6
(S'\x07\xe1\x06\t\n$\x00\x00\x00\x00'
p1158
tp1159
Rp1160
sg78
g6
(S'\x07\xe1\x06\t\n0\x00\x00\x00\x00'
p1161
tp1162
Rp1163
sg23
S'8-1'
p1164
sba(iopmop.models.task
HaulageTask
p1165
(dp1166
g50
I303
sg68
I42
sg69
g299
sg94
g31
sg71
Nsg72
Nsg73
g696
sg74
g6
(S'\x07\xe1\x06\t\x0b\x00\x00\x00\x00\x00'
p1167
tp1168
Rp1169
sg78
g6
(S'\x07\xe1\x06\t\x0b\x0c\x00\x00\x00\x00'
p1170
tp1171
Rp1172
sg23
S'8-1'
p1173
sba(iopmop.models.task
HaulageTask
p1174
(dp1175
g50
I316
sg68
I36
sg69
g299
sg94
g31
sg71
Nsg72
Nsg73
g696
sg74
g6
(S'\x07\xe1\x06\t\x0b\x18\x00\x00\x00\x00'
p1176
tp1177
Rp1178
sg78
g6
(S'\x07\xe1\x06\t\x0b$\x00\x00\x00\x00'
p1179
tp1180
Rp1181
sg23
S'8-1'
p1182
sba(iopmop.models.task
HaulageTask
p1183
(dp1184
g50
I342
sg68
I38
sg69
g299
sg94
g31
sg71
Nsg72
Nsg73
g696
sg74
g6
(S'\x07\xe1\x06\t\x0b0\x00\x00\x00\x00'
p1185
tp1186
Rp1187
sg78
g6
(S'\x07\xe1\x06\t\x0c\x00\x00\x00\x00\x00'
p1188
tp1189
Rp1190
sg23
S'8-1'
p1191
sba(iopmop.models.task
HaulageTask
p1192
(dp1193
g50
I353
sg68
I32
sg69
g299
sg94
g31
sg71
Nsg72
Nsg73
g696
sg74
g6
(S'\x07\xe1\x06\t\x0c\x0c\x00\x00\x00\x00'
p1194
tp1195
Rp1196
sg78
g6
(S'\x07\xe1\x06\t\x0c\x18\x00\x00\x00\x00'
p1197
tp1198
Rp1199
sg23
S'8-1'
p1200
sba(iopmop.models.task
HaulageTask
p1201
(dp1202
g50
I399
sg68
I31
sg69
g299
sg94
g31
sg71
Nsg72
Nsg73
g696
sg74
g6
(S'\x07\xe1\x06\t\x0c0\x00\x00\x00\x00'
p1203
tp1204
Rp1205
sg78
g6
(S'\x07\xe1\x06\t\r\x00\x00\x00\x00\x00'
p1206
tp1207
Rp1208
sg23
S'8-1'
p1209
sba(iopmop.models.task
HaulageTask
p1210
(dp1211
g50
I384
sg68
I24
sg69
g299
sg94
g31
sg71
Nsg72
Nsg73
g696
sg74
g6
(S'\x07\xe1\x06\t\r\x18\x00\x00\x00\x00'
p1212
tp1213
Rp1214
sg78
g6
(S'\x07\xe1\x06\t\r$\x00\x00\x00\x00'
p1215
tp1216
Rp1217
sg23
S'8-1'
p1218
sba(iopmop.models.task
HaulageTask
p1219
(dp1220
g50
I356
sg68
I29
sg69
g299
sg94
g31
sg71
Nsg72
Nsg73
g696
sg74
g6
(S'\x07\xe1\x06\t\r0\x00\x00\x00\x00'
p1221
tp1222
Rp1223
sg78
g6
(S'\x07\xe1\x06\t\x0e\x00\x00\x00\x00\x00'
p1224
tp1225
Rp1226
sg23
S'8-1'
p1227
sba(iopmop.models.task
HaulageTask
p1228
(dp1229
g50
I334
sg68
I44
sg69
g299
sg94
g31
sg71
Nsg72
Nsg73
g696
sg74
g6
(S'\x07\xe1\x06\t\x0e\x0c\x00\x00\x00\x00'
p1230
tp1231
Rp1232
sg78
g6
(S'\x07\xe1\x06\t\x0e\x18\x00\x00\x00\x00'
p1233
tp1234
Rp1235
sg23
S'8-1'
p1236
sba(iopmop.models.task
HaulageTask
p1237
(dp1238
g50
I292
sg68
I49
sg69
g299
sg94
g31
sg71
Nsg72
Nsg73
g696
sg74
g6
(S'\x07\xe1\x06\t\x0e$\x00\x00\x00\x00'
p1239
tp1240
Rp1241
sg78
g6
(S'\x07\xe1\x06\t\x0e0\x00\x00\x00\x00'
p1242
tp1243
Rp1244
sg23
S'8-1'
p1245
sba(iopmop.models.task
HaulageTask
p1246
(dp1247
g50
I315
sg68
I30
sg69
g299
sg94
g31
sg71
Nsg72
Nsg73
g696
sg74
g6
(S'\x07\xe1\x06\t\x0f\x00\x00\x00\x00\x00'
p1248
tp1249
Rp1250
sg78
g6
(S'\x07\xe1\x06\t\x0f\x0c\x00\x00\x00\x00'
p1251
tp1252
Rp1253
sg23
S'8-1'
p1254
sba(iopmop.models.task
HaulageTask
p1255
(dp1256
g50
I490
sg68
I35
sg69
g299
sg94
g31
sg71
Nsg72
Nsg73
g696
sg74
g6
(S'\x07\xe1\x06\t\x0f$\x00\x00\x00\x00'
p1257
tp1258
Rp1259
sg78
g6
(S'\x07\xe1\x06\t\x0f0\x00\x00\x00\x00'
p1260
tp1261
Rp1262
sg23
S'8-1'
p1263
sba(iopmop.models.task
HaulageTask
p1264
(dp1265
g50
I296
sg68
I23
sg69
g299
sg94
g31
sg71
Nsg72
Nsg73
g696
sg74
g6
(S'\x07\xe1\x06\t\x10\x00\x00\x00\x00\x00'
p1266
tp1267
Rp1268
sg78
g6
(S'\x07\xe1\x06\t\x10\x0c\x00\x00\x00\x00'
p1269
tp1270
Rp1271
sg23
S'8-1'
p1272
sbasg50
I5263
sg156
F-2.2737367544323206e-13
sg157
g686
sg158
F-633.0
sg159
g6
(S'\x07\xe1\x06\t\x00\x00\x00\x00\x00\x00'
p1273
tp1274
Rp1275
sg163
I01
sg164
F-13.999999999999773
sg23
I8
sba(iopmop.models.schedule
Schedule
p1276
(dp1277
g64
(lp1278
sg50
I5263
sg156
I5263
sg157
g686
sg158
I5263
sg159
g6
(S'\x07\xe1\x06\n\x00\x00\x00\x00\x00\x00'
p1279
tp1280
Rp1281
sg163
I00
sg164
I5263
sg23
I9
sba(iopmop.models.schedule
Schedule
p1282
(dp1283
g64
(lp1284
sg50
I5263
sg156
I5263
sg157
g686
sg158
I5263
sg159
g6
(S'\x07\xe1\x06\x0b\x00\x00\x00\x00\x00\x00'
p1285
tp1286
Rp1287
sg163
I00
sg164
I5263
sg23
I10
sba(iopmop.models.schedule
Schedule
p1288
(dp1289
g64
(lp1290
sg50
I5263
sg156
I5263
sg157
g686
sg158
I5263
sg159
g6
(S'\x07\xe1\x06\x0c\x00\x00\x00\x00\x00\x00'
p1291
tp1292
Rp1293
sg163
I00
sg164
I5263
sg23
I11
sba(iopmop.models.schedule
Schedule
p1294
(dp1295
g64
(lp1296
sg50
I5263
sg156
I5263
sg157
g686
sg158
I5263
sg159
g6
(S'\x07\xe1\x06\r\x00\x00\x00\x00\x00\x00'
p1297
tp1298
Rp1299
sg163
I00
sg164
I5263
sg23
I12
sba(iopmop.models.schedule
Schedule
p1300
(dp1301
g64
(lp1302
sg50
I5263
sg156
I5263
sg157
g686
sg158
I5263
sg159
g6
(S'\x07\xe1\x06\x0e\x00\x00\x00\x00\x00\x00'
p1303
tp1304
Rp1305
sg163
I00
sg164
I5263
sg23
I13
sba(iopmop.models.schedule
Schedule
p1306
(dp1307
g64
(lp1308
sg50
I5263
sg156
I5263
sg157
g686
sg158
I5263
sg159
g6
(S'\x07\xe1\x06\x0f\x00\x00\x00\x00\x00\x00'
p1309
tp1310
Rp1311
sg163
I00
sg164
I5263
sg23
I14
sba(iopmop.models.schedule
Schedule
p1312
(dp1313
g64
(lp1314
sg50
I5263
sg156
I5263
sg157
g686
sg158
I5263
sg159
g6
(S'\x07\xe1\x06\x10\x00\x00\x00\x00\x00\x00'
p1315
tp1316
Rp1317
sg163
I00
sg164
I5263
sg23
I15
sba(iopmop.models.schedule
Schedule
p1318
(dp1319
g64
(lp1320
sg50
I5263
sg156
I5263
sg157
g686
sg158
I5263
sg159
g6
(S'\x07\xe1\x06\x11\x00\x00\x00\x00\x00\x00'
p1321
tp1322
Rp1323
sg163
I00
sg164
I5263
sg23
I16
sba(iopmop.models.schedule
Schedule
p1324
(dp1325
g64
(lp1326
sg50
I5263
sg156
I5263
sg157
g686
sg158
I5263
sg159
g6
(S'\x07\xe1\x06\x12\x00\x00\x00\x00\x00\x00'
p1327
tp1328
Rp1329
sg163
I00
sg164
I5263
sg23
I17
sba(iopmop.models.schedule
Schedule
p1330
(dp1331
g64
(lp1332
sg50
I5263
sg156
I5263
sg157
g686
sg158
I5263
sg159
g6
(S'\x07\xe1\x06\x13\x00\x00\x00\x00\x00\x00'
p1333
tp1334
Rp1335
sg163
I00
sg164
I5263
sg23
I18
sbasg23
I2
sg685
I19
sba(iopmop.models.mission
Mission
p1336
(dp1337
g5
g6
(S'\x07\xe1\x06\x01\x00\x00\x00\x00\x00\x00'
p1338
tp1339
Rp1340
sg10
(lp1341
g12
ag26
ag31
ag36
ag41
asg46
g6
(S'\x07\xe1\x06\x14\x00\x00\x00\x00\x00\x00'
p1342
tp1343
Rp1344
sg50
I90000
sg51
S'Metal june'
p1345
sg53
(iopmop.models.location
Location
p1346
(dp1347
g14
(iopmop.models.point
Point
p1348
(dp1349
g17
F40.52144455481663
sg18
I4
sg19
F-112.14980874008938
sg20
I88
sbsg21
g58
sg23
I3
sg24
S'Site3'
p1350
sbsg60
(lp1351
(iopmop.models.schedule
Schedule
p1352
(dp1353
g64
(lp1354
(iopmop.models.task
DigTask
p1355
(dp1356
g50
F1120.0
sg68
I3
sg69
g70
sg71
Nsg72
Nsg73
g1346
sg74
g6
(S'\x07\xe1\x06\x01\t\x00\x00\x00\x00\x00'
p1357
tp1358
Rp1359
sg78
g6
(S'\x07\xe1\x06\x01\x10\x00\x00\x00\x00\x00'
p1360
tp1361
Rp1362
sg23
S'0-0'
p1363
sba(iopmop.models.task
DigTask
p1364
(dp1365
g50
F3616.0
sg68
I5
sg69
g70
sg71
Nsg72
Nsg73
g1346
sg74
g6
(S'\x07\xe1\x06\x01\t\x00\x00\x00\x00\x00'
p1366
tp1367
Rp1368
sg78
g6
(S'\x07\xe1\x06\x01\x0e\x1e7\x02\x0f\xdf'
p1369
tp1370
Rp1371
sg23
S'0-0'
p1372
sba(iopmop.models.task
LoadTask
p1373
(dp1374
g50
F4140.0
sg68
I11
sg69
g70
sg71
Nsg72
Nsg73
g1346
sg74
g6
(S'\x07\xe1\x06\x01\t\x00\x00\x00\x00\x00'
p1375
tp1376
Rp1377
sg78
g6
(S'\x07\xe1\x06\x01\x11\x00\x00\x00\x00\x00'
p1378
tp1379
Rp1380
sg23
S'0-0'
p1381
sba(iopmop.models.task
LoadTask
p1382
(dp1383
g50
F1340.0
sg68
I15
sg69
g70
sg71
Nsg72
Nsg73
g1346
sg74
g6
(S'\x07\xe1\x06\x01\x10\x00\x00\x00\x00\x00'
p1384
tp1385
Rp1386
sg78
g6
(S'\x07\xe1\x06\x01\x11\x00\x00\x00\x00\x00'
p1387
tp1388
Rp1389
sg23
S'0-0'
p1390
sbasg50
I4736
sg156
F0.0
sg157
g1336
sg158
F-744.0
sg159
g6
(S'\x07\xe1\x06\x01\x00\x00\x00\x00\x00\x00'
p1391
tp1392
Rp1393
sg163
I01
sg164
F4736.0
sg23
I0
sba(iopmop.models.schedule
Schedule
p1394
(dp1395
g64
(lp1396
(iopmop.models.task
DigTask
p1397
(dp1398
g50
F1120.0
sg68
I3
sg69
g70
sg71
Nsg72
Nsg73
g1346
sg74
g6
(S'\x07\xe1\x06\x02\t\x00\x00\x00\x00\x00'
p1399
tp1400
Rp1401
sg78
g6
(S'\x07\xe1\x06\x02\x10\x00\x00\x00\x00\x00'
p1402
tp1403
Rp1404
sg23
S'1-0'
p1405
sba(iopmop.models.task
DigTask
p1406
(dp1407
g50
F3616.0
sg68
I5
sg69
g70
sg71
Nsg72
Nsg73
g1346
sg74
g6
(S'\x07\xe1\x06\x02\t\x00\x00\x00\x00\x00'
p1408
tp1409
Rp1410
sg78
g6
(S'\x07\xe1\x06\x02\x0e\x1e7\x02\x0f\xdf'
p1411
tp1412
Rp1413
sg23
S'1-0'
p1414
sba(iopmop.models.task
LoadTask
p1415
(dp1416
g50
F4140.0
sg68
I11
sg69
g70
sg71
Nsg72
Nsg73
g1346
sg74
g6
(S'\x07\xe1\x06\x02\t\x00\x00\x00\x00\x00'
p1417
tp1418
Rp1419
sg78
g6
(S'\x07\xe1\x06\x02\x11\x00\x00\x00\x00\x00'
p1420
tp1421
Rp1422
sg23
S'1-0'
p1423
sba(iopmop.models.task
LoadTask
p1424
(dp1425
g50
F1340.0
sg68
I15
sg69
g70
sg71
Nsg72
Nsg73
g1346
sg74
g6
(S'\x07\xe1\x06\x02\x0e\x00\x00\x00\x00\x00'
p1426
tp1427
Rp1428
sg78
g6
(S'\x07\xe1\x06\x02\x0f\x00\x00\x00\x00\x00'
p1429
tp1430
Rp1431
sg23
S'1-0'
p1432
sbasg50
I4736
sg156
F0.0
sg157
g1336
sg158
F-744.0
sg159
g6
(S'\x07\xe1\x06\x02\x00\x00\x00\x00\x00\x00'
p1433
tp1434
Rp1435
sg163
I01
sg164
F4736.0
sg23
I1
sba(iopmop.models.schedule
Schedule
p1436
(dp1437
g64
(lp1438
(iopmop.models.task
DigTask
p1439
(dp1440
g50
F1120.0
sg68
I3
sg69
g70
sg71
Nsg72
Nsg73
g1346
sg74
g6
(S'\x07\xe1\x06\x03\t\x00\x00\x00\x00\x00'
p1441
tp1442
Rp1443
sg78
g6
(S'\x07\xe1\x06\x03\x10\x00\x00\x00\x00\x00'
p1444
tp1445
Rp1446
sg23
S'2-0'
p1447
sba(iopmop.models.task
DigTask
p1448
(dp1449
g50
F3616.0
sg68
I5
sg69
g70
sg71
Nsg72
Nsg73
g1346
sg74
g6
(S'\x07\xe1\x06\x03\t\x00\x00\x00\x00\x00'
p1450
tp1451
Rp1452
sg78
g6
(S'\x07\xe1\x06\x03\x0e\x1e7\x02\x0f\xdf'
p1453
tp1454
Rp1455
sg23
S'2-0'
p1456
sba(iopmop.models.task
LoadTask
p1457
(dp1458
g50
F5360.0
sg68
I15
sg69
g70
sg71
Nsg72
Nsg73
g1346
sg74
g6
(S'\x07\xe1\x06\x03\t\x00\x00\x00\x00\x00'
p1459
tp1460
Rp1461
sg78
g6
(S'\x07\xe1\x06\x03\x10\x00\x00\x00\x00\x00'
p1462
tp1463
Rp1464
sg23
S'2-0'
p1465
sbasg50
I4736
sg156
F0.0
sg157
g1336
sg158
F-624.0
sg159
g6
(S'\x07\xe1\x06\x03\x00\x00\x00\x00\x00\x00'
p1466
tp1467
Rp1468
sg163
I01
sg164
F4736.0
sg23
I2
sba(iopmop.models.schedule
Schedule
p1469
(dp1470
g64
(lp1471
sg50
I4736
sg156
I4736
sg157
g1336
sg158
I4736
sg159
g6
(S'\x07\xe1\x06\x04\x00\x00\x00\x00\x00\x00'
p1472
tp1473
Rp1474
sg163
I00
sg164
I4736
sg23
I3
sba(iopmop.models.schedule
Schedule
p1475
(dp1476
g64
(lp1477
sg50
I4736
sg156
I4736
sg157
g1336
sg158
I4736
sg159
g6
(S'\x07\xe1\x06\x05\x00\x00\x00\x00\x00\x00'
p1478
tp1479
Rp1480
sg163
I00
sg164
I4736
sg23
I4
sba(iopmop.models.schedule
Schedule
p1481
(dp1482
g64
(lp1483
sg50
I4736
sg156
I4736
sg157
g1336
sg158
I4736
sg159
g6
(S'\x07\xe1\x06\x06\x00\x00\x00\x00\x00\x00'
p1484
tp1485
Rp1486
sg163
I00
sg164
I4736
sg23
I5
sba(iopmop.models.schedule
Schedule
p1487
(dp1488
g64
(lp1489
sg50
I4736
sg156
I4736
sg157
g1336
sg158
I4736
sg159
g6
(S'\x07\xe1\x06\x07\x00\x00\x00\x00\x00\x00'
p1490
tp1491
Rp1492
sg163
I00
sg164
I4736
sg23
I6
sba(iopmop.models.schedule
Schedule
p1493
(dp1494
g64
(lp1495
sg50
I4736
sg156
I4736
sg157
g1336
sg158
I4736
sg159
g6
(S'\x07\xe1\x06\x08\x00\x00\x00\x00\x00\x00'
p1496
tp1497
Rp1498
sg163
I00
sg164
I4736
sg23
I7
sba(iopmop.models.schedule
Schedule
p1499
(dp1500
g64
(lp1501
sg50
I4736
sg156
I4736
sg157
g1336
sg158
I4736
sg159
g6
(S'\x07\xe1\x06\t\x00\x00\x00\x00\x00\x00'
p1502
tp1503
Rp1504
sg163
I00
sg164
I4736
sg23
I8
sba(iopmop.models.schedule
Schedule
p1505
(dp1506
g64
(lp1507
sg50
I4736
sg156
I4736
sg157
g1336
sg158
I4736
sg159
g6
(S'\x07\xe1\x06\n\x00\x00\x00\x00\x00\x00'
p1508
tp1509
Rp1510
sg163
I00
sg164
I4736
sg23
I9
sba(iopmop.models.schedule
Schedule
p1511
(dp1512
g64
(lp1513
sg50
I4736
sg156
I4736
sg157
g1336
sg158
I4736
sg159
g6
(S'\x07\xe1\x06\x0b\x00\x00\x00\x00\x00\x00'
p1514
tp1515
Rp1516
sg163
I00
sg164
I4736
sg23
I10
sba(iopmop.models.schedule
Schedule
p1517
(dp1518
g64
(lp1519
sg50
I4736
sg156
I4736
sg157
g1336
sg158
I4736
sg159
g6
(S'\x07\xe1\x06\x0c\x00\x00\x00\x00\x00\x00'
p1520
tp1521
Rp1522
sg163
I00
sg164
I4736
sg23
I11
sba(iopmop.models.schedule
Schedule
p1523
(dp1524
g64
(lp1525
sg50
I4736
sg156
I4736
sg157
g1336
sg158
I4736
sg159
g6
(S'\x07\xe1\x06\r\x00\x00\x00\x00\x00\x00'
p1526
tp1527
Rp1528
sg163
I00
sg164
I4736
sg23
I12
sba(iopmop.models.schedule
Schedule
p1529
(dp1530
g64
(lp1531
sg50
I4736
sg156
I4736
sg157
g1336
sg158
I4736
sg159
g6
(S'\x07\xe1\x06\x0e\x00\x00\x00\x00\x00\x00'
p1532
tp1533
Rp1534
sg163
I00
sg164
I4736
sg23
I13
sba(iopmop.models.schedule
Schedule
p1535
(dp1536
g64
(lp1537
sg50
I4736
sg156
I4736
sg157
g1336
sg158
I4736
sg159
g6
(S'\x07\xe1\x06\x0f\x00\x00\x00\x00\x00\x00'
p1538
tp1539
Rp1540
sg163
I00
sg164
I4736
sg23
I14
sba(iopmop.models.schedule
Schedule
p1541
(dp1542
g64
(lp1543
sg50
I4736
sg156
I4736
sg157
g1336
sg158
I4736
sg159
g6
(S'\x07\xe1\x06\x10\x00\x00\x00\x00\x00\x00'
p1544
tp1545
Rp1546
sg163
I00
sg164
I4736
sg23
I15
sba(iopmop.models.schedule
Schedule
p1547
(dp1548
g64
(lp1549
sg50
I4736
sg156
I4736
sg157
g1336
sg158
I4736
sg159
g6
(S'\x07\xe1\x06\x11\x00\x00\x00\x00\x00\x00'
p1550
tp1551
Rp1552
sg163
I00
sg164
I4736
sg23
I16
sba(iopmop.models.schedule
Schedule
p1553
(dp1554
g64
(lp1555
sg50
I4736
sg156
I4736
sg157
g1336
sg158
I4736
sg159
g6
(S'\x07\xe1\x06\x12\x00\x00\x00\x00\x00\x00'
p1556
tp1557
Rp1558
sg163
I00
sg164
I4736
sg23
I17
sba(iopmop.models.schedule
Schedule
p1559
(dp1560
g64
(lp1561
sg50
I4736
sg156
I4736
sg157
g1336
sg158
I4736
sg159
g6
(S'\x07\xe1\x06\x13\x00\x00\x00\x00\x00\x00'
p1562
tp1563
Rp1564
sg163
I00
sg164
I4736
sg23
I18
sbasg23
I3
sg685
I19
sba(iopmop.models.mission
Mission
p1565
(dp1566
g5
g6
(S'\x07\xe1\x06\x01\x00\x00\x00\x00\x00\x00'
p1567
tp1568
Rp1569
sg10
(lp1570
g12
ag26
ag31
ag36
ag41
asg46
g6
(S'\x07\xe1\x06\x1e\x00\x00\x00\x00\x00\x00'
p1571
tp1572
Rp1573
sg50
I50000
sg51
S'Gold rush'
p1574
sg53
(iopmop.models.location
Location
p1575
(dp1576
g14
(iopmop.models.point
Point
p1577
(dp1578
g17
F40.518862269185945
sg18
I3
sg19
F-112.14784948551801
sg20
I125
sbsg21
g58
sg23
I4
sg24
S'Site4'
p1579
sbsg60
(lp1580
(iopmop.models.schedule
Schedule
p1581
(dp1582
g64
(lp1583
(iopmop.models.task
DigTask
p1584
(dp1585
g50
F1724.0
sg68
I7
sg69
g70
sg71
Nsg72
Nsg73
g1575
sg74
g6
(S'\x07\xe1\x06\x01\t\x00\x00\x00\x00\x00'
p1586
tp1587
Rp1588
sg78
g6
(S'\x07\xe1\x06\x01\r2\x04\x00\xf4\xd2'
p1589
tp1590
Rp1591
sg23
S'0-0'
p1592
sba(iopmop.models.task
LoadTask
p1593
(dp1594
g50
F2226.0
sg68
I14
sg69
g70
sg71
Nsg72
Nsg73
g1575
sg74
g6
(S'\x07\xe1\x06\x01\t\x00\x00\x00\x00\x00'
p1595
tp1596
Rp1597
sg78
g6
(S'\x07\xe1\x06\x01\x0c\x0c\x00\x00\x00\x00'
p1598
tp1599
Rp1600
sg23
S'0-0'
p1601
sba(iopmop.models.task
HaulageTask
p1602
(dp1603
g72
Nsg50
I351
sg68
I41
sg69
g70
sg71
Nsg94
g31
sg73
g1575
sg74
g6
(S'\x07\xe1\x06\x01\t&8\x0b\xc2\xe8'
p1604
tp1605
Rp1606
sg78
g6
(S'\x07\xe1\x06\x01\t:\x19\x02b\x1c'
p1607
tp1608
Rp1609
sg23
S'0-1'
p1610
sba(iopmop.models.task
HaulageTask
p1611
(dp1612
g72
Nsg50
I385
sg68
I25
sg69
g70
sg71
Nsg94
g31
sg73
g1575
sg74
g6
(S'\x07\xe1\x06\x01\n\x12\x05\x01b\x84'
p1613
tp1614
Rp1615
sg78
g6
(S'\x07\xe1\x06\x01\n%$\x05\x8b\xb5'
p1616
tp1617
Rp1618
sg23
S'0-1'
p1619
sba(iopmop.models.task
HaulageTask
p1620
(dp1621
g72
Nsg50
I452
sg68
I47
sg69
g70
sg71
Nsg94
g31
sg73
g1575
sg74
g6
(S'\x07\xe1\x06\x01\n54\x00~\xc8'
p1622
tp1623
Rp1624
sg78
g6
(S'\x07\xe1\x06\x01\x0b\x0c2\n\xc0\x14'
p1625
tp1626
Rp1627
sg23
S'0-1'
p1628
sba(iopmop.models.task
HaulageTask
p1629
(dp1630
g72
Nsg50
I356
sg68
I29
sg69
g70
sg71
Nsg94
g31
sg73
g1575
sg74
g6
(S'\x07\xe1\x06\x01\x0b\x15\x18\x08\xe3\xcb'
p1631
tp1632
Rp1633
sg78
g6
(S'\x07\xe1\x06\x01\x0b)$\n(\xe8'
p1634
tp1635
Rp1636
sg23
S'0-1'
p1637
sba(iopmop.models.task
HaulageTask
p1638
(dp1639
g72
Nsg50
I384
sg68
I24
sg69
g70
sg71
Nsg94
g31
sg73
g1575
sg74
g6
(S'\x07\xe1\x06\x01\x0c\x03\x10\x08\x12?'
p1640
tp1641
Rp1642
sg78
g6
(S'\x07\xe1\x06\x01\x0c\x17&\x05\x93\xc6'
p1643
tp1644
Rp1645
sg23
S'0-1'
p1646
sbasg50
I1724
sg156
F0.0
sg157
g1565
sg158
F-502.0
sg159
g6
(S'\x07\xe1\x06\x01\x00\x00\x00\x00\x00\x00'
p1647
tp1648
Rp1649
sg163
I01
sg164
F-204.0
sg23
I0
sba(iopmop.models.schedule
Schedule
p1650
(dp1651
g64
(lp1652
sg50
I1724
sg156
I1724
sg157
g1565
sg158
I1724
sg159
g6
(S'\x07\xe1\x06\x02\x00\x00\x00\x00\x00\x00'
p1653
tp1654
Rp1655
sg163
I00
sg164
I1724
sg23
I1
sba(iopmop.models.schedule
Schedule
p1656
(dp1657
g64
(lp1658
sg50
I1724
sg156
I1724
sg157
g1565
sg158
I1724
sg159
g6
(S'\x07\xe1\x06\x03\x00\x00\x00\x00\x00\x00'
p1659
tp1660
Rp1661
sg163
I00
sg164
I1724
sg23
I2
sba(iopmop.models.schedule
Schedule
p1662
(dp1663
g64
(lp1664
sg50
I1724
sg156
I1724
sg157
g1565
sg158
I1724
sg159
g6
(S'\x07\xe1\x06\x04\x00\x00\x00\x00\x00\x00'
p1665
tp1666
Rp1667
sg163
I00
sg164
I1724
sg23
I3
sba(iopmop.models.schedule
Schedule
p1668
(dp1669
g64
(lp1670
sg50
I1724
sg156
I1724
sg157
g1565
sg158
I1724
sg159
g6
(S'\x07\xe1\x06\x05\x00\x00\x00\x00\x00\x00'
p1671
tp1672
Rp1673
sg163
I00
sg164
I1724
sg23
I4
sba(iopmop.models.schedule
Schedule
p1674
(dp1675
g64
(lp1676
sg50
I1724
sg156
I1724
sg157
g1565
sg158
I1724
sg159
g6
(S'\x07\xe1\x06\x06\x00\x00\x00\x00\x00\x00'
p1677
tp1678
Rp1679
sg163
I00
sg164
I1724
sg23
I5
sba(iopmop.models.schedule
Schedule
p1680
(dp1681
g64
(lp1682
sg50
I1724
sg156
I1724
sg157
g1565
sg158
I1724
sg159
g6
(S'\x07\xe1\x06\x07\x00\x00\x00\x00\x00\x00'
p1683
tp1684
Rp1685
sg163
I00
sg164
I1724
sg23
I6
sba(iopmop.models.schedule
Schedule
p1686
(dp1687
g64
(lp1688
sg50
I1724
sg156
I1724
sg157
g1565
sg158
I1724
sg159
g6
(S'\x07\xe1\x06\x08\x00\x00\x00\x00\x00\x00'
p1689
tp1690
Rp1691
sg163
I00
sg164
I1724
sg23
I7
sba(iopmop.models.schedule
Schedule
p1692
(dp1693
g64
(lp1694
sg50
I1724
sg156
I1724
sg157
g1565
sg158
I1724
sg159
g6
(S'\x07\xe1\x06\t\x00\x00\x00\x00\x00\x00'
p1695
tp1696
Rp1697
sg163
I00
sg164
I1724
sg23
I8
sba(iopmop.models.schedule
Schedule
p1698
(dp1699
g64
(lp1700
sg50
I1724
sg156
I1724
sg157
g1565
sg158
I1724
sg159
g6
(S'\x07\xe1\x06\n\x00\x00\x00\x00\x00\x00'
p1701
tp1702
Rp1703
sg163
I00
sg164
I1724
sg23
I9
sba(iopmop.models.schedule
Schedule
p1704
(dp1705
g64
(lp1706
sg50
I1724
sg156
I1724
sg157
g1565
sg158
I1724
sg159
g6
(S'\x07\xe1\x06\x0b\x00\x00\x00\x00\x00\x00'
p1707
tp1708
Rp1709
sg163
I00
sg164
I1724
sg23
I10
sba(iopmop.models.schedule
Schedule
p1710
(dp1711
g64
(lp1712
sg50
I1724
sg156
I1724
sg157
g1565
sg158
I1724
sg159
g6
(S'\x07\xe1\x06\x0c\x00\x00\x00\x00\x00\x00'
p1713
tp1714
Rp1715
sg163
I00
sg164
I1724
sg23
I11
sba(iopmop.models.schedule
Schedule
p1716
(dp1717
g64
(lp1718
sg50
I1724
sg156
I1724
sg157
g1565
sg158
I1724
sg159
g6
(S'\x07\xe1\x06\r\x00\x00\x00\x00\x00\x00'
p1719
tp1720
Rp1721
sg163
I00
sg164
I1724
sg23
I12
sba(iopmop.models.schedule
Schedule
p1722
(dp1723
g64
(lp1724
sg50
I1724
sg156
I1724
sg157
g1565
sg158
I1724
sg159
g6
(S'\x07\xe1\x06\x0e\x00\x00\x00\x00\x00\x00'
p1725
tp1726
Rp1727
sg163
I00
sg164
I1724
sg23
I13
sba(iopmop.models.schedule
Schedule
p1728
(dp1729
g64
(lp1730
sg50
I1724
sg156
I1724
sg157
g1565
sg158
I1724
sg159
g6
(S'\x07\xe1\x06\x0f\x00\x00\x00\x00\x00\x00'
p1731
tp1732
Rp1733
sg163
I00
sg164
I1724
sg23
I14
sba(iopmop.models.schedule
Schedule
p1734
(dp1735
g64
(lp1736
sg50
I1724
sg156
I1724
sg157
g1565
sg158
I1724
sg159
g6
(S'\x07\xe1\x06\x10\x00\x00\x00\x00\x00\x00'
p1737
tp1738
Rp1739
sg163
I00
sg164
I1724
sg23
I15
sba(iopmop.models.schedule
Schedule
p1740
(dp1741
g64
(lp1742
sg50
I1724
sg156
I1724
sg157
g1565
sg158
I1724
sg159
g6
(S'\x07\xe1\x06\x11\x00\x00\x00\x00\x00\x00'
p1743
tp1744
Rp1745
sg163
I00
sg164
I1724
sg23
I16
sba(iopmop.models.schedule
Schedule
p1746
(dp1747
g64
(lp1748
sg50
I1724
sg156
I1724
sg157
g1565
sg158
I1724
sg159
g6
(S'\x07\xe1\x06\x12\x00\x00\x00\x00\x00\x00'
p1749
tp1750
Rp1751
sg163
I00
sg164
I1724
sg23
I17
sba(iopmop.models.schedule
Schedule
p1752
(dp1753
g64
(lp1754
sg50
I1724
sg156
I1724
sg157
g1565
sg158
I1724
sg159
g6
(S'\x07\xe1\x06\x13\x00\x00\x00\x00\x00\x00'
p1755
tp1756
Rp1757
sg163
I00
sg164
I1724
sg23
I18
sba(iopmop.models.schedule
Schedule
p1758
(dp1759
g64
(lp1760
sg50
I1724
sg156
I1724
sg157
g1565
sg158
I1724
sg159
g6
(S'\x07\xe1\x06\x14\x00\x00\x00\x00\x00\x00'
p1761
tp1762
Rp1763
sg163
I00
sg164
I1724
sg23
I19
sba(iopmop.models.schedule
Schedule
p1764
(dp1765
g64
(lp1766
sg50
I1724
sg156
I1724
sg157
g1565
sg158
I1724
sg159
g6
(S'\x07\xe1\x06\x15\x00\x00\x00\x00\x00\x00'
p1767
tp1768
Rp1769
sg163
I00
sg164
I1724
sg23
I20
sba(iopmop.models.schedule
Schedule
p1770
(dp1771
g64
(lp1772
sg50
I1724
sg156
I1724
sg157
g1565
sg158
I1724
sg159
g6
(S'\x07\xe1\x06\x16\x00\x00\x00\x00\x00\x00'
p1773
tp1774
Rp1775
sg163
I00
sg164
I1724
sg23
I21
sba(iopmop.models.schedule
Schedule
p1776
(dp1777
g64
(lp1778
sg50
I1724
sg156
I1724
sg157
g1565
sg158
I1724
sg159
g6
(S'\x07\xe1\x06\x17\x00\x00\x00\x00\x00\x00'
p1779
tp1780
Rp1781
sg163
I00
sg164
I1724
sg23
I22
sba(iopmop.models.schedule
Schedule
p1782
(dp1783
g64
(lp1784
sg50
I1724
sg156
I1724
sg157
g1565
sg158
I1724
sg159
g6
(S'\x07\xe1\x06\x18\x00\x00\x00\x00\x00\x00'
p1785
tp1786
Rp1787
sg163
I00
sg164
I1724
sg23
I23
sba(iopmop.models.schedule
Schedule
p1788
(dp1789
g64
(lp1790
sg50
I1724
sg156
I1724
sg157
g1565
sg158
I1724
sg159
g6
(S'\x07\xe1\x06\x19\x00\x00\x00\x00\x00\x00'
p1791
tp1792
Rp1793
sg163
I00
sg164
I1724
sg23
I24
sba(iopmop.models.schedule
Schedule
p1794
(dp1795
g64
(lp1796
(iopmop.models.task
DigTask
p1797
(dp1798
g50
F1724.0
sg68
I9
sg69
g299
sg71
Nsg72
Nsg73
g1575
sg74
g6
(S'\x07\xe1\x06\x1a\t\x00\x00\x00\x00\x00'
p1799
tp1800
Rp1801
sg78
g6
(S'\x07\xe1\x06\x1a\x0c\x0f\x15\x07\x83\xeb'
p1802
tp1803
Rp1804
sg23
S'25-0'
p1805
sba(iopmop.models.task
LoadTask
p1806
(dp1807
g50
F2345.0
sg68
I15
sg69
g299
sg71
Nsg72
Nsg73
g1575
sg74
g6
(S'\x07\xe1\x06\x1a\t\x00\x00\x00\x00\x00'
p1808
tp1809
Rp1810
sg78
g6
(S'\x07\xe1\x06\x1a\x0b\x1e\x00\x00\x00\x00'
p1811
tp1812
Rp1813
sg23
S'25-0'
p1814
sba(iopmop.models.task
HaulageTask
p1815
(dp1816
g50
I351
sg68
I41
sg69
g299
sg94
g31
sg71
Nsg72
Nsg73
g1575
sg74
g6
(S'\x07\xe1\x06\x1a\t&8\x0b\xc2\xe8'
p1817
tp1818
Rp1819
sg78
g6
(S'\x07\xe1\x06\x1a\t:\x19\x02b\x1c'
p1820
tp1821
Rp1822
sg23
S'25-1'
p1823
sba(iopmop.models.task
HaulageTask
p1824
(dp1825
g50
I385
sg68
I25
sg69
g299
sg94
g31
sg71
Nsg72
Nsg73
g1575
sg74
g6
(S'\x07\xe1\x06\x1a\t:!\x0c{\x93'
p1826
tp1827
Rp1828
sg78
g6
(S'\x07\xe1\x06\x1a\n\x12\x05\x01b\x84'
p1829
tp1830
Rp1831
sg23
S'25-1'
p1832
sba(iopmop.models.task
HaulageTask
p1833
(dp1834
g50
I452
sg68
I47
sg69
g299
sg94
g31
sg71
Nsg72
Nsg73
g1575
sg74
g6
(S'\x07\xe1\x06\x1a\n"5\x05\x7f\xbc'
p1835
tp1836
Rp1837
sg78
g6
(S'\x07\xe1\x06\x1a\n54\x00~\xc8'
p1838
tp1839
Rp1840
sg23
S'25-1'
p1841
sba(iopmop.models.task
HaulageTask
p1842
(dp1843
g50
I351
sg68
I41
sg69
g299
sg94
g31
sg71
Nsg72
Nsg73
g1575
sg74
g6
(S'\x07\xe1\x06\x1a\n82\x04\xc48'
p1844
tp1845
Rp1846
sg78
g6
(S'\x07\xe1\x06\x1a\x0b\x10\x12\n\xa5\xac'
p1847
tp1848
Rp1849
sg23
S'25-1'
p1850
sba(iopmop.models.task
HaulageTask
p1851
(dp1852
g50
I385
sg68
I25
sg69
g299
sg94
g31
sg71
Nsg72
Nsg73
g1575
sg74
g6
(S'\x07\xe1\x06\x1a\x0b\x10&\r\xde\x17'
p1853
tp1854
Rp1855
sg78
g6
(S'\x07\xe1\x06\x1a\x0b$\n\x02\xc5\x08'
p1856
tp1857
Rp1858
sg23
S'25-1'
p1859
sbasg50
I1724
sg156
F0.0
sg157
g1565
sg158
F-621.0
sg159
g6
(S'\x07\xe1\x06\x1a\x00\x00\x00\x00\x00\x00'
p1860
tp1861
Rp1862
sg163
I01
sg164
F-200.0
sg23
I25
sba(iopmop.models.schedule
Schedule
p1863
(dp1864
g64
(lp1865
sg50
I1724
sg156
I1724
sg157
g1565
sg158
I1724
sg159
g6
(S'\x07\xe1\x06\x1b\x00\x00\x00\x00\x00\x00'
p1866
tp1867
Rp1868
sg163
I00
sg164
I1724
sg23
I26
sba(iopmop.models.schedule
Schedule
p1869
(dp1870
g64
(lp1871
sg50
I1724
sg156
I1724
sg157
g1565
sg158
I1724
sg159
g6
(S'\x07\xe1\x06\x1c\x00\x00\x00\x00\x00\x00'
p1872
tp1873
Rp1874
sg163
I00
sg164
I1724
sg23
I27
sba(iopmop.models.schedule
Schedule
p1875
(dp1876
g64
(lp1877
sg50
I1724
sg156
I1724
sg157
g1565
sg158
I1724
sg159
g6
(S'\x07\xe1\x06\x1d\x00\x00\x00\x00\x00\x00'
p1878
tp1879
Rp1880
sg163
I00
sg164
I1724
sg23
I28
sbasg23
I4
sg685
I29
sbasS'machines'
p1881
(lp1882
(iopmop.models.machine
Shovel
p1883
(dp1884
S'weightCapacity'
p1885
I95
sS'weight'
p1886
I1158
sg14
(iopmop.models.point
Point
p1887
(dp1888
g17
F40.5174143845541
sg18
I17
sg19
F-112.1200861232387
sg20
I225
sbsS'speed'
p1889
I15
sS'staticFuelConsumption'
p1890
I109
sS'isAvailable'
p1891
I01
sS'fuelConsumption'
p1892
I187
sS'model'
p1893
S'SHV0'
p1894
sS'fuelCapacity'
p1895
I10186
sg23
I0
sba(iopmop.models.machine
Shovel
p1896
(dp1897
g1885
I76
sg1886
I1973
sg14
(iopmop.models.point
Point
p1898
(dp1899
g17
F40.51952590776382
sg18
I1
sg19
F-112.14713725991055
sg20
I123
sbsg1889
I16
sg1890
I93
sg1891
I01
sg1892
I178
sg1893
S'SHV1'
p1900
sg1895
I9966
sg23
I1
sba(iopmop.models.machine
Shovel
p1901
(dp1902
g1885
I41
sg1886
I1403
sg14
(iopmop.models.point
Point
p1903
(dp1904
g17
F40.519889282781556
sg18
I7
sg19
F-112.1570778643424
sg20
I111
sbsg1889
I16
sg1890
I120
sg1891
I01
sg1892
I197
sg1893
S'SHV2'
p1905
sg1895
I8832
sg23
I2
sba(iopmop.models.machine
Shovel
p1906
(dp1907
g1885
I28
sg1886
I1825
sg14
(iopmop.models.point
Point
p1908
(dp1909
g17
F40.51674876769078
sg18
I4
sg19
F-112.13403198666379
sg20
I233
sbsg1889
I12
sg1890
I81
sg1891
I01
sg1892
I176
sg1893
S'SHV3'
p1910
sg1895
I10439
sg23
I3
sba(iopmop.models.machine
Shovel
p1911
(dp1912
g1885
I85
sg1886
I1433
sg14
g15
sg1889
I19
sg1890
I86
sg1891
I01
sg1892
I173
sg1893
S'SHV4'
p1913
sg1895
I11404
sg23
I4
sba(iopmop.models.machine
Shovel
p1914
(dp1915
g1885
I111
sg1886
I1174
sg14
(iopmop.models.point
Point
p1916
(dp1917
g17
F40.528067561722764
sg18
I2
sg19
F-112.14214828710544
sg20
I132
sbsg1889
I12
sg1890
I95
sg1891
I01
sg1892
I193
sg1893
S'SHV5'
p1918
sg1895
I8187
sg23
I5
sba(iopmop.models.machine
Shovel
p1919
(dp1920
g1885
I60
sg1886
I1046
sg14
g56
sg1889
I14
sg1890
I107
sg1891
I01
sg1892
I173
sg1893
S'SHV6'
p1921
sg1895
I8790
sg23
I6
sba(iopmop.models.machine
Shovel
p1922
(dp1923
g1885
I72
sg1886
I1475
sg14
(iopmop.models.point
Point
p1924
(dp1925
g17
F40.51967883063745
sg18
I1
sg19
F-112.14999783582493
sg20
I138
sbsg1889
I15
sg1890
I106
sg1891
I01
sg1892
I155
sg1893
S'SHV7'
p1926
sg1895
I8645
sg23
I7
sba(iopmop.models.machine
Shovel
p1927
(dp1928
g1885
I58
sg1886
I1619
sg14
(iopmop.models.point
Point
p1929
(dp1930
g17
F40.53127343080907
sg18
I3
sg19
F-112.15153489693762
sg20
I76
sbsg1889
I13
sg1890
I85
sg1891
I01
sg1892
I176
sg1893
S'SHV8'
p1931
sg1895
I9867
sg23
I8
sba(iopmop.models.machine
Shovel
p1932
(dp1933
g1885
I107
sg1886
I1060
sg14
(iopmop.models.point
Point
p1934
(dp1935
g17
F40.519089564731466
sg18
I4
sg19
F-112.15094331622777
sg20
I141
sbsg1889
I18
sg1890
I99
sg1891
I01
sg1892
I192
sg1893
S'SHV9'
p1936
sg1895
I10367
sg23
I9
sba(iopmop.models.machine
Loader
p1937
(dp1938
g1885
I48
sg1886
I356673
sg14
(iopmop.models.point
Point
p1939
(dp1940
g17
F40.52033422442912
sg18
I11
sg19
F-112.15743158337494
sg20
I115
sbsg1889
I41
sg1890
I99
sg1891
I01
sg1892
I178
sg1893
S'LOD10'
p1941
sg1895
I9925
sg23
I10
sba(iopmop.models.machine
Loader
p1942
(dp1943
g1885
I46
sg1886
I383859
sg14
(iopmop.models.point
Point
p1944
(dp1945
g17
F40.519089564731466
sg18
I3
sg19
F-112.15094331622777
sg20
I147
sbsg1889
I41
sg1890
I84
sg1891
I01
sg1892
I192
sg1893
S'LOD11'
p1946
sg1895
I11320
sg23
I11
sba(iopmop.models.machine
Loader
p1947
(dp1948
g1885
I65
sg1886
I328484
sg14
(iopmop.models.point
Point
p1949
(dp1950
g17
F40.519697181358865
sg18
I3
sg19
F-112.15714458174511
sg20
I122
sbsg1889
I44
sg1890
I113
sg1891
I01
sg1892
I189
sg1893
S'LOD12'
p1951
sg1895
I11208
sg23
I12
sba(iopmop.models.machine
Loader
p1952
(dp1953
g1885
I49
sg1886
I278766
sg14
g1348
sg1889
I40
sg1890
I84
sg1891
I01
sg1892
I155
sg1893
S'LOD13'
p1954
sg1895
I11339
sg23
I13
sba(iopmop.models.machine
Loader
p1955
(dp1956
g1885
I53
sg1886
I300604
sg14
(iopmop.models.point
Point
p1957
(dp1958
g17
F40.52199302087392
sg18
I1
sg19
F-112.1485695595245
sg20
I64
sbsg1889
I50
sg1890
I92
sg1891
I01
sg1892
I153
sg1893
S'LOD14'
p1959
sg1895
I8448
sg23
I14
sba(iopmop.models.machine
Loader
p1960
(dp1961
g1885
I67
sg1886
I265172
sg14
g1957
sg1889
I48
sg1890
I83
sg1891
I01
sg1892
I195
sg1893
S'LOD15'
p1962
sg1895
I8543
sg23
I15
sba(iopmop.models.machine
Loader
p1963
(dp1964
g1885
I54
sg1886
I259558
sg14
(iopmop.models.point
Point
p1965
(dp1966
g17
F40.51674367004452
sg18
I8
sg19
F-112.15372610635563
sg20
I130
sbsg1889
I47
sg1890
I90
sg1891
I01
sg1892
I198
sg1893
S'LOD16'
p1967
sg1895
I11881
sg23
I16
sba(iopmop.models.machine
Loader
p1968
(dp1969
g1885
I65
sg1886
I336589
sg14
g15
sg1889
I47
sg1890
I118
sg1891
I01
sg1892
I163
sg1893
S'LOD17'
p1970
sg1895
I10457
sg23
I17
sba(iopmop.models.machine
Loader
p1971
(dp1972
g1885
I46
sg1886
I275050
sg14
(iopmop.models.point
Point
p1973
(dp1974
g17
F40.52196651518252
sg18
I10
sg19
F-112.15500686116025
sg20
I10
sbsg1889
I43
sg1890
I89
sg1891
I01
sg1892
I177
sg1893
S'LOD18'
p1975
sg1895
I10208
sg23
I18
sba(iopmop.models.machine
Loader
p1976
(dp1977
g1885
I61
sg1886
I369300
sg14
(iopmop.models.point
Point
p1978
(dp1979
g17
F40.51802910641094
sg18
I16
sg19
F-112.1605648358053
sg20
I16
sbsg1889
I40
sg1890
I119
sg1891
I01
sg1892
I191
sg1893
S'LOD19'
p1980
sg1895
I11274
sg23
I19
sba(iopmop.models.machine
Truck
p1981
(dp1982
g1885
I257
sg1886
I358
sg14
g43
sg1889
I46
sg1890
I90
sg1891
I01
sg1892
I199
sg1893
S'TRK20'
p1983
sg1895
I9978
sg23
I20
sba(iopmop.models.machine
Truck
p1984
(dp1985
g1885
I478
sg1886
I335
sg14
(iopmop.models.point
Point
p1986
(dp1987
g17
F40.51722613443143
sg18
I3
sg19
F-112.13269675223654
sg20
I200
sbsg1889
I49
sg1890
I118
sg1891
I01
sg1892
I185
sg1893
S'TRK21'
p1988
sg1895
I11376
sg23
I21
sba(iopmop.models.machine
Truck
p1989
(dp1990
g1885
I474
sg1886
I282
sg14
(iopmop.models.point
Point
p1991
(dp1992
g17
F40.53002936641421
sg18
I2
sg19
F-112.14985069036732
sg20
I97
sbsg1889
I48
sg1890
I88
sg1891
I01
sg1892
I200
sg1893
S'TRK22'
p1993
sg1895
I11535
sg23
I22
sba(iopmop.models.machine
Truck
p1994
(dp1995
g1885
I296
sg1886
I273
sg14
(iopmop.models.point
Point
p1996
(dp1997
g17
F40.52595648401059
sg18
I5
sg19
F-112.1545160579335
sg20
I78
sbsg1889
I46
sg1890
I83
sg1891
I01
sg1892
I161
sg1893
S'TRK23'
p1998
sg1895
I11499
sg23
I23
sba(iopmop.models.machine
Truck
p1999
(dp2000
g1885
I384
sg1886
I381
sg14
(iopmop.models.point
Point
p2001
(dp2002
g17
F40.51882860152375
sg18
I2
sg19
F-112.15250166522429
sg20
I121
sbsg1889
I43
sg1890
I88
sg1891
I01
sg1892
I165
sg1893
S'TRK24'
p2003
sg1895
I8138
sg23
I24
sba(iopmop.models.machine
Truck
p2004
(dp2005
g1885
I385
sg1886
I283
sg14
(iopmop.models.point
Point
p2006
(dp2007
g17
F40.52222904690337
sg18
I2
sg19
F-112.15097983410101
sg20
I86
sbsg1889
I47
sg1890
I105
sg1891
I01
sg1892
I159
sg1893
S'TRK25'
p2008
sg1895
I9777
sg23
I25
sba(iopmop.models.machine
Truck
p2009
(dp2010
g1885
I466
sg1886
I291
sg14
(iopmop.models.point
Point
p2011
(dp2012
g17
F40.52196333372621
sg18
I7
sg19
F-112.13930995935533
sg20
I195
sbsg1889
I41
sg1890
I82
sg1891
I01
sg1892
I184
sg1893
S'TRK26'
p2013
sg1895
I9709
sg23
I26
sba(iopmop.models.machine
Truck
p2014
(dp2015
g1885
I441
sg1886
I295
sg14
(iopmop.models.point
Point
p2016
(dp2017
g17
F40.52178811121781
sg18
I28
sg19
F-112.12502244658276
sg20
I177
sbsg1889
I44
sg1890
I82
sg1891
I01
sg1892
I185
sg1893
S'TRK27'
p2018
sg1895
I10801
sg23
I27
sba(iopmop.models.machine
Truck
p2019
(dp2020
g1885
I442
sg1886
I280
sg14
(iopmop.models.point
Point
p2021
(dp2022
g17
F40.52505944774498
sg18
I5
sg19
F-112.1482852548599
sg20
I93
sbsg1889
I42
sg1890
I91
sg1891
I01
sg1892
I188
sg1893
S'TRK28'
p2023
sg1895
I9000
sg23
I28
sba(iopmop.models.machine
Truck
p2024
(dp2025
g1885
I356
sg1886
I254
sg14
g43
sg1889
I42
sg1890
I85
sg1891
I01
sg1892
I153
sg1893
S'TRK29'
p2026
sg1895
I9566
sg23
I29
sba(iopmop.models.machine
Truck
p2027
(dp2028
g1885
I315
sg1886
I259
sg14
(iopmop.models.point
Point
p2029
(dp2030
g17
F40.5226281282086
sg18
I2
sg19
F-112.15311724145829
sg20
I68
sbsg1889
I43
sg1890
I93
sg1891
I01
sg1892
I152
sg1893
S'TRK30'
p2031
sg1895
I10678
sg23
I30
sba(iopmop.models.machine
Truck
p2032
(dp2033
g1885
I399
sg1886
I279
sg14
(iopmop.models.point
Point
p2034
(dp2035
g17
F40.5198868051858
sg18
I1
sg19
F-112.15163398332402
sg20
I145
sbsg1889
I40
sg1890
I81
sg1891
I01
sg1892
I164
sg1893
S'TRK31'
p2036
sg1895
I9054
sg23
I31
sba(iopmop.models.machine
Truck
p2037
(dp2038
g1885
I353
sg1886
I344
sg14
g1924
sg1889
I45
sg1890
I91
sg1891
I01
sg1892
I192
sg1893
S'TRK32'
p2039
sg1895
I11359
sg23
I32
sba(iopmop.models.machine
Truck
p2040
(dp2041
g1885
I459
sg1886
I256
sg14
g1908
sg1889
I49
sg1890
I82
sg1891
I01
sg1892
I166
sg1893
S'TRK33'
p2042
sg1895
I8612
sg23
I33
sba(iopmop.models.machine
Truck
p2043
(dp2044
g1885
I382
sg1886
I337
sg14
(iopmop.models.point
Point
p2045
(dp2046
g17
F40.52154760144885
sg18
I16
sg19
F-112.14969724194981
sg20
I49
sbsg1889
I40
sg1890
I116
sg1891
I01
sg1892
I184
sg1893
S'TRK34'
p2047
sg1895
I10270
sg23
I34
sba(iopmop.models.machine
Truck
p2048
(dp2049
g1885
I490
sg1886
I309
sg14
(iopmop.models.point
Point
p2050
(dp2051
g17
F40.52204811588998
sg18
I25
sg19
F-112.15288531678806
sg20
I58
sbsg1889
I43
sg1890
I120
sg1891
I01
sg1892
I171
sg1893
S'TRK35'
p2052
sg1895
I8602
sg23
I35
sba(iopmop.models.machine
Truck
p2053
(dp2054
g1885
I316
sg1886
I295
sg14
(iopmop.models.point
Point
p2055
(dp2056
g17
F40.5224649901301
sg18
I5
sg19
F-112.15391785781912
sg20
I71
sbsg1889
I43
sg1890
I113
sg1891
I01
sg1892
I186
sg1893
S'TRK36'
p2057
sg1895
I9483
sg23
I36
sba(iopmop.models.machine
Truck
p2058
(dp2059
g1885
I252
sg1886
I339
sg14
g1949
sg1889
I46
sg1890
I105
sg1891
I01
sg1892
I181
sg1893
S'TRK37'
p2060
sg1895
I8283
sg23
I37
sba(iopmop.models.machine
Truck
p2061
(dp2062
g1885
I342
sg1886
I324
sg14
(iopmop.models.point
Point
p2063
(dp2064
g17
F40.51964416685738
sg18
I2
sg19
F-112.15076226431802
sg20
I146
sbsg1889
I49
sg1890
I118
sg1891
I01
sg1892
I183
sg1893
S'TRK38'
p2065
sg1895
I8057
sg23
I38
sba(iopmop.models.machine
Truck
p2066
(dp2067
g1885
I401
sg1886
I390
sg14
(iopmop.models.point
Point
p2068
(dp2069
g17
F40.51290707153489
sg18
I1
sg19
F-112.14024398274228
sg20
I230
sbsg1889
I43
sg1890
I110
sg1891
I01
sg1892
I170
sg1893
S'TRK39'
p2070
sg1895
I8189
sg23
I39
sba(iopmop.models.machine
Truck
p2071
(dp2072
g1885
I295
sg1886
I363
sg14
(iopmop.models.point
Point
p2073
(dp2074
g17
F40.52451305258641
sg18
I1
sg19
F-112.10572931713864
sg20
I209
sbsg1889
I47
sg1890
I91
sg1891
I01
sg1892
I158
sg1893
S'TRK40'
p2075
sg1895
I8767
sg23
I40
sba(iopmop.models.machine
Truck
p2076
(dp2077
g1885
I351
sg1886
I250
sg14
(iopmop.models.point
Point
p2078
(dp2079
g17
F40.521600289092895
sg18
I3
sg19
F-112.15016361369356
sg20
I87
sbsg1889
I46
sg1890
I87
sg1891
I01
sg1892
I160
sg1893
S'TRK41'
p2080
sg1895
I10670
sg23
I41
sba(iopmop.models.machine
Truck
p2081
(dp2082
g1885
I303
sg1886
I398
sg14
g2063
sg1889
I47
sg1890
I101
sg1891
I01
sg1892
I171
sg1893
S'TRK42'
p2083
sg1895
I8109
sg23
I42
sba(iopmop.models.machine
Truck
p2084
(dp2085
g1885
I319
sg1886
I349
sg14
(iopmop.models.point
Point
p2086
(dp2087
g17
F40.523840237856376
sg18
I22
sg19
F-112.15156826920315
sg20
I55
sbsg1889
I40
sg1890
I120
sg1891
I01
sg1892
I167
sg1893
S'TRK43'
p2088
sg1895
I10096
sg23
I43
sba(iopmop.models.machine
Truck
p2089
(dp2090
g1885
I334
sg1886
I262
sg14
(iopmop.models.point
Point
p2091
(dp2092
g17
F40.530417151348395
sg18
I4
sg19
F-112.15297189238458
sg20
I77
sbsg1889
I41
sg1890
I87
sg1891
I01
sg1892
I177
sg1893
S'TRK44'
p2093
sg1895
I8580
sg23
I44
sba(iopmop.models.machine
Truck
p2094
(dp2095
g1885
I322
sg1886
I391
sg14
(iopmop.models.point
Point
p2096
(dp2097
g17
F40.52456587015929
sg18
I4
sg19
F-112.13865073597219
sg20
I192
sbsg1889
I44
sg1890
I91
sg1891
I01
sg1892
I174
sg1893
S'TRK45'
p2098
sg1895
I8088
sg23
I45
sba(iopmop.models.machine
Truck
p2099
(dp2100
g1885
I324
sg1886
I292
sg14
(iopmop.models.point
Point
p2101
(dp2102
g17
F40.51543389498886
sg18
I4
sg19
F-112.13385560637846
sg20
I201
sbsg1889
I41
sg1890
I83
sg1891
I01
sg1892
I188
sg1893
S'TRK46'
p2103
sg1895
I10598
sg23
I46
sba(iopmop.models.machine
Truck
p2104
(dp2105
g1885
I452
sg1886
I366
sg14
g28
sg1889
I50
sg1890
I104
sg1891
I01
sg1892
I181
sg1893
S'TRK47'
p2106
sg1895
I10582
sg23
I47
sba(iopmop.models.machine
Truck
p2107
(dp2108
g1885
I461
sg1886
I299
sg14
(iopmop.models.point
Point
p2109
(dp2110
g17
F40.529357119273065
sg18
I1
sg19
F-112.14197132534787
sg20
I189
sbsg1889
I49
sg1890
I117
sg1891
I01
sg1892
I175
sg1893
S'TRK48'
p2111
sg1895
I8868
sg23
I48
sba(iopmop.models.machine
Truck
p2112
(dp2113
g1885
I292
sg1886
I368
sg14
(iopmop.models.point
Point
p2114
(dp2115
g17
F40.52022072529596
sg18
I5
sg19
F-112.1557085714515
sg20
I109
sbsg1889
I49
sg1890
I81
sg1891
I01
sg1892
I193
sg1893
S'TRK49'
p2116
sg1895
I9283
sg23
I49
sbasS'locations'
p2117
(lp2118
(iopmop.models.location
Location
p2119
(dp2120
g14
(iopmop.models.point
Point
p2121
(dp2122
g17
F40.51919151519808
sg18
I9
sg19
F-112.14201155848309
sg20
I197
sbsg21
g58
sg23
I0
sg24
S'Site0'
p2123
sbag54
ag696
ag1346
ag1575
ag12
ag26
ag31
ag36
ag41
a(iopmop.models.location
Location
p2124
(dp2125
g14
(iopmop.models.point
Point
p2126
(dp2127
g17
F40.528875990263
sg18
I8
sg19
F-112.13703606076047
sg20
I245
sbsg21
S'fuel'
p2128
sg23
I10
sg24
S'Fuel10'
p2129
sba(iopmop.models.location
Location
p2130
(dp2131
g14
g2078
sg21
g2128
sg23
I11
sg24
S'Fuel11'
p2132
sbas.